

Microchip MPLAB XC8 Assembler V2.31 build 20201012212115 
                                                                                               Sat Feb 20 19:52:39 2021

Microchip MPLAB XC8 C Compiler v2.31 (Free license) build 20201012212115 Og1 
     1                           	processor	16F887
     2                           	pagewidth 120
     3                           	opt	flic
     4                           	psect	strings,global,class=STRING,delta=2,noexec
     5                           	psect	cinit,global,class=CODE,merge=1,delta=2
     6                           	psect	bssBANK1,global,class=BANK1,space=1,delta=1,noexec
     7                           	psect	clrtext,global,class=CODE,delta=2
     8                           	psect	cstackBANK1,global,class=BANK1,space=1,delta=1,noexec
     9                           	psect	cstackCOMMON,global,class=COMMON,space=1,delta=1,noexec
    10                           	psect	cstackBANK0,global,class=BANK0,space=1,delta=1,noexec
    11                           	psect	maintext,global,class=CODE,split=1,delta=2
    12                           	psect	text1,local,class=CODE,merge=1,delta=2
    13                           	psect	text2,local,class=CODE,merge=1,delta=2
    14                           	psect	text3,local,class=CODE,merge=1,delta=2
    15                           	psect	text4,local,class=CODE,merge=1,delta=2
    16                           	psect	text5,local,class=CODE,merge=1,delta=2
    17                           	psect	text6,local,class=CODE,merge=1,delta=2,group=1
    18                           	psect	text7,local,class=CODE,merge=1,delta=2,group=1
    19                           	psect	text8,local,class=CODE,merge=1,delta=2
    20                           	psect	text9,local,class=CODE,merge=1,delta=2,group=1
    21                           	psect	text10,local,class=CODE,merge=1,delta=2,group=1
    22                           	psect	text11,local,class=CODE,merge=1,delta=2,group=1
    23                           	psect	text12,local,class=CODE,merge=1,delta=2,group=1
    24                           	psect	text13,local,class=CODE,merge=1,delta=2,group=1
    25                           	psect	text14,local,class=CODE,merge=1,delta=2,group=1
    26                           	psect	text15,local,class=CODE,merge=1,delta=2,group=1
    27                           	psect	text16,local,class=CODE,merge=1,delta=2,group=1
    28                           	psect	text17,local,class=CODE,merge=1,delta=2,group=1
    29                           	psect	text18,local,class=CODE,merge=1,delta=2,group=1
    30                           	psect	text19,local,class=CODE,merge=1,delta=2
    31                           	psect	text20,local,class=CODE,merge=1,delta=2
    32                           	psect	text21,local,class=CODE,merge=1,delta=2
    33                           	psect	text22,local,class=CODE,merge=1,delta=2,group=1
    34                           	psect	text23,local,class=CODE,merge=1,delta=2
    35                           	psect	text24,local,class=CODE,merge=1,delta=2
    36                           	psect	text25,local,class=CODE,merge=1,delta=2
    37                           	psect	text26,local,class=CODE,merge=1,delta=2
    38                           	psect	text27,local,class=CODE,merge=1,delta=2
    39                           	psect	text28,local,class=CODE,merge=1,delta=2
    40                           	psect	text29,local,class=CODE,merge=1,delta=2
    41                           	psect	config,global,abs,ovrld,class=CONFIG,space=4,delta=2,noexec
    42                           	dabs	1,0x7E,2
    43  0000                     
    44                           ; Version 2.31
    45                           ; Generated 13/10/2020 GMT
    46                           ; 
    47                           ; Copyright © 2020, Microchip Technology Inc. and its subsidiaries ("Microchip")
    48                           ; All rights reserved.
    49                           ; 
    50                           ; This software is developed by Microchip Technology Inc. and its subsidiaries ("Microch
      +                          ip").
    51                           ; 
    52                           ; Redistribution and use in source and binary forms, with or without modification, are
    53                           ; permitted provided that the following conditions are met:
    54                           ; 
    55                           ;     1. Redistributions of source code must retain the above copyright notice, this lis
      +                          t of
    56                           ;        conditions and the following disclaimer.
    57                           ; 
    58                           ;     2. Redistributions in binary form must reproduce the above copyright notice, this 
      +                          list
    59                           ;        of conditions and the following disclaimer in the documentation and/or other
    60                           ;        materials provided with the distribution. Publication is not required when
    61                           ;        this file is used in an embedded application.
    62                           ; 
    63                           ;     3. Microchip's name may not be used to endorse or promote products derived from th
      +                          is
    64                           ;        software without specific prior written permission.
    65                           ; 
    66                           ; THIS SOFTWARE IS PROVIDED BY MICROCHIP "AS IS" AND ANY EXPRESS OR IMPLIED WARRANTIES,
    67                           ; INCLUDING, BUT NOT LIMITED TO, THE IMPLIED WARRANTIES OF MERCHANTABILITY AND FITNESS F
      +                          OR
    68                           ; PURPOSE ARE DISCLAIMED.  IN NO EVENT SHALL MICROCHIP BE LIABLE FOR ANY DIRECT, INDIREC
      +                          T,
    69                           ; INCIDENTAL, SPECIAL, EXEMPLARY, OR CONSEQUENTIAL DAMAGES (INCLUDING BUT NOT LIMITED TO
    70                           ; PROCUREMENT OF SUBSTITUTE GOODS OR SERVICES; LOSS OF USE, DATA OR PROFITS; OR BUSINESS
    71                           ; INTERRUPTION) HOWSOEVER CAUSED AND ON ANY THEORY OF LIABILITY, WHETHER IN CONTRACT, ST
      +                          RICT
    72                           ; LIABILITY, OR TORT (INCLUDING NEGLIGENCE OR OTHERWISE) ARISING IN ANY WAY OUT OF THE U
      +                          SE OF
    73                           ; THIS SOFTWARE, EVEN IF ADVISED OF THE POSSIBILITY OF SUCH DAMAGE.
    74                           ; 
    75                           ; 
    76                           ; Code-generator required, PIC16F887 Definitions
    77                           ; 
    78                           ; SFR Addresses
    79  0000                     	;# 
    80  0001                     	;# 
    81  0002                     	;# 
    82  0003                     	;# 
    83  0004                     	;# 
    84  0005                     	;# 
    85  0006                     	;# 
    86  0007                     	;# 
    87  0008                     	;# 
    88  0009                     	;# 
    89  000A                     	;# 
    90  000B                     	;# 
    91  000C                     	;# 
    92  000D                     	;# 
    93  000E                     	;# 
    94  000E                     	;# 
    95  000F                     	;# 
    96  0010                     	;# 
    97  0011                     	;# 
    98  0012                     	;# 
    99  0013                     	;# 
   100  0014                     	;# 
   101  0015                     	;# 
   102  0015                     	;# 
   103  0016                     	;# 
   104  0017                     	;# 
   105  0018                     	;# 
   106  0019                     	;# 
   107  001A                     	;# 
   108  001B                     	;# 
   109  001B                     	;# 
   110  001C                     	;# 
   111  001D                     	;# 
   112  001E                     	;# 
   113  001F                     	;# 
   114  0081                     	;# 
   115  0085                     	;# 
   116  0086                     	;# 
   117  0087                     	;# 
   118  0088                     	;# 
   119  0089                     	;# 
   120  008C                     	;# 
   121  008D                     	;# 
   122  008E                     	;# 
   123  008F                     	;# 
   124  0090                     	;# 
   125  0091                     	;# 
   126  0092                     	;# 
   127  0093                     	;# 
   128  0093                     	;# 
   129  0093                     	;# 
   130  0094                     	;# 
   131  0095                     	;# 
   132  0096                     	;# 
   133  0097                     	;# 
   134  0098                     	;# 
   135  0099                     	;# 
   136  009A                     	;# 
   137  009B                     	;# 
   138  009C                     	;# 
   139  009D                     	;# 
   140  009E                     	;# 
   141  009F                     	;# 
   142  0105                     	;# 
   143  0107                     	;# 
   144  0108                     	;# 
   145  0109                     	;# 
   146  010C                     	;# 
   147  010C                     	;# 
   148  010D                     	;# 
   149  010E                     	;# 
   150  010F                     	;# 
   151  0185                     	;# 
   152  0187                     	;# 
   153  0188                     	;# 
   154  0189                     	;# 
   155  018C                     	;# 
   156  018D                     	;# 
   157  0000                     	;# 
   158  0001                     	;# 
   159  0002                     	;# 
   160  0003                     	;# 
   161  0004                     	;# 
   162  0005                     	;# 
   163  0006                     	;# 
   164  0007                     	;# 
   165  0008                     	;# 
   166  0009                     	;# 
   167  000A                     	;# 
   168  000B                     	;# 
   169  000C                     	;# 
   170  000D                     	;# 
   171  000E                     	;# 
   172  000E                     	;# 
   173  000F                     	;# 
   174  0010                     	;# 
   175  0011                     	;# 
   176  0012                     	;# 
   177  0013                     	;# 
   178  0014                     	;# 
   179  0015                     	;# 
   180  0015                     	;# 
   181  0016                     	;# 
   182  0017                     	;# 
   183  0018                     	;# 
   184  0019                     	;# 
   185  001A                     	;# 
   186  001B                     	;# 
   187  001B                     	;# 
   188  001C                     	;# 
   189  001D                     	;# 
   190  001E                     	;# 
   191  001F                     	;# 
   192  0081                     	;# 
   193  0085                     	;# 
   194  0086                     	;# 
   195  0087                     	;# 
   196  0088                     	;# 
   197  0089                     	;# 
   198  008C                     	;# 
   199  008D                     	;# 
   200  008E                     	;# 
   201  008F                     	;# 
   202  0090                     	;# 
   203  0091                     	;# 
   204  0092                     	;# 
   205  0093                     	;# 
   206  0093                     	;# 
   207  0093                     	;# 
   208  0094                     	;# 
   209  0095                     	;# 
   210  0096                     	;# 
   211  0097                     	;# 
   212  0098                     	;# 
   213  0099                     	;# 
   214  009A                     	;# 
   215  009B                     	;# 
   216  009C                     	;# 
   217  009D                     	;# 
   218  009E                     	;# 
   219  009F                     	;# 
   220  0105                     	;# 
   221  0107                     	;# 
   222  0108                     	;# 
   223  0109                     	;# 
   224  010C                     	;# 
   225  010C                     	;# 
   226  010D                     	;# 
   227  010E                     	;# 
   228  010F                     	;# 
   229  0185                     	;# 
   230  0187                     	;# 
   231  0188                     	;# 
   232  0189                     	;# 
   233  018C                     	;# 
   234  018D                     	;# 
   235  0000                     	;# 
   236  0001                     	;# 
   237  0002                     	;# 
   238  0003                     	;# 
   239  0004                     	;# 
   240  0005                     	;# 
   241  0006                     	;# 
   242  0007                     	;# 
   243  0008                     	;# 
   244  0009                     	;# 
   245  000A                     	;# 
   246  000B                     	;# 
   247  000C                     	;# 
   248  000D                     	;# 
   249  000E                     	;# 
   250  000E                     	;# 
   251  000F                     	;# 
   252  0010                     	;# 
   253  0011                     	;# 
   254  0012                     	;# 
   255  0013                     	;# 
   256  0014                     	;# 
   257  0015                     	;# 
   258  0015                     	;# 
   259  0016                     	;# 
   260  0017                     	;# 
   261  0018                     	;# 
   262  0019                     	;# 
   263  001A                     	;# 
   264  001B                     	;# 
   265  001B                     	;# 
   266  001C                     	;# 
   267  001D                     	;# 
   268  001E                     	;# 
   269  001F                     	;# 
   270  0081                     	;# 
   271  0085                     	;# 
   272  0086                     	;# 
   273  0087                     	;# 
   274  0088                     	;# 
   275  0089                     	;# 
   276  008C                     	;# 
   277  008D                     	;# 
   278  008E                     	;# 
   279  008F                     	;# 
   280  0090                     	;# 
   281  0091                     	;# 
   282  0092                     	;# 
   283  0093                     	;# 
   284  0093                     	;# 
   285  0093                     	;# 
   286  0094                     	;# 
   287  0095                     	;# 
   288  0096                     	;# 
   289  0097                     	;# 
   290  0098                     	;# 
   291  0099                     	;# 
   292  009A                     	;# 
   293  009B                     	;# 
   294  009C                     	;# 
   295  009D                     	;# 
   296  009E                     	;# 
   297  009F                     	;# 
   298  0105                     	;# 
   299  0107                     	;# 
   300  0108                     	;# 
   301  0109                     	;# 
   302  010C                     	;# 
   303  010C                     	;# 
   304  010D                     	;# 
   305  010E                     	;# 
   306  010F                     	;# 
   307  0185                     	;# 
   308  0187                     	;# 
   309  0188                     	;# 
   310  0189                     	;# 
   311  018C                     	;# 
   312  018D                     	;# 
   313  0000                     	;# 
   314  0001                     	;# 
   315  0002                     	;# 
   316  0003                     	;# 
   317  0004                     	;# 
   318  0005                     	;# 
   319  0006                     	;# 
   320  0007                     	;# 
   321  0008                     	;# 
   322  0009                     	;# 
   323  000A                     	;# 
   324  000B                     	;# 
   325  000C                     	;# 
   326  000D                     	;# 
   327  000E                     	;# 
   328  000E                     	;# 
   329  000F                     	;# 
   330  0010                     	;# 
   331  0011                     	;# 
   332  0012                     	;# 
   333  0013                     	;# 
   334  0014                     	;# 
   335  0015                     	;# 
   336  0015                     	;# 
   337  0016                     	;# 
   338  0017                     	;# 
   339  0018                     	;# 
   340  0019                     	;# 
   341  001A                     	;# 
   342  001B                     	;# 
   343  001B                     	;# 
   344  001C                     	;# 
   345  001D                     	;# 
   346  001E                     	;# 
   347  001F                     	;# 
   348  0081                     	;# 
   349  0085                     	;# 
   350  0086                     	;# 
   351  0087                     	;# 
   352  0088                     	;# 
   353  0089                     	;# 
   354  008C                     	;# 
   355  008D                     	;# 
   356  008E                     	;# 
   357  008F                     	;# 
   358  0090                     	;# 
   359  0091                     	;# 
   360  0092                     	;# 
   361  0093                     	;# 
   362  0093                     	;# 
   363  0093                     	;# 
   364  0094                     	;# 
   365  0095                     	;# 
   366  0096                     	;# 
   367  0097                     	;# 
   368  0098                     	;# 
   369  0099                     	;# 
   370  009A                     	;# 
   371  009B                     	;# 
   372  009C                     	;# 
   373  009D                     	;# 
   374  009E                     	;# 
   375  009F                     	;# 
   376  0105                     	;# 
   377  0107                     	;# 
   378  0108                     	;# 
   379  0109                     	;# 
   380  010C                     	;# 
   381  010C                     	;# 
   382  010D                     	;# 
   383  010E                     	;# 
   384  010F                     	;# 
   385  0185                     	;# 
   386  0187                     	;# 
   387  0188                     	;# 
   388  0189                     	;# 
   389  018C                     	;# 
   390  018D                     	;# 
   391  0000                     	;# 
   392  0001                     	;# 
   393  0002                     	;# 
   394  0003                     	;# 
   395  0004                     	;# 
   396  0005                     	;# 
   397  0006                     	;# 
   398  0007                     	;# 
   399  0008                     	;# 
   400  0009                     	;# 
   401  000A                     	;# 
   402  000B                     	;# 
   403  000C                     	;# 
   404  000D                     	;# 
   405  000E                     	;# 
   406  000E                     	;# 
   407  000F                     	;# 
   408  0010                     	;# 
   409  0011                     	;# 
   410  0012                     	;# 
   411  0013                     	;# 
   412  0014                     	;# 
   413  0015                     	;# 
   414  0015                     	;# 
   415  0016                     	;# 
   416  0017                     	;# 
   417  0018                     	;# 
   418  0019                     	;# 
   419  001A                     	;# 
   420  001B                     	;# 
   421  001B                     	;# 
   422  001C                     	;# 
   423  001D                     	;# 
   424  001E                     	;# 
   425  001F                     	;# 
   426  0081                     	;# 
   427  0085                     	;# 
   428  0086                     	;# 
   429  0087                     	;# 
   430  0088                     	;# 
   431  0089                     	;# 
   432  008C                     	;# 
   433  008D                     	;# 
   434  008E                     	;# 
   435  008F                     	;# 
   436  0090                     	;# 
   437  0091                     	;# 
   438  0092                     	;# 
   439  0093                     	;# 
   440  0093                     	;# 
   441  0093                     	;# 
   442  0094                     	;# 
   443  0095                     	;# 
   444  0096                     	;# 
   445  0097                     	;# 
   446  0098                     	;# 
   447  0099                     	;# 
   448  009A                     	;# 
   449  009B                     	;# 
   450  009C                     	;# 
   451  009D                     	;# 
   452  009E                     	;# 
   453  009F                     	;# 
   454  0105                     	;# 
   455  0107                     	;# 
   456  0108                     	;# 
   457  0109                     	;# 
   458  010C                     	;# 
   459  010C                     	;# 
   460  010D                     	;# 
   461  010E                     	;# 
   462  010F                     	;# 
   463  0185                     	;# 
   464  0187                     	;# 
   465  0188                     	;# 
   466  0189                     	;# 
   467  018C                     	;# 
   468  018D                     	;# 
   469  001A                     _RCREG	set	26
   470  000C                     _PIR1bits	set	12
   471  0019                     _TXREG	set	25
   472  0018                     _RCSTAbits	set	24
   473  0009                     _PORTEbits	set	9
   474  0013                     _SSPBUF	set	19
   475  0014                     _SSPCON	set	20
   476  0009                     _PORTE	set	9
   477  0008                     _PORTD	set	8
   478  0007                     _PORTCbits	set	7
   479  0098                     _TXSTAbits	set	152
   480  0099                     _SPBRG	set	153
   481  0094                     _SSPSTATbits	set	148
   482  0094                     _SSPSTAT	set	148
   483  0089                     _TRISE	set	137
   484  0088                     _TRISD	set	136
   485  0086                     _TRISB	set	134
   486  0087                     _TRISCbits	set	135
   487  043B                     _TRISC3	set	1083
   488  043D                     _TRISC5	set	1085
   489  0189                     _ANSELH	set	393
   490  0188                     _ANSEL	set	392
   491                           
   492                           	psect	strings
   493  1000                     __pstrings:
   494  1000                     stringtab:
   495  1000                     __stringtab:
   496                           
   497                           ;	String table - string pointers are 1 byte each
   498  1000  1BFF               	btfsc	btemp+1,7
   499  1001  280A               	ljmp	stringcode
   500  1002  1383               	bcf	3,7
   501  1003  187F               	btfsc	btemp+1,0
   502  1004  1783               	bsf	3,7
   503  1005  0800               	movf	0,w
   504  1006  0A84               	incf	4,f
   505  1007  1903               	skipnz
   506  1008  0AFF               	incf	btemp+1,f
   507  1009  0008               	return
   508  100A                     stringcode:
   509  100A                     stringdir:
   510  100A  3010               	movlw	high stringdir
   511  100B  008A               	movwf	10
   512  100C  0804               	movf	4,w
   513  100D  0A84               	incf	4,f
   514  100E  0782               	addwf	2,f
   515  100F                     __stringbase:
   516  100F  3400               	retlw	0
   517  1010                     __end_of__stringtab:
   518  1010                     STR_1:
   519  1010  3453               	retlw	83	;'S'
   520  1011  3431               	retlw	49	;'1'
   521  1012  343A               	retlw	58	;':'
   522  1013  3400               	retlw	0
   523  1014                     STR_2:
   524  1014  3453               	retlw	83	;'S'
   525  1015  3432               	retlw	50	;'2'
   526  1016  343A               	retlw	58	;':'
   527  1017  3400               	retlw	0
   528  1018                     STR_3:
   529  1018  3453               	retlw	83	;'S'
   530  1019  3433               	retlw	51	;'3'
   531  101A  343A               	retlw	58	;':'
   532  101B  3400               	retlw	0
   533  101C                     STR_5:
   534  101C  3453               	retlw	83	;'S'
   535  101D  3431               	retlw	49	;'1'
   536  101E  3400               	retlw	0
   537  101F                     STR_6:
   538  101F  3453               	retlw	83	;'S'
   539  1020  3432               	retlw	50	;'2'
   540  1021  3400               	retlw	0
   541  1022                     STR_8:
   542  1022  3453               	retlw	83	;'S'
   543  1023  3433               	retlw	51	;'3'
   544  1024  3400               	retlw	0
   545  1025                     STR_7:
   546  1025  3443               	retlw	67	;'C'
   547  1026  3400               	retlw	0
   548  1027                     STR_4:
   549  1027  3456               	retlw	86	;'V'
   550  1028  3400               	retlw	0
   551                           
   552                           	psect	cinit
   553  07F3                     start_initialization:	
   554                           ; #config settings
   555                           
   556  07F3                     __initialization:
   557                           
   558                           ; Clear objects allocated to BANK1
   559  07F3  1383               	bcf	3,7	;select IRP bank0
   560  07F4  30B7               	movlw	low __pbssBANK1
   561  07F5  0084               	movwf	4
   562  07F6  30CA               	movlw	low (__pbssBANK1+19)
   563  07F7  160A  118A  238C  120A  118A  	fcall	clear_ram0
   564  07FC                     end_of_initialization:	
   565                           ;End of C runtime variable initialization code
   566                           
   567  07FC                     __end_of__initialization:
   568  07FC  0183               	clrf	3
   569  07FD  120A  158A  2D06   	ljmp	_main	;jump to C main() function
   570                           
   571                           	psect	bssBANK1
   572  00B7                     __pbssBANK1:
   573  00B7                     _conv_ADC:
   574  00B7                     	ds	4
   575  00BB                     _string_cont8bits:
   576  00BB                     	ds	2
   577  00BD                     _temperature:
   578  00BD                     	ds	1
   579  00BE                     _cont8bits:
   580  00BE                     	ds	1
   581  00BF                     _voltageADC:
   582  00BF                     	ds	1
   583  00C0                     _string_temperature:
   584  00C0                     	ds	5
   585  00C5                     _string_voltageADC:
   586  00C5                     	ds	5
   587                           
   588                           	psect	clrtext
   589  138C                     clear_ram0:	
   590                           ;	Called with FSR containing the base address, and
   591                           ;	W with the last address+1
   592                           
   593  138C  0064               	clrwdt	;clear the watchdog before getting into this loop
   594  138D                     clrloop0:
   595  138D  0180               	clrf	0	;clear RAM location pointed to by FSR
   596  138E  0A84               	incf	4,f	;increment pointer
   597  138F  0604               	xorwf	4,w	;XOR with final address
   598  1390  1903               	btfsc	3,2	;have we reached the end yet?
   599  1391  3400               	retlw	0	;all done for this memory range, return
   600  1392  0604               	xorwf	4,w	;XOR again to restore value
   601  1393  2B8D               	goto	clrloop0	;do the next byte
   602                           
   603                           	psect	cstackBANK1
   604  00A0                     __pcstackBANK1:
   605  00A0                     convert@temp:
   606                           
   607                           ; 2 bytes @ 0x0
   608  00A0                     	ds	2
   609  00A2                     convert@j:
   610                           
   611                           ; 2 bytes @ 0x2
   612  00A2                     	ds	2
   613  00A4                     convert@data:
   614                           
   615                           ; 1 bytes @ 0x4
   616  00A4                     	ds	1
   617  00A5                     convert@x:
   618                           
   619                           ; 4 bytes @ 0x5
   620  00A5                     	ds	4
   621  00A9                     convert@i:
   622                           
   623                           ; 2 bytes @ 0x9
   624  00A9                     	ds	2
   625  00AB                     convert@digits:
   626                           
   627                           ; 2 bytes @ 0xB
   628  00AB                     	ds	2
   629  00AD                     convert@mu:
   630                           
   631                           ; 2 bytes @ 0xD
   632  00AD                     	ds	2
   633  00AF                     ??_main:
   634                           
   635                           ; 1 bytes @ 0xF
   636  00AF                     	ds	4
   637  00B3                     _main$1159:
   638                           
   639                           ; 4 bytes @ 0x13
   640  00B3                     	ds	4
   641                           
   642                           	psect	cstackCOMMON
   643  0070                     __pcstackCOMMON:
   644  0070                     ?___flge:
   645  0070                     ?_spiInit:	
   646                           ; 1 bit 
   647                           
   648  0070                     ?_Lcd_Init:	
   649                           ; 1 bytes @ 0x0
   650                           
   651  0070                     ?_Lcd_Clear:	
   652                           ; 1 bytes @ 0x0
   653                           
   654  0070                     ?_spiWrite:	
   655                           ; 1 bytes @ 0x0
   656                           
   657  0070                     ??_spiWrite:	
   658                           ; 1 bytes @ 0x0
   659                           
   660  0070                     ?_spiRead:	
   661                           ; 1 bytes @ 0x0
   662                           
   663  0070                     ??_spiRead:	
   664                           ; 1 bytes @ 0x0
   665                           
   666  0070                     ?_UARTSendChar:	
   667                           ; 1 bytes @ 0x0
   668                           
   669  0070                     ??_UARTSendChar:	
   670                           ; 1 bytes @ 0x0
   671                           
   672  0070                     ?_int2String:	
   673                           ; 1 bytes @ 0x0
   674                           
   675  0070                     ?_main:	
   676                           ; 1 bytes @ 0x0
   677                           
   678  0070                     ?_spiReceiveWait:	
   679                           ; 1 bytes @ 0x0
   680                           
   681  0070                     ??_spiReceiveWait:	
   682                           ; 1 bytes @ 0x0
   683                           
   684  0070                     ?_Lcd_Port:	
   685                           ; 1 bytes @ 0x0
   686                           
   687  0070                     ??_Lcd_Port:	
   688                           ; 1 bytes @ 0x0
   689                           
   690  0070                     ?_Lcd_Cmd:	
   691                           ; 1 bytes @ 0x0
   692                           
   693  0070                     ?_Lcd_Write_Char:	
   694                           ; 1 bytes @ 0x0
   695                           
   696  0070                     ?___bmul:	
   697                           ; 1 bytes @ 0x0
   698                           
   699  0070                     ?__Umul8_16:	
   700                           ; 1 bytes @ 0x0
   701                           
   702  0070                     ?___awdiv:	
   703                           ; 2 bytes @ 0x0
   704                           
   705  0070                     ?___awmod:	
   706                           ; 2 bytes @ 0x0
   707                           
   708  0070                     ?___lldiv:	
   709                           ; 2 bytes @ 0x0
   710                           
   711  0070                     ?___fltol:	
   712                           ; 4 bytes @ 0x0
   713                           
   714  0070                     ?___fladd:	
   715                           ; 4 bytes @ 0x0
   716                           
   717  0070                     spiInit@sDataSample:	
   718                           ; 4 bytes @ 0x0
   719                           
   720  0070                     spiWrite@dat:	
   721                           ; 1 bytes @ 0x0
   722                           
   723  0070                     Lcd_Port@a:	
   724                           ; 1 bytes @ 0x0
   725                           
   726  0070                     UARTSendChar@c:	
   727                           ; 1 bytes @ 0x0
   728                           
   729  0070                     ___bmul@multiplicand:	
   730                           ; 1 bytes @ 0x0
   731                           
   732  0070                     __Umul8_16@multiplicand:	
   733                           ; 1 bytes @ 0x0
   734                           
   735  0070                     ___awdiv@divisor:	
   736                           ; 1 bytes @ 0x0
   737                           
   738  0070                     ___awmod@divisor:	
   739                           ; 2 bytes @ 0x0
   740                           
   741  0070                     ___lldiv@divisor:	
   742                           ; 2 bytes @ 0x0
   743                           
   744  0070                     ___flge@ff1:	
   745                           ; 4 bytes @ 0x0
   746                           
   747  0070                     ___fltol@f1:	
   748                           ; 4 bytes @ 0x0
   749                           
   750  0070                     ___fladd@b:	
   751                           ; 4 bytes @ 0x0
   752                           
   753                           
   754                           ; 4 bytes @ 0x0
   755  0070                     	ds	1
   756  0071                     ?_UARTSendString:
   757  0071                     ??_Lcd_Cmd:	
   758                           ; 1 bytes @ 0x1
   759                           
   760  0071                     ??_Lcd_Write_Char:	
   761                           ; 1 bytes @ 0x1
   762                           
   763  0071                     ??___bmul:	
   764                           ; 1 bytes @ 0x1
   765                           
   766  0071                     spiInit@sClockIdle:	
   767                           ; 1 bytes @ 0x1
   768                           
   769  0071                     UARTSendString@str:	
   770                           ; 1 bytes @ 0x1
   771                           
   772                           
   773                           ; 2 bytes @ 0x1
   774  0071                     	ds	1
   775  0072                     ??__Umul8_16:
   776  0072                     spiInit@sTransmitEdge:	
   777                           ; 1 bytes @ 0x2
   778                           
   779  0072                     Lcd_Write_Char@a:	
   780                           ; 1 bytes @ 0x2
   781                           
   782  0072                     ___bmul@product:	
   783                           ; 1 bytes @ 0x2
   784                           
   785  0072                     ___awdiv@dividend:	
   786                           ; 1 bytes @ 0x2
   787                           
   788  0072                     ___awmod@dividend:	
   789                           ; 2 bytes @ 0x2
   790                           
   791                           
   792                           ; 2 bytes @ 0x2
   793  0072                     	ds	1
   794  0073                     ??_spiInit:
   795  0073                     ?_Lcd_Write_String:	
   796                           ; 1 bytes @ 0x3
   797                           
   798  0073                     spiInit@sType:	
   799                           ; 1 bytes @ 0x3
   800                           
   801  0073                     Lcd_Cmd@a:	
   802                           ; 1 bytes @ 0x3
   803                           
   804  0073                     UARTSendString@max_length:	
   805                           ; 1 bytes @ 0x3
   806                           
   807  0073                     ___bmul@multiplier:	
   808                           ; 1 bytes @ 0x3
   809                           
   810  0073                     Lcd_Write_String@a:	
   811                           ; 1 bytes @ 0x3
   812                           
   813                           
   814                           ; 2 bytes @ 0x3
   815  0073                     	ds	1
   816  0074                     ??_Lcd_Init:
   817  0074                     ??_Lcd_Clear:	
   818                           ; 1 bytes @ 0x4
   819                           
   820  0074                     ?_Lcd_Set_Cursor:	
   821                           ; 1 bytes @ 0x4
   822                           
   823  0074                     ??_UARTSendString:	
   824                           ; 1 bytes @ 0x4
   825                           
   826  0074                     ??___awdiv:	
   827                           ; 1 bytes @ 0x4
   828                           
   829  0074                     ??___awmod:	
   830                           ; 1 bytes @ 0x4
   831                           
   832  0074                     ??___fltol:	
   833                           ; 1 bytes @ 0x4
   834                           
   835  0074                     Lcd_Set_Cursor@b:	
   836                           ; 1 bytes @ 0x4
   837                           
   838  0074                     __Umul8_16@product:	
   839                           ; 1 bytes @ 0x4
   840                           
   841  0074                     ___lldiv@dividend:	
   842                           ; 2 bytes @ 0x4
   843                           
   844  0074                     ___flge@ff2:	
   845                           ; 4 bytes @ 0x4
   846                           
   847  0074                     ___fladd@a:	
   848                           ; 4 bytes @ 0x4
   849                           
   850                           
   851                           ; 4 bytes @ 0x4
   852  0074                     	ds	1
   853  0075                     ??_Lcd_Set_Cursor:
   854  0075                     ??_Lcd_Write_String:	
   855                           ; 1 bytes @ 0x5
   856                           
   857  0075                     ___awdiv@counter:	
   858                           ; 1 bytes @ 0x5
   859                           
   860  0075                     ___awmod@counter:	
   861                           ; 1 bytes @ 0x5
   862                           
   863  0075                     Lcd_Write_String@i:	
   864                           ; 1 bytes @ 0x5
   865                           
   866  0075                     UARTSendString@i:	
   867                           ; 2 bytes @ 0x5
   868                           
   869                           
   870                           ; 2 bytes @ 0x5
   871  0075                     	ds	1
   872  0076                     Lcd_Set_Cursor@a:
   873  0076                     ___awdiv@sign:	
   874                           ; 1 bytes @ 0x6
   875                           
   876  0076                     ___awmod@sign:	
   877                           ; 1 bytes @ 0x6
   878                           
   879  0076                     __Umul8_16@word_mpld:	
   880                           ; 1 bytes @ 0x6
   881                           
   882                           
   883                           ; 2 bytes @ 0x6
   884  0076                     	ds	1
   885  0077                     Lcd_Set_Cursor@temp:
   886  0077                     ___awdiv@quotient:	
   887                           ; 1 bytes @ 0x7
   888                           
   889                           
   890                           ; 2 bytes @ 0x7
   891  0077                     	ds	1
   892  0078                     ??___lldiv:
   893  0078                     ??___flge:	
   894                           ; 1 bytes @ 0x8
   895                           
   896  0078                     ___fladd@signs:	
   897                           ; 1 bytes @ 0x8
   898                           
   899  0078                     __Umul8_16@multiplier:	
   900                           ; 1 bytes @ 0x8
   901                           
   902                           
   903                           ; 1 bytes @ 0x8
   904  0078                     	ds	1
   905  0079                     ??_int2String:
   906  0079                     ___fltol@sign1:	
   907                           ; 1 bytes @ 0x9
   908                           
   909  0079                     ___fladd@aexp:	
   910                           ; 1 bytes @ 0x9
   911                           
   912  0079                     ___lldiv@quotient:	
   913                           ; 1 bytes @ 0x9
   914                           
   915                           
   916                           ; 4 bytes @ 0x9
   917  0079                     	ds	1
   918  007A                     ___fltol@exp1:
   919  007A                     ___fladd@bexp:	
   920                           ; 1 bytes @ 0xA
   921                           
   922                           
   923                           ; 1 bytes @ 0xA
   924  007A                     	ds	1
   925  007B                     ??___wmul:
   926  007B                     ___fladd@grs:	
   927                           ; 1 bytes @ 0xB
   928                           
   929  007B                     ___wmul@product:	
   930                           ; 1 bytes @ 0xB
   931                           
   932                           
   933                           ; 2 bytes @ 0xB
   934  007B                     	ds	2
   935  007D                     ??___flsub:
   936  007D                     ___lldiv@counter:	
   937                           ; 1 bytes @ 0xD
   938                           
   939                           
   940                           ; 1 bytes @ 0xD
   941  007D                     	ds	1
   942                           
   943                           	psect	cstackBANK0
   944  0020                     __pcstackBANK0:
   945  0020                     ?_UARTInit:
   946  0020                     ??___fladd:	
   947                           ; 1 bytes @ 0x0
   948                           
   949  0020                     ?___wmul:	
   950                           ; 1 bytes @ 0x0
   951                           
   952  0020                     ___wmul@multiplier:	
   953                           ; 2 bytes @ 0x0
   954                           
   955  0020                     int2String@cifras:	
   956                           ; 2 bytes @ 0x0
   957                           
   958  0020                     UARTInit@baud_rate:	
   959                           ; 4 bytes @ 0x0
   960                           
   961                           
   962                           ; 4 bytes @ 0x0
   963  0020                     	ds	2
   964  0022                     ___wmul@multiplicand:
   965                           
   966                           ; 2 bytes @ 0x2
   967  0022                     	ds	2
   968  0024                     ?___xxtofl:
   969  0024                     int2String@x:	
   970                           ; 4 bytes @ 0x4
   971                           
   972  0024                     UARTInit@BRGH:	
   973                           ; 1 bytes @ 0x4
   974                           
   975  0024                     ___xxtofl@val:	
   976                           ; 1 bytes @ 0x4
   977                           
   978                           
   979                           ; 4 bytes @ 0x4
   980  0024                     	ds	1
   981  0025                     ??_UARTInit:
   982  0025                     int2String@value:	
   983                           ; 1 bytes @ 0x5
   984                           
   985                           
   986                           ; 1 bytes @ 0x5
   987  0025                     	ds	3
   988  0028                     ??___xxtofl:
   989                           
   990                           ; 1 bytes @ 0x8
   991  0028                     	ds	4
   992  002C                     ___xxtofl@sign:
   993                           
   994                           ; 1 bytes @ 0xC
   995  002C                     	ds	1
   996  002D                     ___xxtofl@exp:
   997                           
   998                           ; 1 bytes @ 0xD
   999  002D                     	ds	1
  1000  002E                     ___xxtofl@arg:
  1001                           
  1002                           ; 4 bytes @ 0xE
  1003  002E                     	ds	4
  1004  0032                     ?___flsub:
  1005  0032                     ?___fldiv:	
  1006                           ; 4 bytes @ 0x12
  1007                           
  1008  0032                     ___flsub@a:	
  1009                           ; 4 bytes @ 0x12
  1010                           
  1011  0032                     ___fldiv@a:	
  1012                           ; 4 bytes @ 0x12
  1013                           
  1014                           
  1015                           ; 4 bytes @ 0x12
  1016  0032                     	ds	4
  1017  0036                     ___flsub@b:
  1018  0036                     ___fldiv@b:	
  1019                           ; 4 bytes @ 0x16
  1020                           
  1021                           
  1022                           ; 4 bytes @ 0x16
  1023  0036                     	ds	4
  1024  003A                     ??___fldiv:
  1025                           
  1026                           ; 1 bytes @ 0x1A
  1027  003A                     	ds	5
  1028  003F                     ___fldiv@rem:
  1029                           
  1030                           ; 4 bytes @ 0x1F
  1031  003F                     	ds	4
  1032  0043                     ___fldiv@sign:
  1033                           
  1034                           ; 1 bytes @ 0x23
  1035  0043                     	ds	1
  1036  0044                     ___fldiv@new_exp:
  1037                           
  1038                           ; 2 bytes @ 0x24
  1039  0044                     	ds	2
  1040  0046                     ___fldiv@grs:
  1041                           
  1042                           ; 4 bytes @ 0x26
  1043  0046                     	ds	4
  1044  004A                     ___fldiv@bexp:
  1045                           
  1046                           ; 1 bytes @ 0x2A
  1047  004A                     	ds	1
  1048  004B                     ___fldiv@aexp:
  1049                           
  1050                           ; 1 bytes @ 0x2B
  1051  004B                     	ds	1
  1052  004C                     ?___flmul:
  1053  004C                     ___flmul@b:	
  1054                           ; 4 bytes @ 0x2C
  1055                           
  1056                           
  1057                           ; 4 bytes @ 0x2C
  1058  004C                     	ds	4
  1059  0050                     ___flmul@a:
  1060                           
  1061                           ; 4 bytes @ 0x30
  1062  0050                     	ds	4
  1063  0054                     ??___flmul:
  1064                           
  1065                           ; 1 bytes @ 0x34
  1066  0054                     	ds	5
  1067  0059                     ___flmul@sign:
  1068                           
  1069                           ; 1 bytes @ 0x39
  1070  0059                     	ds	1
  1071  005A                     ___flmul@grs:
  1072                           
  1073                           ; 4 bytes @ 0x3A
  1074  005A                     	ds	4
  1075  005E                     ___flmul@aexp:
  1076                           
  1077                           ; 1 bytes @ 0x3E
  1078  005E                     	ds	1
  1079  005F                     ___flmul@bexp:
  1080                           
  1081                           ; 1 bytes @ 0x3F
  1082  005F                     	ds	1
  1083  0060                     ___flmul@prod:
  1084                           
  1085                           ; 4 bytes @ 0x40
  1086  0060                     	ds	4
  1087  0064                     ___flmul@temp:
  1088                           
  1089                           ; 2 bytes @ 0x44
  1090  0064                     	ds	2
  1091  0066                     ?_convert:
  1092  0066                     convert@a:	
  1093                           ; 1 bytes @ 0x46
  1094                           
  1095                           
  1096                           ; 4 bytes @ 0x46
  1097  0066                     	ds	4
  1098  006A                     convert@place:
  1099                           
  1100                           ; 2 bytes @ 0x4A
  1101  006A                     	ds	2
  1102  006C                     ??_convert:
  1103                           
  1104                           ; 1 bytes @ 0x4C
  1105  006C                     	ds	2
  1106                           
  1107                           	psect	maintext
  1108  0D06                     __pmaintext:	
  1109 ;;
  1110 ;;Main: autosize = 0, tempsize = 4, incstack = 0, save=0
  1111 ;;
  1112 ;; *************** function _main *****************
  1113 ;; Defined at:
  1114 ;;		line 48 in file "main.c"
  1115 ;; Parameters:    Size  Location     Type
  1116 ;;		None
  1117 ;; Auto vars:     Size  Location     Type
  1118 ;;		None
  1119 ;; Return value:  Size  Location     Type
  1120 ;;                  1    wreg      void 
  1121 ;; Registers used:
  1122 ;;		wreg, fsr0l, fsr0h, status,2, status,0, btemp+1, pclath, cstack
  1123 ;; Tracked objects:
  1124 ;;		On entry : B00/0
  1125 ;;		On exit  : 0/0
  1126 ;;		Unchanged: 0/0
  1127 ;; Data sizes:     COMMON   BANK0   BANK1   BANK3   BANK2
  1128 ;;      Params:         0       0       0       0       0
  1129 ;;      Locals:         0       0       4       0       0
  1130 ;;      Temps:          0       0       4       0       0
  1131 ;;      Totals:         0       0       8       0       0
  1132 ;;Total ram usage:        8 bytes
  1133 ;; Hardware stack levels required when called:    3
  1134 ;; This function calls:
  1135 ;;		_Lcd_Clear
  1136 ;;		_Lcd_Init
  1137 ;;		_Lcd_Set_Cursor
  1138 ;;		_Lcd_Write_String
  1139 ;;		_UARTInit
  1140 ;;		_UARTSendChar
  1141 ;;		_UARTSendString
  1142 ;;		___fldiv
  1143 ;;		___flmul
  1144 ;;		___xxtofl
  1145 ;;		_convert
  1146 ;;		_int2String
  1147 ;;		_spiInit
  1148 ;;		_spiRead
  1149 ;;		_spiWrite
  1150 ;; This function is called by:
  1151 ;;		Startup code after reset
  1152 ;; This function uses a non-reentrant model
  1153 ;;
  1154                           
  1155                           
  1156                           ;psect for function _main
  1157  0D06                     _main:
  1158  0D06                     l2943:	
  1159                           ;incstack = 0
  1160                           ; Regs used in _main: [wreg-fsr0h+status,2+status,0+btemp+1+pclath+cstack]
  1161                           
  1162                           
  1163                           ;main.c: 50:         spiWrite(1);
  1164  0D06  1683               	bsf	3,5	;RP0=1, select bank3
  1165  0D07  1703               	bsf	3,6	;RP1=1, select bank3
  1166  0D08  0188               	clrf	8	;volatile
  1167                           
  1168                           ;main.c: 51:         voltageADC = spiRead();
  1169  0D09  0189               	clrf	9	;volatile
  1170  0D0A                     l2945:
  1171                           
  1172                           ;main.c: 53:         PORTCbits.RC0 = 1;
  1173  0D0A  3000               	movlw	0
  1174  0D0B  1283               	bcf	3,5	;RP0=0, select bank0
  1175  0D0C  1303               	bcf	3,6	;RP1=0, select bank0
  1176  0D0D  00A3               	movwf	UARTInit@baud_rate+3
  1177  0D0E  3000               	movlw	0
  1178  0D0F  00A2               	movwf	UARTInit@baud_rate+2
  1179  0D10  3025               	movlw	37
  1180  0D11  00A1               	movwf	UARTInit@baud_rate+1
  1181  0D12  3080               	movlw	128
  1182  0D13  00A0               	movwf	UARTInit@baud_rate
  1183  0D14  01A4               	clrf	UARTInit@BRGH
  1184  0D15  0AA4               	incf	UARTInit@BRGH,f
  1185  0D16  120A  158A  2022  120A  158A  	fcall	_UARTInit
  1186  0D1B                     l2947:
  1187                           
  1188                           ;main.c: 54:         PORTCbits.RC1 = 0;
  1189  0D1B  1683               	bsf	3,5	;RP0=1, select bank1
  1190  0D1C  1303               	bcf	3,6	;RP1=0, select bank1
  1191  0D1D  1307               	bcf	7,6	;volatile
  1192  0D1E                     l2949:
  1193                           
  1194                           ;main.c: 55:         _delay((unsigned long)((1)*(4000000/4000.0)));
  1195  0D1E  1787               	bsf	7,7	;volatile
  1196  0D1F                     l2951:
  1197                           
  1198                           ;main.c: 57:         cont8bits = spiRead();
  1199  0D1F  1007               	bcf	7,0	;volatile
  1200  0D20                     l2953:
  1201                           
  1202                           ;main.c: 58:         _delay((unsigned long)((1)*(4000000/4000.0)));
  1203  0D20  1087               	bcf	7,1	;volatile
  1204  0D21                     l2955:
  1205                           
  1206                           ;main.c: 59:         PORTCbits.RC1 = 1;
  1207  0D21  1107               	bcf	7,2	;volatile
  1208  0D22                     l2957:
  1209                           
  1210                           ;main.c: 60:         PORTCbits.RC2 = 0;
  1211  0D22  1283               	bcf	3,5	;RP0=0, select bank0
  1212  0D23  1303               	bcf	3,6	;RP1=0, select bank0
  1213  0D24  1007               	bcf	7,0	;volatile
  1214  0D25                     l2959:
  1215                           
  1216                           ;main.c: 61:         _delay((unsigned long)((1)*(4000000/4000.0)));
  1217  0D25  1487               	bsf	7,1	;volatile
  1218  0D26                     l2961:
  1219                           
  1220                           ;main.c: 62:         spiWrite(3);
  1221  0D26  1507               	bsf	7,2	;volatile
  1222  0D27                     l2963:
  1223                           
  1224                           ;main.c: 63:         temperature = spiRead();
  1225  0D27  01F0               	clrf	spiInit@sDataSample
  1226  0D28  01F1               	clrf	spiInit@sClockIdle
  1227  0D29  01F2               	clrf	spiInit@sTransmitEdge
  1228  0D2A  3020               	movlw	32
  1229  0D2B  120A  158A  200C  120A  158A  	fcall	_spiInit
  1230                           
  1231                           ;main.c: 65:         conv_ADC = (voltageADC / (float) 255)*5;
  1232  0D30  1683               	bsf	3,5	;RP0=1, select bank1
  1233  0D31  1303               	bcf	3,6	;RP1=0, select bank1
  1234  0D32  0186               	clrf	6	;volatile
  1235                           
  1236                           ;main.c: 66: 
  1237  0D33  0188               	clrf	8	;volatile
  1238                           
  1239                           ;main.c: 67:         convert(string_voltageADC, conv_ADC, 2);
  1240  0D34  0189               	clrf	9	;volatile
  1241                           
  1242                           ;main.c: 69:         Lcd_Write_String(string_voltageADC);
  1243  0D35  1283               	bcf	3,5	;RP0=0, select bank0
  1244  0D36  1303               	bcf	3,6	;RP1=0, select bank0
  1245  0D37  0188               	clrf	8	;volatile
  1246                           
  1247                           ;main.c: 70:         Lcd_Set_Cursor(2, 5);
  1248  0D38  0189               	clrf	9	;volatile
  1249  0D39                     l2965:
  1250                           
  1251                           ;main.c: 72:         UARTSendChar('|');
  1252  0D39  160A  118A  24D9  120A  158A  	fcall	_Lcd_Init
  1253  0D3E                     l2967:
  1254                           
  1255                           ;main.c: 73:         UARTSendString("S1", 6);
  1256  0D3E  160A  118A  239D  120A  158A  	fcall	_Lcd_Clear
  1257  0D43                     l2969:
  1258                           
  1259                           ;main.c: 76:         UARTSendString(string_voltageADC, 5);
  1260  0D43  01F4               	clrf	Lcd_Set_Cursor@b
  1261  0D44  0AF4               	incf	Lcd_Set_Cursor@b,f
  1262  0D45  3001               	movlw	1
  1263  0D46  160A  118A  23D4  120A  158A  	fcall	_Lcd_Set_Cursor
  1264  0D4B                     l2971:
  1265                           
  1266                           ;main.c: 77:         UARTSendChar('V');
  1267  0D4B  3001               	movlw	(low ((STR_1-__stringbase)| (0+32768)))& (0+255)
  1268  0D4C  00F3               	movwf	Lcd_Write_String@a
  1269  0D4D  3080               	movlw	128
  1270  0D4E  00F4               	movwf	Lcd_Write_String@a+1
  1271  0D4F  160A  118A  246A  120A  158A  	fcall	_Lcd_Write_String
  1272  0D54                     l2973:
  1273                           
  1274                           ;main.c: 78:         UARTSendChar(',');
  1275  0D54  3007               	movlw	7
  1276  0D55  1683               	bsf	3,5	;RP0=1, select bank1
  1277  0D56  1303               	bcf	3,6	;RP1=0, select bank1
  1278  0D57  00AF               	movwf	??_main^(0+128)
  1279  0D58  082F               	movf	??_main^(0+128),w
  1280  0D59  00F4               	movwf	Lcd_Set_Cursor@b
  1281  0D5A  3001               	movlw	1
  1282  0D5B  160A  118A  23D4  120A  158A  	fcall	_Lcd_Set_Cursor
  1283  0D60                     l2975:
  1284                           
  1285                           ;main.c: 79:         UARTSendChar(' ');
  1286  0D60  3005               	movlw	(low ((STR_2-__stringbase)| (0+32768)))& (0+255)
  1287  0D61  00F3               	movwf	Lcd_Write_String@a
  1288  0D62  3080               	movlw	128
  1289  0D63  00F4               	movwf	Lcd_Write_String@a+1
  1290  0D64  160A  118A  246A  120A  158A  	fcall	_Lcd_Write_String
  1291  0D69                     l2977:
  1292                           
  1293                           ;main.c: 80: 
  1294  0D69  300D               	movlw	13
  1295  0D6A  1683               	bsf	3,5	;RP0=1, select bank1
  1296  0D6B  1303               	bcf	3,6	;RP1=0, select bank1
  1297  0D6C  00AF               	movwf	??_main^(0+128)
  1298  0D6D  082F               	movf	??_main^(0+128),w
  1299  0D6E  00F4               	movwf	Lcd_Set_Cursor@b
  1300  0D6F  3001               	movlw	1
  1301  0D70  160A  118A  23D4  120A  158A  	fcall	_Lcd_Set_Cursor
  1302  0D75                     l2979:
  1303                           
  1304                           ;main.c: 81:         string_cont8bits = int2String(cont8bits);
  1305  0D75  3009               	movlw	(low ((STR_3-__stringbase)| (0+32768)))& (0+255)
  1306  0D76  00F3               	movwf	Lcd_Write_String@a
  1307  0D77  3080               	movlw	128
  1308  0D78  00F4               	movwf	Lcd_Write_String@a+1
  1309  0D79  160A  118A  246A  120A  158A  	fcall	_Lcd_Write_String
  1310  0D7E                     l2981:
  1311                           
  1312                           ;main.c: 83:         Lcd_Write_String(string_cont8bits);
  1313  0D7E  1283               	bcf	3,5	;RP0=0, select bank0
  1314  0D7F  1303               	bcf	3,6	;RP1=0, select bank0
  1315  0D80  1507               	bsf	7,2	;volatile
  1316  0D81                     l2983:
  1317                           
  1318                           ;main.c: 84:         UARTSendString("S2", 6);
  1319  0D81  1007               	bcf	7,0	;volatile
  1320  0D82                     l2985:
  1321                           
  1322                           ;main.c: 85:         UARTSendChar(':');
  1323  0D82  30C7               	movlw	199
  1324  0D83  1683               	bsf	3,5	;RP0=1, select bank1
  1325  0D84  1303               	bcf	3,6	;RP1=0, select bank1
  1326  0D85  00AF               	movwf	??_main^(0+128)
  1327  0D86                     u4027:
  1328  0D86  2D87               	nop2
  1329  0D87  0BAF               	decfsz	??_main^(0+128),f
  1330  0D88  2D86               	goto	u4027
  1331  0D89  2D8A               	nop2
  1332  0D8A                     l2987:
  1333                           
  1334                           ;main.c: 86:         UARTSendChar(' ');
  1335  0D8A  3001               	movlw	1
  1336  0D8B  160A  118A  2386  120A  158A  	fcall	_spiWrite
  1337  0D90                     l2989:
  1338                           
  1339                           ;main.c: 87:         UARTSendString(string_cont8bits, 4);
  1340  0D90  160A  118A  2394  120A  158A  	fcall	_spiRead
  1341  0D95  1683               	bsf	3,5	;RP0=1, select bank1
  1342  0D96  1303               	bcf	3,6	;RP1=0, select bank1
  1343  0D97  00AF               	movwf	??_main^(0+128)
  1344  0D98  082F               	movf	??_main^(0+128),w
  1345  0D99  00BF               	movwf	_voltageADC^(0+128)
  1346  0D9A                     l2991:
  1347                           
  1348                           ;main.c: 88:         UARTSendChar(',');
  1349  0D9A  30C7               	movlw	199
  1350  0D9B  1683               	bsf	3,5	;RP0=1, select bank1
  1351  0D9C  1303               	bcf	3,6	;RP1=0, select bank1
  1352  0D9D  00AF               	movwf	??_main^(0+128)
  1353  0D9E                     u4037:
  1354  0D9E  2D9F               	nop2
  1355  0D9F  0BAF               	decfsz	??_main^(0+128),f
  1356  0DA0  2D9E               	goto	u4037
  1357  0DA1  2DA2               	nop2
  1358  0DA2                     l2993:
  1359                           
  1360                           ;main.c: 89:         UARTSendChar(' ');
  1361  0DA2  1283               	bcf	3,5	;RP0=0, select bank0
  1362  0DA3  1303               	bcf	3,6	;RP1=0, select bank0
  1363  0DA4  1407               	bsf	7,0	;volatile
  1364  0DA5                     l2995:
  1365                           
  1366                           ;main.c: 90: 
  1367  0DA5  1087               	bcf	7,1	;volatile
  1368  0DA6                     l2997:
  1369                           
  1370                           ;main.c: 91:         convert(string_temperature, temperature, 1);
  1371  0DA6  30C7               	movlw	199
  1372  0DA7  1683               	bsf	3,5	;RP0=1, select bank1
  1373  0DA8  1303               	bcf	3,6	;RP1=0, select bank1
  1374  0DA9  00AF               	movwf	??_main^(0+128)
  1375  0DAA                     u4047:
  1376  0DAA  2DAB               	nop2
  1377  0DAB  0BAF               	decfsz	??_main^(0+128),f
  1378  0DAC  2DAA               	goto	u4047
  1379  0DAD  2DAE               	nop2
  1380  0DAE                     l2999:
  1381                           
  1382                           ;main.c: 92:         Lcd_Set_Cursor(2, 12);
  1383  0DAE  3002               	movlw	2
  1384  0DAF  160A  118A  2386  120A  158A  	fcall	_spiWrite
  1385  0DB4                     l3001:
  1386                           
  1387                           ;main.c: 93:         Lcd_Write_String(string_temperature);
  1388  0DB4  160A  118A  2394  120A  158A  	fcall	_spiRead
  1389  0DB9  1683               	bsf	3,5	;RP0=1, select bank1
  1390  0DBA  1303               	bcf	3,6	;RP1=0, select bank1
  1391  0DBB  00AF               	movwf	??_main^(0+128)
  1392  0DBC  082F               	movf	??_main^(0+128),w
  1393  0DBD  00BE               	movwf	_cont8bits^(0+128)
  1394  0DBE                     l3003:
  1395                           
  1396                           ;main.c: 94:         Lcd_Set_Cursor(2, 16);
  1397  0DBE  30C7               	movlw	199
  1398  0DBF  1683               	bsf	3,5	;RP0=1, select bank1
  1399  0DC0  1303               	bcf	3,6	;RP1=0, select bank1
  1400  0DC1  00AF               	movwf	??_main^(0+128)
  1401  0DC2                     u4057:
  1402  0DC2  2DC3               	nop2
  1403  0DC3  0BAF               	decfsz	??_main^(0+128),f
  1404  0DC4  2DC2               	goto	u4057
  1405  0DC5  2DC6               	nop2
  1406  0DC6                     l3005:
  1407                           
  1408                           ;main.c: 95:         Lcd_Write_String("C");
  1409  0DC6  1283               	bcf	3,5	;RP0=0, select bank0
  1410  0DC7  1303               	bcf	3,6	;RP1=0, select bank0
  1411  0DC8  1487               	bsf	7,1	;volatile
  1412  0DC9                     l3007:
  1413                           
  1414                           ;main.c: 96:         _delay((unsigned long)((20)*(4000000/4000.0)));
  1415  0DC9  1107               	bcf	7,2	;volatile
  1416  0DCA                     l3009:
  1417                           
  1418                           ;main.c: 97:         UARTSendString("S3", 6);
  1419  0DCA  30C7               	movlw	199
  1420  0DCB  1683               	bsf	3,5	;RP0=1, select bank1
  1421  0DCC  1303               	bcf	3,6	;RP1=0, select bank1
  1422  0DCD  00AF               	movwf	??_main^(0+128)
  1423  0DCE                     u4067:
  1424  0DCE  2DCF               	nop2
  1425  0DCF  0BAF               	decfsz	??_main^(0+128),f
  1426  0DD0  2DCE               	goto	u4067
  1427  0DD1  2DD2               	nop2
  1428  0DD2                     l3011:
  1429                           
  1430                           ;main.c: 98:         UARTSendChar(':');
  1431  0DD2  3003               	movlw	3
  1432  0DD3  160A  118A  2386  120A  158A  	fcall	_spiWrite
  1433  0DD8                     l3013:
  1434                           
  1435                           ;main.c: 99:         UARTSendChar(' ');
  1436  0DD8  160A  118A  2394  120A  158A  	fcall	_spiRead
  1437  0DDD  1683               	bsf	3,5	;RP0=1, select bank1
  1438  0DDE  1303               	bcf	3,6	;RP1=0, select bank1
  1439  0DDF  00AF               	movwf	??_main^(0+128)
  1440  0DE0  082F               	movf	??_main^(0+128),w
  1441  0DE1  00BD               	movwf	_temperature^(0+128)
  1442  0DE2                     l3015:
  1443                           
  1444                           ;main.c: 101:         UARTSendChar('C');
  1445  0DE2  3040               	movlw	64
  1446  0DE3  1283               	bcf	3,5	;RP0=0, select bank0
  1447  0DE4  1303               	bcf	3,6	;RP1=0, select bank0
  1448  0DE5  00CF               	movwf	___flmul@b+3
  1449  0DE6  30A0               	movlw	160
  1450  0DE7  00CE               	movwf	___flmul@b+2
  1451  0DE8  3000               	movlw	0
  1452  0DE9  00CD               	movwf	___flmul@b+1
  1453  0DEA  3000               	movlw	0
  1454  0DEB  00CC               	movwf	___flmul@b
  1455  0DEC  3043               	movlw	67
  1456  0DED  00B5               	movwf	___fldiv@a+3
  1457  0DEE  307F               	movlw	127
  1458  0DEF  00B4               	movwf	___fldiv@a+2
  1459  0DF0  3000               	movlw	0
  1460  0DF1  00B3               	movwf	___fldiv@a+1
  1461  0DF2  3000               	movlw	0
  1462  0DF3  00B2               	movwf	___fldiv@a
  1463  0DF4  1683               	bsf	3,5	;RP0=1, select bank1
  1464  0DF5  1303               	bcf	3,6	;RP1=0, select bank1
  1465  0DF6  083F               	movf	_voltageADC^(0+128),w
  1466  0DF7  00AF               	movwf	??_main^(0+128)
  1467  0DF8  01B0               	clrf	(??_main^(0+128)+1)
  1468  0DF9  01B1               	clrf	(??_main^(0+128)+2)
  1469  0DFA  01B2               	clrf	(??_main^(0+128)+3)
  1470  0DFB  0832               	movf	(??_main+3)^(0+128),w
  1471  0DFC  1283               	bcf	3,5	;RP0=0, select bank0
  1472  0DFD  1303               	bcf	3,6	;RP1=0, select bank0
  1473  0DFE  00A7               	movwf	___xxtofl@val+3
  1474  0DFF  1683               	bsf	3,5	;RP0=1, select bank1
  1475  0E00  1303               	bcf	3,6	;RP1=0, select bank1
  1476  0E01  0831               	movf	(??_main+2)^(0+128),w
  1477  0E02  1283               	bcf	3,5	;RP0=0, select bank0
  1478  0E03  1303               	bcf	3,6	;RP1=0, select bank0
  1479  0E04  00A6               	movwf	___xxtofl@val+2
  1480  0E05  1683               	bsf	3,5	;RP0=1, select bank1
  1481  0E06  1303               	bcf	3,6	;RP1=0, select bank1
  1482  0E07  0830               	movf	(??_main+1)^(0+128),w
  1483  0E08  1283               	bcf	3,5	;RP0=0, select bank0
  1484  0E09  1303               	bcf	3,6	;RP1=0, select bank0
  1485  0E0A  00A5               	movwf	___xxtofl@val+1
  1486  0E0B  1683               	bsf	3,5	;RP0=1, select bank1
  1487  0E0C  1303               	bcf	3,6	;RP1=0, select bank1
  1488  0E0D  082F               	movf	??_main^(0+128),w
  1489  0E0E  1283               	bcf	3,5	;RP0=0, select bank0
  1490  0E0F  1303               	bcf	3,6	;RP1=0, select bank0
  1491  0E10  00A4               	movwf	___xxtofl@val
  1492  0E11  3001               	movlw	1
  1493  0E12  160A  118A  2744  120A  158A  	fcall	___xxtofl
  1494  0E17  1283               	bcf	3,5	;RP0=0, select bank0
  1495  0E18  1303               	bcf	3,6	;RP1=0, select bank0
  1496  0E19  0827               	movf	?___xxtofl+3,w
  1497  0E1A  00B9               	movwf	___fldiv@b+3
  1498  0E1B  0826               	movf	?___xxtofl+2,w
  1499  0E1C  00B8               	movwf	___fldiv@b+2
  1500  0E1D  0825               	movf	?___xxtofl+1,w
  1501  0E1E  00B7               	movwf	___fldiv@b+1
  1502  0E1F  0824               	movf	?___xxtofl,w
  1503  0E20  00B6               	movwf	___fldiv@b
  1504  0E21  120A  158A  2091  120A  158A  	fcall	___fldiv
  1505  0E26  1283               	bcf	3,5	;RP0=0, select bank0
  1506  0E27  1303               	bcf	3,6	;RP1=0, select bank0
  1507  0E28  0835               	movf	?___fldiv+3,w
  1508  0E29  00D3               	movwf	___flmul@a+3
  1509  0E2A  0834               	movf	?___fldiv+2,w
  1510  0E2B  00D2               	movwf	___flmul@a+2
  1511  0E2C  0833               	movf	?___fldiv+1,w
  1512  0E2D  00D1               	movwf	___flmul@a+1
  1513  0E2E  0832               	movf	?___fldiv,w
  1514  0E2F  00D0               	movwf	___flmul@a
  1515  0E30  120A  118A  209E  120A  158A  	fcall	___flmul
  1516  0E35  1283               	bcf	3,5	;RP0=0, select bank0
  1517  0E36  1303               	bcf	3,6	;RP1=0, select bank0
  1518  0E37  084F               	movf	?___flmul+3,w
  1519  0E38  1683               	bsf	3,5	;RP0=1, select bank1
  1520  0E39  1303               	bcf	3,6	;RP1=0, select bank1
  1521  0E3A  00BA               	movwf	(_conv_ADC+3)^(0+128)
  1522  0E3B  1283               	bcf	3,5	;RP0=0, select bank0
  1523  0E3C  1303               	bcf	3,6	;RP1=0, select bank0
  1524  0E3D  084E               	movf	?___flmul+2,w
  1525  0E3E  1683               	bsf	3,5	;RP0=1, select bank1
  1526  0E3F  1303               	bcf	3,6	;RP1=0, select bank1
  1527  0E40  00B9               	movwf	(_conv_ADC+2)^(0+128)
  1528  0E41  1283               	bcf	3,5	;RP0=0, select bank0
  1529  0E42  1303               	bcf	3,6	;RP1=0, select bank0
  1530  0E43  084D               	movf	?___flmul+1,w
  1531  0E44  1683               	bsf	3,5	;RP0=1, select bank1
  1532  0E45  1303               	bcf	3,6	;RP1=0, select bank1
  1533  0E46  00B8               	movwf	(_conv_ADC+1)^(0+128)
  1534  0E47  1283               	bcf	3,5	;RP0=0, select bank0
  1535  0E48  1303               	bcf	3,6	;RP1=0, select bank0
  1536  0E49  084C               	movf	?___flmul,w
  1537  0E4A  1683               	bsf	3,5	;RP0=1, select bank1
  1538  0E4B  1303               	bcf	3,6	;RP1=0, select bank1
  1539  0E4C  00B7               	movwf	_conv_ADC^(0+128)
  1540  0E4D                     l3017:
  1541                           
  1542                           ;main.c: 103:         UARTSendChar(' ');
  1543  0E4D  083A               	movf	(_conv_ADC+3)^(0+128),w
  1544  0E4E  1283               	bcf	3,5	;RP0=0, select bank0
  1545  0E4F  1303               	bcf	3,6	;RP1=0, select bank0
  1546  0E50  00E9               	movwf	convert@a+3
  1547  0E51  1683               	bsf	3,5	;RP0=1, select bank1
  1548  0E52  1303               	bcf	3,6	;RP1=0, select bank1
  1549  0E53  0839               	movf	(_conv_ADC+2)^(0+128),w
  1550  0E54  1283               	bcf	3,5	;RP0=0, select bank0
  1551  0E55  1303               	bcf	3,6	;RP1=0, select bank0
  1552  0E56  00E8               	movwf	convert@a+2
  1553  0E57  1683               	bsf	3,5	;RP0=1, select bank1
  1554  0E58  1303               	bcf	3,6	;RP1=0, select bank1
  1555  0E59  0838               	movf	(_conv_ADC+1)^(0+128),w
  1556  0E5A  1283               	bcf	3,5	;RP0=0, select bank0
  1557  0E5B  1303               	bcf	3,6	;RP1=0, select bank0
  1558  0E5C  00E7               	movwf	convert@a+1
  1559  0E5D  1683               	bsf	3,5	;RP0=1, select bank1
  1560  0E5E  1303               	bcf	3,6	;RP1=0, select bank1
  1561  0E5F  0837               	movf	_conv_ADC^(0+128),w
  1562  0E60  1283               	bcf	3,5	;RP0=0, select bank0
  1563  0E61  1303               	bcf	3,6	;RP1=0, select bank0
  1564  0E62  00E6               	movwf	convert@a
  1565  0E63  3002               	movlw	2
  1566  0E64  00EA               	movwf	convert@place
  1567  0E65  3000               	movlw	0
  1568  0E66  00EB               	movwf	convert@place+1
  1569  0E67  30C5               	movlw	(low (_string_voltageADC| 0))& (0+255)
  1570  0E68  120A  118A  23FF  120A  158A  	fcall	_convert
  1571  0E6D                     l3019:
  1572                           
  1573                           ;main.c: 104:     }
  1574  0E6D  01F4               	clrf	Lcd_Set_Cursor@b
  1575  0E6E  0AF4               	incf	Lcd_Set_Cursor@b,f
  1576  0E6F  3002               	movlw	2
  1577  0E70  160A  118A  23D4  120A  158A  	fcall	_Lcd_Set_Cursor
  1578  0E75                     l3021:
  1579                           
  1580                           ;main.c: 105: }
  1581  0E75  30C5               	movlw	(low (_string_voltageADC| 0))& (0+255)
  1582  0E76  00F3               	movwf	Lcd_Write_String@a
  1583  0E77  3000               	movlw	0
  1584  0E78  00F4               	movwf	Lcd_Write_String@a+1
  1585  0E79  160A  118A  246A  120A  158A  	fcall	_Lcd_Write_String
  1586  0E7E                     l3023:
  1587                           
  1588                           ;main.c: 106: char int2String(uint8_t value) {
  1589  0E7E  3005               	movlw	5
  1590  0E7F  1683               	bsf	3,5	;RP0=1, select bank1
  1591  0E80  1303               	bcf	3,6	;RP1=0, select bank1
  1592  0E81  00AF               	movwf	??_main^(0+128)
  1593  0E82  082F               	movf	??_main^(0+128),w
  1594  0E83  00F4               	movwf	Lcd_Set_Cursor@b
  1595  0E84  3002               	movlw	2
  1596  0E85  160A  118A  23D4  120A  158A  	fcall	_Lcd_Set_Cursor
  1597  0E8A                     l3025:
  1598                           
  1599                           ;main.c: 107:     char cifras[4];
  1600  0E8A  3018               	movlw	(low ((STR_4-__stringbase)| (0+32768)))& (0+255)
  1601  0E8B  00F3               	movwf	Lcd_Write_String@a
  1602  0E8C  3080               	movlw	128
  1603  0E8D  00F4               	movwf	Lcd_Write_String@a+1
  1604  0E8E  160A  118A  246A  120A  158A  	fcall	_Lcd_Write_String
  1605  0E93                     l3027:
  1606                           
  1607                           ;main.c: 108:     uint8_t x;
  1608  0E93  307C               	movlw	124
  1609  0E94  120A  158A  2000  120A  158A  	fcall	_UARTSendChar
  1610  0E99                     l3029:
  1611                           
  1612                           ;main.c: 109:     x = value / 100;
  1613  0E99  300D               	movlw	(low ((STR_5-__stringbase)| (0+32768)))& (0+255)
  1614  0E9A  00F1               	movwf	UARTSendString@str
  1615  0E9B  3080               	movlw	128
  1616  0E9C  00F2               	movwf	UARTSendString@str+1
  1617  0E9D  3006               	movlw	6
  1618  0E9E  1683               	bsf	3,5	;RP0=1, select bank1
  1619  0E9F  1303               	bcf	3,6	;RP1=0, select bank1
  1620  0EA0  00AF               	movwf	??_main^(0+128)
  1621  0EA1  082F               	movf	??_main^(0+128),w
  1622  0EA2  00F3               	movwf	UARTSendString@max_length
  1623  0EA3  160A  118A  249A  120A  158A  	fcall	_UARTSendString
  1624  0EA8                     l3031:
  1625                           
  1626                           ;main.c: 110:     cifras[0] = x + 48;
  1627  0EA8  303A               	movlw	58
  1628  0EA9  120A  158A  2000  120A  158A  	fcall	_UARTSendChar
  1629  0EAE                     l3033:
  1630                           
  1631                           ;main.c: 111:     value -= x * 100;
  1632  0EAE  3020               	movlw	32
  1633  0EAF  120A  158A  2000  120A  158A  	fcall	_UARTSendChar
  1634  0EB4                     l3035:
  1635                           
  1636                           ;main.c: 112: 
  1637  0EB4  30C5               	movlw	(low (_string_voltageADC| 0))& (0+255)
  1638  0EB5  00F1               	movwf	UARTSendString@str
  1639  0EB6  3000               	movlw	0
  1640  0EB7  00F2               	movwf	UARTSendString@str+1
  1641  0EB8  3005               	movlw	5
  1642  0EB9  1683               	bsf	3,5	;RP0=1, select bank1
  1643  0EBA  1303               	bcf	3,6	;RP1=0, select bank1
  1644  0EBB  00AF               	movwf	??_main^(0+128)
  1645  0EBC  082F               	movf	??_main^(0+128),w
  1646  0EBD  00F3               	movwf	UARTSendString@max_length
  1647  0EBE  160A  118A  249A  120A  158A  	fcall	_UARTSendString
  1648  0EC3                     l3037:
  1649                           
  1650                           ;main.c: 113:     cifras[1] = (value / 10) + 48;
  1651  0EC3  3056               	movlw	86
  1652  0EC4  120A  158A  2000  120A  158A  	fcall	_UARTSendChar
  1653  0EC9                     l3039:
  1654                           
  1655                           ;main.c: 114:     cifras[2] = (value % 10) + 48;
  1656  0EC9  302C               	movlw	44
  1657  0ECA  120A  158A  2000  120A  158A  	fcall	_UARTSendChar
  1658  0ECF                     l3041:
  1659                           
  1660                           ;main.c: 115:     cifras[3] = '\0';
  1661  0ECF  3020               	movlw	32
  1662  0ED0  120A  158A  2000  120A  158A  	fcall	_UARTSendChar
  1663  0ED5                     l3043:
  1664                           
  1665                           ;main.c: 117: }
  1666  0ED5  1683               	bsf	3,5	;RP0=1, select bank1
  1667  0ED6  1303               	bcf	3,6	;RP1=0, select bank1
  1668  0ED7  083E               	movf	_cont8bits^(0+128),w
  1669  0ED8  160A  118A  2577  120A  158A  	fcall	_int2String
  1670  0EDD  1683               	bsf	3,5	;RP0=1, select bank1
  1671  0EDE  1303               	bcf	3,6	;RP1=0, select bank1
  1672  0EDF  00AF               	movwf	??_main^(0+128)
  1673  0EE0  01B0               	clrf	(??_main^(0+128)+1)
  1674  0EE1  082F               	movf	??_main^(0+128),w
  1675  0EE2  00BB               	movwf	_string_cont8bits^(0+128)
  1676  0EE3  0830               	movf	(??_main^(0+128)+1),w
  1677  0EE4  00BC               	movwf	(_string_cont8bits+1)^(0+128)
  1678  0EE5                     l3045:
  1679  0EE5  3007               	movlw	7
  1680  0EE6  00AF               	movwf	??_main^(0+128)
  1681  0EE7  082F               	movf	??_main^(0+128),w
  1682  0EE8  00F4               	movwf	Lcd_Set_Cursor@b
  1683  0EE9  3002               	movlw	2
  1684  0EEA  160A  118A  23D4  120A  158A  	fcall	_Lcd_Set_Cursor
  1685  0EEF                     l3047:
  1686  0EEF  1683               	bsf	3,5	;RP0=1, select bank1
  1687  0EF0  1303               	bcf	3,6	;RP1=0, select bank1
  1688  0EF1  083B               	movf	_string_cont8bits^(0+128),w
  1689  0EF2  00F3               	movwf	Lcd_Write_String@a
  1690  0EF3  083C               	movf	(_string_cont8bits+1)^(0+128),w
  1691  0EF4  00F4               	movwf	Lcd_Write_String@a+1
  1692  0EF5  160A  118A  246A  120A  158A  	fcall	_Lcd_Write_String
  1693  0EFA                     l3049:
  1694  0EFA  3010               	movlw	(low ((STR_6-__stringbase)| (0+32768)))& (0+255)
  1695  0EFB  00F1               	movwf	UARTSendString@str
  1696  0EFC  3080               	movlw	128
  1697  0EFD  00F2               	movwf	UARTSendString@str+1
  1698  0EFE  3006               	movlw	6
  1699  0EFF  1683               	bsf	3,5	;RP0=1, select bank1
  1700  0F00  1303               	bcf	3,6	;RP1=0, select bank1
  1701  0F01  00AF               	movwf	??_main^(0+128)
  1702  0F02  082F               	movf	??_main^(0+128),w
  1703  0F03  00F3               	movwf	UARTSendString@max_length
  1704  0F04  160A  118A  249A  120A  158A  	fcall	_UARTSendString
  1705  0F09                     l3051:
  1706  0F09  303A               	movlw	58
  1707  0F0A  120A  158A  2000  120A  158A  	fcall	_UARTSendChar
  1708  0F0F                     l3053:
  1709  0F0F  3020               	movlw	32
  1710  0F10  120A  158A  2000  120A  158A  	fcall	_UARTSendChar
  1711  0F15                     l3055:
  1712  0F15  1683               	bsf	3,5	;RP0=1, select bank1
  1713  0F16  1303               	bcf	3,6	;RP1=0, select bank1
  1714  0F17  083B               	movf	_string_cont8bits^(0+128),w
  1715  0F18  00F1               	movwf	UARTSendString@str
  1716  0F19  083C               	movf	(_string_cont8bits+1)^(0+128),w
  1717  0F1A  00F2               	movwf	UARTSendString@str+1
  1718  0F1B  3004               	movlw	4
  1719  0F1C  00AF               	movwf	??_main^(0+128)
  1720  0F1D  082F               	movf	??_main^(0+128),w
  1721  0F1E  00F3               	movwf	UARTSendString@max_length
  1722  0F1F  160A  118A  249A  120A  158A  	fcall	_UARTSendString
  1723  0F24                     l3057:
  1724  0F24  302C               	movlw	44
  1725  0F25  120A  158A  2000  120A  158A  	fcall	_UARTSendChar
  1726  0F2A                     l3059:
  1727  0F2A  3020               	movlw	32
  1728  0F2B  120A  158A  2000  120A  158A  	fcall	_UARTSendChar
  1729  0F30                     l3061:
  1730  0F30  1683               	bsf	3,5	;RP0=1, select bank1
  1731  0F31  1303               	bcf	3,6	;RP1=0, select bank1
  1732  0F32  083D               	movf	_temperature^(0+128),w
  1733  0F33  00AF               	movwf	??_main^(0+128)
  1734  0F34  01B0               	clrf	(??_main^(0+128)+1)
  1735  0F35  01B1               	clrf	(??_main^(0+128)+2)
  1736  0F36  01B2               	clrf	(??_main^(0+128)+3)
  1737  0F37  0832               	movf	(??_main+3)^(0+128),w
  1738  0F38  1283               	bcf	3,5	;RP0=0, select bank0
  1739  0F39  1303               	bcf	3,6	;RP1=0, select bank0
  1740  0F3A  00A7               	movwf	___xxtofl@val+3
  1741  0F3B  1683               	bsf	3,5	;RP0=1, select bank1
  1742  0F3C  1303               	bcf	3,6	;RP1=0, select bank1
  1743  0F3D  0831               	movf	(??_main+2)^(0+128),w
  1744  0F3E  1283               	bcf	3,5	;RP0=0, select bank0
  1745  0F3F  1303               	bcf	3,6	;RP1=0, select bank0
  1746  0F40  00A6               	movwf	___xxtofl@val+2
  1747  0F41  1683               	bsf	3,5	;RP0=1, select bank1
  1748  0F42  1303               	bcf	3,6	;RP1=0, select bank1
  1749  0F43  0830               	movf	(??_main+1)^(0+128),w
  1750  0F44  1283               	bcf	3,5	;RP0=0, select bank0
  1751  0F45  1303               	bcf	3,6	;RP1=0, select bank0
  1752  0F46  00A5               	movwf	___xxtofl@val+1
  1753  0F47  1683               	bsf	3,5	;RP0=1, select bank1
  1754  0F48  1303               	bcf	3,6	;RP1=0, select bank1
  1755  0F49  082F               	movf	??_main^(0+128),w
  1756  0F4A  1283               	bcf	3,5	;RP0=0, select bank0
  1757  0F4B  1303               	bcf	3,6	;RP1=0, select bank0
  1758  0F4C  00A4               	movwf	___xxtofl@val
  1759  0F4D  3000               	movlw	0
  1760  0F4E  160A  118A  2744  120A  158A  	fcall	___xxtofl
  1761  0F53  1283               	bcf	3,5	;RP0=0, select bank0
  1762  0F54  1303               	bcf	3,6	;RP1=0, select bank0
  1763  0F55  0827               	movf	?___xxtofl+3,w
  1764  0F56  1683               	bsf	3,5	;RP0=1, select bank1
  1765  0F57  1303               	bcf	3,6	;RP1=0, select bank1
  1766  0F58  00B6               	movwf	(_main$1159+3)^(0+128)
  1767  0F59  1283               	bcf	3,5	;RP0=0, select bank0
  1768  0F5A  1303               	bcf	3,6	;RP1=0, select bank0
  1769  0F5B  0826               	movf	?___xxtofl+2,w
  1770  0F5C  1683               	bsf	3,5	;RP0=1, select bank1
  1771  0F5D  1303               	bcf	3,6	;RP1=0, select bank1
  1772  0F5E  00B5               	movwf	(_main$1159+2)^(0+128)
  1773  0F5F  1283               	bcf	3,5	;RP0=0, select bank0
  1774  0F60  1303               	bcf	3,6	;RP1=0, select bank0
  1775  0F61  0825               	movf	?___xxtofl+1,w
  1776  0F62  1683               	bsf	3,5	;RP0=1, select bank1
  1777  0F63  1303               	bcf	3,6	;RP1=0, select bank1
  1778  0F64  00B4               	movwf	(_main$1159+1)^(0+128)
  1779  0F65  1283               	bcf	3,5	;RP0=0, select bank0
  1780  0F66  1303               	bcf	3,6	;RP1=0, select bank0
  1781  0F67  0824               	movf	?___xxtofl,w
  1782  0F68  1683               	bsf	3,5	;RP0=1, select bank1
  1783  0F69  1303               	bcf	3,6	;RP1=0, select bank1
  1784  0F6A  00B3               	movwf	_main$1159^(0+128)
  1785  0F6B                     l3063:
  1786  0F6B  0836               	movf	(_main$1159+3)^(0+128),w
  1787  0F6C  1283               	bcf	3,5	;RP0=0, select bank0
  1788  0F6D  1303               	bcf	3,6	;RP1=0, select bank0
  1789  0F6E  00E9               	movwf	convert@a+3
  1790  0F6F  1683               	bsf	3,5	;RP0=1, select bank1
  1791  0F70  1303               	bcf	3,6	;RP1=0, select bank1
  1792  0F71  0835               	movf	(_main$1159+2)^(0+128),w
  1793  0F72  1283               	bcf	3,5	;RP0=0, select bank0
  1794  0F73  1303               	bcf	3,6	;RP1=0, select bank0
  1795  0F74  00E8               	movwf	convert@a+2
  1796  0F75  1683               	bsf	3,5	;RP0=1, select bank1
  1797  0F76  1303               	bcf	3,6	;RP1=0, select bank1
  1798  0F77  0834               	movf	(_main$1159+1)^(0+128),w
  1799  0F78  1283               	bcf	3,5	;RP0=0, select bank0
  1800  0F79  1303               	bcf	3,6	;RP1=0, select bank0
  1801  0F7A  00E7               	movwf	convert@a+1
  1802  0F7B  1683               	bsf	3,5	;RP0=1, select bank1
  1803  0F7C  1303               	bcf	3,6	;RP1=0, select bank1
  1804  0F7D  0833               	movf	_main$1159^(0+128),w
  1805  0F7E  1283               	bcf	3,5	;RP0=0, select bank0
  1806  0F7F  1303               	bcf	3,6	;RP1=0, select bank0
  1807  0F80  00E6               	movwf	convert@a
  1808  0F81  3001               	movlw	1
  1809  0F82  00EA               	movwf	convert@place
  1810  0F83  3000               	movlw	0
  1811  0F84  00EB               	movwf	convert@place+1
  1812  0F85  30C0               	movlw	(low (_string_temperature| 0))& (0+255)
  1813  0F86  120A  118A  23FF  120A  158A  	fcall	_convert
  1814  0F8B                     l3065:
  1815  0F8B  300C               	movlw	12
  1816  0F8C  1683               	bsf	3,5	;RP0=1, select bank1
  1817  0F8D  1303               	bcf	3,6	;RP1=0, select bank1
  1818  0F8E  00AF               	movwf	??_main^(0+128)
  1819  0F8F  082F               	movf	??_main^(0+128),w
  1820  0F90  00F4               	movwf	Lcd_Set_Cursor@b
  1821  0F91  3002               	movlw	2
  1822  0F92  160A  118A  23D4  120A  158A  	fcall	_Lcd_Set_Cursor
  1823  0F97                     l3067:
  1824  0F97  30C0               	movlw	(low (_string_temperature| 0))& (0+255)
  1825  0F98  00F3               	movwf	Lcd_Write_String@a
  1826  0F99  3000               	movlw	0
  1827  0F9A  00F4               	movwf	Lcd_Write_String@a+1
  1828  0F9B  160A  118A  246A  120A  158A  	fcall	_Lcd_Write_String
  1829  0FA0                     l3069:
  1830  0FA0  3010               	movlw	16
  1831  0FA1  1683               	bsf	3,5	;RP0=1, select bank1
  1832  0FA2  1303               	bcf	3,6	;RP1=0, select bank1
  1833  0FA3  00AF               	movwf	??_main^(0+128)
  1834  0FA4  082F               	movf	??_main^(0+128),w
  1835  0FA5  00F4               	movwf	Lcd_Set_Cursor@b
  1836  0FA6  3002               	movlw	2
  1837  0FA7  160A  118A  23D4  120A  158A  	fcall	_Lcd_Set_Cursor
  1838  0FAC                     l3071:
  1839  0FAC  3016               	movlw	(low ((STR_7-__stringbase)| (0+32768)))& (0+255)
  1840  0FAD  00F3               	movwf	Lcd_Write_String@a
  1841  0FAE  3080               	movlw	128
  1842  0FAF  00F4               	movwf	Lcd_Write_String@a+1
  1843  0FB0  160A  118A  246A  120A  158A  	fcall	_Lcd_Write_String
  1844  0FB5                     l3073:
  1845  0FB5  301A               	movlw	26
  1846  0FB6  1683               	bsf	3,5	;RP0=1, select bank1
  1847  0FB7  1303               	bcf	3,6	;RP1=0, select bank1
  1848  0FB8  00B0               	movwf	(??_main^(0+128)+1)
  1849  0FB9  30F7               	movlw	247
  1850  0FBA  00AF               	movwf	??_main^(0+128)
  1851  0FBB                     u4077:
  1852  0FBB  0BAF               	decfsz	??_main^(0+128),f
  1853  0FBC  2FBB               	goto	u4077
  1854  0FBD  0BB0               	decfsz	(??_main^(0+128)+1),f
  1855  0FBE  2FBB               	goto	u4077
  1856  0FBF  2FC0               	nop2
  1857  0FC0                     l3075:
  1858  0FC0  3013               	movlw	(low ((STR_8-__stringbase)| (0+32768)))& (0+255)
  1859  0FC1  00F1               	movwf	UARTSendString@str
  1860  0FC2  3080               	movlw	128
  1861  0FC3  00F2               	movwf	UARTSendString@str+1
  1862  0FC4  3006               	movlw	6
  1863  0FC5  1683               	bsf	3,5	;RP0=1, select bank1
  1864  0FC6  1303               	bcf	3,6	;RP1=0, select bank1
  1865  0FC7  00AF               	movwf	??_main^(0+128)
  1866  0FC8  082F               	movf	??_main^(0+128),w
  1867  0FC9  00F3               	movwf	UARTSendString@max_length
  1868  0FCA  160A  118A  249A  120A  158A  	fcall	_UARTSendString
  1869  0FCF                     l3077:
  1870  0FCF  303A               	movlw	58
  1871  0FD0  120A  158A  2000  120A  158A  	fcall	_UARTSendChar
  1872  0FD5                     l3079:
  1873  0FD5  3020               	movlw	32
  1874  0FD6  120A  158A  2000  120A  158A  	fcall	_UARTSendChar
  1875  0FDB                     l3081:
  1876  0FDB  30C0               	movlw	(low (_string_temperature| 0))& (0+255)
  1877  0FDC  00F1               	movwf	UARTSendString@str
  1878  0FDD  3000               	movlw	0
  1879  0FDE  00F2               	movwf	UARTSendString@str+1
  1880  0FDF  3004               	movlw	4
  1881  0FE0  1683               	bsf	3,5	;RP0=1, select bank1
  1882  0FE1  1303               	bcf	3,6	;RP1=0, select bank1
  1883  0FE2  00AF               	movwf	??_main^(0+128)
  1884  0FE3  082F               	movf	??_main^(0+128),w
  1885  0FE4  00F3               	movwf	UARTSendString@max_length
  1886  0FE5  160A  118A  249A  120A  158A  	fcall	_UARTSendString
  1887  0FEA                     l3083:
  1888  0FEA  3043               	movlw	67
  1889  0FEB  120A  158A  2000  120A  158A  	fcall	_UARTSendChar
  1890  0FF0                     l3085:
  1891  0FF0  307C               	movlw	124
  1892  0FF1  120A  158A  2000  120A  158A  	fcall	_UARTSendChar
  1893  0FF6                     l3087:
  1894  0FF6  3020               	movlw	32
  1895  0FF7  120A  158A  2000  120A  158A  	fcall	_UARTSendChar
  1896  0FFC  2D43               	goto	l2969
  1897  0FFD  120A  118A  2800   	ljmp	start
  1898  1000                     __end_of_main:
  1899                           
  1900                           	psect	text1
  1901  1386                     __ptext1:	
  1902 ;; *************** function _spiWrite *****************
  1903 ;; Defined at:
  1904 ;;		line 34 in file "SPI.c"
  1905 ;; Parameters:    Size  Location     Type
  1906 ;;  dat             1    wreg     unsigned char 
  1907 ;; Auto vars:     Size  Location     Type
  1908 ;;  dat             1    0[COMMON] unsigned char 
  1909 ;; Return value:  Size  Location     Type
  1910 ;;                  1    wreg      void 
  1911 ;; Registers used:
  1912 ;;		wreg
  1913 ;; Tracked objects:
  1914 ;;		On entry : 0/0
  1915 ;;		On exit  : 0/0
  1916 ;;		Unchanged: 0/0
  1917 ;; Data sizes:     COMMON   BANK0   BANK1   BANK3   BANK2
  1918 ;;      Params:         0       0       0       0       0
  1919 ;;      Locals:         1       0       0       0       0
  1920 ;;      Temps:          0       0       0       0       0
  1921 ;;      Totals:         1       0       0       0       0
  1922 ;;Total ram usage:        1 bytes
  1923 ;; Hardware stack levels used:    1
  1924 ;; This function calls:
  1925 ;;		Nothing
  1926 ;; This function is called by:
  1927 ;;		_main
  1928 ;; This function uses a non-reentrant model
  1929 ;;
  1930                           
  1931                           
  1932                           ;psect for function _spiWrite
  1933  1386                     _spiWrite:
  1934                           
  1935                           ;incstack = 0
  1936                           ; Regs used in _spiWrite: [wreg]
  1937                           ;spiWrite@dat stored from wreg
  1938  1386  00F0               	movwf	spiWrite@dat
  1939  1387                     l2807:
  1940                           
  1941                           ;SPI.c: 34: void spiWrite(char dat);SPI.c: 35: {;SPI.c: 36:     SSPBUF = dat;
  1942  1387  0870               	movf	spiWrite@dat,w
  1943  1388  1283               	bcf	3,5	;RP0=0, select bank0
  1944  1389  1303               	bcf	3,6	;RP1=0, select bank0
  1945  138A  0093               	movwf	19	;volatile
  1946  138B                     l95:
  1947  138B  0008               	return
  1948  138C                     __end_of_spiWrite:
  1949                           
  1950                           	psect	text2
  1951  1394                     __ptext2:	
  1952 ;; *************** function _spiRead *****************
  1953 ;; Defined at:
  1954 ;;		line 47 in file "SPI.c"
  1955 ;; Parameters:    Size  Location     Type
  1956 ;;		None
  1957 ;; Auto vars:     Size  Location     Type
  1958 ;;		None
  1959 ;; Return value:  Size  Location     Type
  1960 ;;                  1    wreg      unsigned char 
  1961 ;; Registers used:
  1962 ;;		wreg, status,2, status,0, pclath, cstack
  1963 ;; Tracked objects:
  1964 ;;		On entry : 0/0
  1965 ;;		On exit  : 0/0
  1966 ;;		Unchanged: 0/0
  1967 ;; Data sizes:     COMMON   BANK0   BANK1   BANK3   BANK2
  1968 ;;      Params:         0       0       0       0       0
  1969 ;;      Locals:         0       0       0       0       0
  1970 ;;      Temps:          0       0       0       0       0
  1971 ;;      Totals:         0       0       0       0       0
  1972 ;;Total ram usage:        0 bytes
  1973 ;; Hardware stack levels used:    1
  1974 ;; Hardware stack levels required when called:    1
  1975 ;; This function calls:
  1976 ;;		_spiReceiveWait
  1977 ;; This function is called by:
  1978 ;;		_main
  1979 ;; This function uses a non-reentrant model
  1980 ;;
  1981                           
  1982                           
  1983                           ;psect for function _spiRead
  1984  1394                     _spiRead:
  1985  1394                     l2809:	
  1986                           ;incstack = 0
  1987                           ; Regs used in _spiRead: [wreg+status,2+status,0+pclath+cstack]
  1988                           
  1989                           
  1990                           ;SPI.c: 49:     spiReceiveWait();
  1991  1394  120A  118A  2003  160A  118A  	fcall	_spiReceiveWait
  1992  1399                     l2811:
  1993                           
  1994                           ;SPI.c: 50:     return(SSPBUF);
  1995  1399  1283               	bcf	3,5	;RP0=0, select bank0
  1996  139A  1303               	bcf	3,6	;RP1=0, select bank0
  1997  139B  0813               	movf	19,w	;volatile
  1998  139C                     l103:
  1999  139C  0008               	return
  2000  139D                     __end_of_spiRead:
  2001                           
  2002                           	psect	text3
  2003  0003                     __ptext3:	
  2004 ;; *************** function _spiReceiveWait *****************
  2005 ;; Defined at:
  2006 ;;		line 29 in file "SPI.c"
  2007 ;; Parameters:    Size  Location     Type
  2008 ;;		None
  2009 ;; Auto vars:     Size  Location     Type
  2010 ;;		None
  2011 ;; Return value:  Size  Location     Type
  2012 ;;                  1    wreg      void 
  2013 ;; Registers used:
  2014 ;;		None
  2015 ;; Tracked objects:
  2016 ;;		On entry : 0/0
  2017 ;;		On exit  : 0/0
  2018 ;;		Unchanged: 0/0
  2019 ;; Data sizes:     COMMON   BANK0   BANK1   BANK3   BANK2
  2020 ;;      Params:         0       0       0       0       0
  2021 ;;      Locals:         0       0       0       0       0
  2022 ;;      Temps:          0       0       0       0       0
  2023 ;;      Totals:         0       0       0       0       0
  2024 ;;Total ram usage:        0 bytes
  2025 ;; Hardware stack levels used:    1
  2026 ;; This function calls:
  2027 ;;		Nothing
  2028 ;; This function is called by:
  2029 ;;		_spiRead
  2030 ;; This function uses a non-reentrant model
  2031 ;;
  2032                           
  2033                           
  2034                           ;psect for function _spiReceiveWait
  2035  0003                     _spiReceiveWait:
  2036  0003                     l2191:	
  2037                           ;incstack = 0
  2038                           ; Regs used in _spiReceiveWait: []
  2039                           
  2040  0003                     l89:	
  2041                           ;SPI.c: 31:     while ( !SSPSTATbits.BF );
  2042                           
  2043  0003  1683               	bsf	3,5	;RP0=1, select bank1
  2044  0004  1303               	bcf	3,6	;RP1=0, select bank1
  2045  0005  1C14               	btfss	20,0	;volatile
  2046  0006  2808               	goto	u2541
  2047  0007  2809               	goto	u2540
  2048  0008                     u2541:
  2049  0008  2803               	goto	l89
  2050  0009                     u2540:
  2051  0009                     l92:
  2052  0009  0008               	return
  2053  000A                     __end_of_spiReceiveWait:
  2054                           
  2055                           	psect	text4
  2056  080C                     __ptext4:	
  2057 ;; *************** function _spiInit *****************
  2058 ;; Defined at:
  2059 ;;		line 12 in file "SPI.c"
  2060 ;; Parameters:    Size  Location     Type
  2061 ;;  sType           1    wreg     enum E1292
  2062 ;;  sDataSample     1    0[COMMON] enum E1300
  2063 ;;  sClockIdle      1    1[COMMON] enum E1304
  2064 ;;  sTransmitEdg    1    2[COMMON] enum E1308
  2065 ;; Auto vars:     Size  Location     Type
  2066 ;;  sType           1    3[COMMON] enum E1292
  2067 ;; Return value:  Size  Location     Type
  2068 ;;                  1    wreg      void 
  2069 ;; Registers used:
  2070 ;;		wreg, status,2, status,0
  2071 ;; Tracked objects:
  2072 ;;		On entry : 0/0
  2073 ;;		On exit  : 0/0
  2074 ;;		Unchanged: 0/0
  2075 ;; Data sizes:     COMMON   BANK0   BANK1   BANK3   BANK2
  2076 ;;      Params:         3       0       0       0       0
  2077 ;;      Locals:         1       0       0       0       0
  2078 ;;      Temps:          0       0       0       0       0
  2079 ;;      Totals:         4       0       0       0       0
  2080 ;;Total ram usage:        4 bytes
  2081 ;; Hardware stack levels used:    1
  2082 ;; This function calls:
  2083 ;;		Nothing
  2084 ;; This function is called by:
  2085 ;;		_main
  2086 ;; This function uses a non-reentrant model
  2087 ;;
  2088                           
  2089                           
  2090                           ;psect for function _spiInit
  2091  080C                     _spiInit:
  2092                           
  2093                           ;incstack = 0
  2094                           ; Regs used in _spiInit: [wreg+status,2+status,0]
  2095                           ;spiInit@sType stored from wreg
  2096  080C  00F3               	movwf	spiInit@sType
  2097  080D                     l2765:
  2098                           
  2099                           ;SPI.c: 12: void spiInit(Spi_Type sType, Spi_Data_Sample sDataSample, Spi_Clock_Idle sCl
      +                          ockIdle, Spi_Transmit_Edge sTransmitEdge);SPI.c: 13: {;SPI.c: 14:     TRISC5 = 0;
  2100  080D  1683               	bsf	3,5	;RP0=1, select bank1
  2101  080E  1303               	bcf	3,6	;RP1=0, select bank1
  2102  080F  1287               	bcf	7,5	;volatile
  2103                           
  2104                           ;SPI.c: 15:     if(sType & 0b00000100)
  2105  0810  1D73               	btfss	spiInit@sType,2
  2106  0811  2813               	goto	u3871
  2107  0812  2814               	goto	u3870
  2108  0813                     u3871:
  2109  0813  2818               	goto	l2771
  2110  0814                     u3870:
  2111  0814                     l2767:
  2112                           
  2113                           ;SPI.c: 16:     {;SPI.c: 17:         SSPSTAT = sTransmitEdge;
  2114  0814  0872               	movf	spiInit@sTransmitEdge,w
  2115  0815  0094               	movwf	20	;volatile
  2116  0816                     l2769:
  2117                           
  2118                           ;SPI.c: 18:         TRISC3 = 1;
  2119  0816  1587               	bsf	7,3	;volatile
  2120                           
  2121                           ;SPI.c: 19:     }
  2122  0817  281C               	goto	l85
  2123  0818                     l2771:
  2124                           
  2125                           ;SPI.c: 21:     {;SPI.c: 22:         SSPSTAT = sDataSample | sTransmitEdge;
  2126  0818  0870               	movf	spiInit@sDataSample,w
  2127  0819  0472               	iorwf	spiInit@sTransmitEdge,w
  2128  081A  0094               	movwf	20	;volatile
  2129  081B                     l2773:
  2130                           
  2131                           ;SPI.c: 23:         TRISC3 = 0;
  2132  081B  1187               	bcf	7,3	;volatile
  2133  081C                     l85:	
  2134                           ;SPI.c: 24:     }
  2135                           
  2136                           
  2137                           ;SPI.c: 26:     SSPCON = sType | sClockIdle;
  2138  081C  0873               	movf	spiInit@sType,w
  2139  081D  0471               	iorwf	spiInit@sClockIdle,w
  2140  081E  1283               	bcf	3,5	;RP0=0, select bank0
  2141  081F  1303               	bcf	3,6	;RP1=0, select bank0
  2142  0820  0094               	movwf	20	;volatile
  2143  0821                     l86:
  2144  0821  0008               	return
  2145  0822                     __end_of_spiInit:
  2146                           
  2147                           	psect	text5
  2148  1577                     __ptext5:	
  2149 ;; *************** function _int2String *****************
  2150 ;; Defined at:
  2151 ;;		line 142 in file "main.c"
  2152 ;; Parameters:    Size  Location     Type
  2153 ;;  value           1    wreg     unsigned char 
  2154 ;; Auto vars:     Size  Location     Type
  2155 ;;  value           1    5[BANK0 ] unsigned char 
  2156 ;;  cifras          4    0[BANK0 ] unsigned char [4]
  2157 ;;  x               1    4[BANK0 ] unsigned char 
  2158 ;; Return value:  Size  Location     Type
  2159 ;;                  1    wreg      unsigned char 
  2160 ;; Registers used:
  2161 ;;		wreg, status,2, status,0, pclath, cstack
  2162 ;; Tracked objects:
  2163 ;;		On entry : 0/0
  2164 ;;		On exit  : 0/0
  2165 ;;		Unchanged: 0/0
  2166 ;; Data sizes:     COMMON   BANK0   BANK1   BANK3   BANK2
  2167 ;;      Params:         0       0       0       0       0
  2168 ;;      Locals:         0       6       0       0       0
  2169 ;;      Temps:          3       0       0       0       0
  2170 ;;      Totals:         3       6       0       0       0
  2171 ;;Total ram usage:        9 bytes
  2172 ;; Hardware stack levels used:    1
  2173 ;; Hardware stack levels required when called:    1
  2174 ;; This function calls:
  2175 ;;		___awdiv
  2176 ;;		___awmod
  2177 ;;		___bmul
  2178 ;; This function is called by:
  2179 ;;		_main
  2180 ;; This function uses a non-reentrant model
  2181 ;;
  2182                           
  2183                           
  2184                           ;psect for function _int2String
  2185  1577                     _int2String:
  2186                           
  2187                           ;incstack = 0
  2188                           ; Regs used in _int2String: [wreg+status,2+status,0+pclath+cstack]
  2189                           ;int2String@value stored from wreg
  2190  1577  1283               	bcf	3,5	;RP0=0, select bank0
  2191  1578  1303               	bcf	3,6	;RP1=0, select bank0
  2192  1579  00A5               	movwf	int2String@value
  2193  157A                     l2927:
  2194  157A  3064               	movlw	100
  2195  157B  00F0               	movwf	___awdiv@divisor
  2196  157C  3000               	movlw	0
  2197  157D  00F1               	movwf	___awdiv@divisor+1
  2198  157E  0825               	movf	int2String@value,w
  2199  157F  00F9               	movwf	??_int2String
  2200  1580  01FA               	clrf	??_int2String+1
  2201  1581  0879               	movf	??_int2String,w
  2202  1582  00F2               	movwf	___awdiv@dividend
  2203  1583  087A               	movf	??_int2String+1,w
  2204  1584  00F3               	movwf	___awdiv@dividend+1
  2205  1585  160A  118A  263B  160A  118A  	fcall	___awdiv
  2206  158A  0870               	movf	?___awdiv,w
  2207  158B  00FB               	movwf	??_int2String+2
  2208  158C  087B               	movf	??_int2String+2,w
  2209  158D  1283               	bcf	3,5	;RP0=0, select bank0
  2210  158E  1303               	bcf	3,6	;RP1=0, select bank0
  2211  158F  00A4               	movwf	int2String@x
  2212  1590                     l2929:
  2213  1590  0824               	movf	int2String@x,w
  2214  1591  3E30               	addlw	48
  2215  1592  00F9               	movwf	??_int2String
  2216  1593  0879               	movf	??_int2String,w
  2217  1594  00A0               	movwf	int2String@cifras
  2218  1595                     l2931:
  2219  1595  3064               	movlw	100
  2220  1596  00F9               	movwf	??_int2String
  2221  1597  0879               	movf	??_int2String,w
  2222  1598  00F0               	movwf	___bmul@multiplicand
  2223  1599  0824               	movf	int2String@x,w
  2224  159A  160A  118A  23BF  160A  118A  	fcall	___bmul
  2225  159F  00FA               	movwf	??_int2String+1
  2226  15A0  087A               	movf	??_int2String+1,w
  2227  15A1  1283               	bcf	3,5	;RP0=0, select bank0
  2228  15A2  1303               	bcf	3,6	;RP1=0, select bank0
  2229  15A3  02A5               	subwf	int2String@value,f
  2230  15A4                     l2933:
  2231  15A4  300A               	movlw	10
  2232  15A5  00F0               	movwf	___awdiv@divisor
  2233  15A6  3000               	movlw	0
  2234  15A7  00F1               	movwf	___awdiv@divisor+1
  2235  15A8  0825               	movf	int2String@value,w
  2236  15A9  00F9               	movwf	??_int2String
  2237  15AA  01FA               	clrf	??_int2String+1
  2238  15AB  0879               	movf	??_int2String,w
  2239  15AC  00F2               	movwf	___awdiv@dividend
  2240  15AD  087A               	movf	??_int2String+1,w
  2241  15AE  00F3               	movwf	___awdiv@dividend+1
  2242  15AF  160A  118A  263B  160A  118A  	fcall	___awdiv
  2243  15B4  0870               	movf	?___awdiv,w
  2244  15B5  3E30               	addlw	48
  2245  15B6  00FB               	movwf	??_int2String+2
  2246  15B7  087B               	movf	??_int2String+2,w
  2247  15B8  1283               	bcf	3,5	;RP0=0, select bank0
  2248  15B9  1303               	bcf	3,6	;RP1=0, select bank0
  2249  15BA  00A1               	movwf	int2String@cifras+1
  2250  15BB                     l2935:
  2251  15BB  300A               	movlw	10
  2252  15BC  00F0               	movwf	___awmod@divisor
  2253  15BD  3000               	movlw	0
  2254  15BE  00F1               	movwf	___awmod@divisor+1
  2255  15BF  0825               	movf	int2String@value,w
  2256  15C0  00F9               	movwf	??_int2String
  2257  15C1  01FA               	clrf	??_int2String+1
  2258  15C2  0879               	movf	??_int2String,w
  2259  15C3  00F2               	movwf	___awmod@dividend
  2260  15C4  087A               	movf	??_int2String+1,w
  2261  15C5  00F3               	movwf	___awmod@dividend+1
  2262  15C6  160A  118A  251E  160A  118A  	fcall	___awmod
  2263  15CB  0870               	movf	?___awmod,w
  2264  15CC  3E30               	addlw	48
  2265  15CD  00FB               	movwf	??_int2String+2
  2266  15CE  087B               	movf	??_int2String+2,w
  2267  15CF  1283               	bcf	3,5	;RP0=0, select bank0
  2268  15D0  1303               	bcf	3,6	;RP1=0, select bank0
  2269  15D1  00A2               	movwf	int2String@cifras+2
  2270  15D2                     l2937:
  2271  15D2  01A3               	clrf	int2String@cifras+3
  2272  15D3                     l2939:
  2273  15D3  3020               	movlw	(low int2String@cifras)& (0+255)
  2274  15D4                     l69:
  2275  15D4  0008               	return
  2276  15D5                     __end_of_int2String:
  2277                           
  2278                           	psect	text6
  2279  13BF                     __ptext6:	
  2280 ;; *************** function ___bmul *****************
  2281 ;; Defined at:
  2282 ;;		line 4 in file "C:\Program Files\Microchip\xc8\v2.31\pic\sources\c90\common\Umul8.c"
  2283 ;; Parameters:    Size  Location     Type
  2284 ;;  multiplier      1    wreg     unsigned char 
  2285 ;;  multiplicand    1    0[COMMON] unsigned char 
  2286 ;; Auto vars:     Size  Location     Type
  2287 ;;  multiplier      1    3[COMMON] unsigned char 
  2288 ;;  product         1    2[COMMON] unsigned char 
  2289 ;; Return value:  Size  Location     Type
  2290 ;;                  1    wreg      unsigned char 
  2291 ;; Registers used:
  2292 ;;		wreg, status,2, status,0
  2293 ;; Tracked objects:
  2294 ;;		On entry : 0/0
  2295 ;;		On exit  : 0/0
  2296 ;;		Unchanged: 0/0
  2297 ;; Data sizes:     COMMON   BANK0   BANK1   BANK3   BANK2
  2298 ;;      Params:         1       0       0       0       0
  2299 ;;      Locals:         2       0       0       0       0
  2300 ;;      Temps:          1       0       0       0       0
  2301 ;;      Totals:         4       0       0       0       0
  2302 ;;Total ram usage:        4 bytes
  2303 ;; Hardware stack levels used:    1
  2304 ;; This function calls:
  2305 ;;		Nothing
  2306 ;; This function is called by:
  2307 ;;		_int2String
  2308 ;; This function uses a non-reentrant model
  2309 ;;
  2310                           
  2311                           
  2312                           ;psect for function ___bmul
  2313  13BF                     ___bmul:
  2314                           
  2315                           ;incstack = 0
  2316                           ; Regs used in ___bmul: [wreg+status,2+status,0]
  2317                           ;___bmul@multiplier stored from wreg
  2318  13BF  00F3               	movwf	___bmul@multiplier
  2319  13C0                     l2227:
  2320  13C0  01F2               	clrf	___bmul@product
  2321  13C1                     l2229:
  2322  13C1  1C73               	btfss	___bmul@multiplier,0
  2323  13C2  2BC4               	goto	u2591
  2324  13C3  2BC5               	goto	u2590
  2325  13C4                     u2591:
  2326  13C4  2BC9               	goto	l2233
  2327  13C5                     u2590:
  2328  13C5                     l2231:
  2329  13C5  0870               	movf	___bmul@multiplicand,w
  2330  13C6  00F1               	movwf	??___bmul
  2331  13C7  0871               	movf	??___bmul,w
  2332  13C8  07F2               	addwf	___bmul@product,f
  2333  13C9                     l2233:
  2334  13C9  1003               	clrc
  2335  13CA  0DF0               	rlf	___bmul@multiplicand,f
  2336  13CB                     l2235:
  2337  13CB  1003               	clrc
  2338  13CC  0CF3               	rrf	___bmul@multiplier,f
  2339  13CD  0873               	movf	___bmul@multiplier,w
  2340  13CE  1D03               	btfss	3,2
  2341  13CF  2BD1               	goto	u2601
  2342  13D0  2BD2               	goto	u2600
  2343  13D1                     u2601:
  2344  13D1  2BC1               	goto	l2229
  2345  13D2                     u2600:
  2346  13D2                     l2237:
  2347  13D2  0872               	movf	___bmul@product,w
  2348  13D3                     l331:
  2349  13D3  0008               	return
  2350  13D4                     __end_of___bmul:
  2351                           
  2352                           	psect	text7
  2353  151E                     __ptext7:	
  2354 ;; *************** function ___awmod *****************
  2355 ;; Defined at:
  2356 ;;		line 5 in file "C:\Program Files\Microchip\xc8\v2.31\pic\sources\c90\common\awmod.c"
  2357 ;; Parameters:    Size  Location     Type
  2358 ;;  divisor         2    0[COMMON] int 
  2359 ;;  dividend        2    2[COMMON] int 
  2360 ;; Auto vars:     Size  Location     Type
  2361 ;;  sign            1    6[COMMON] unsigned char 
  2362 ;;  counter         1    5[COMMON] unsigned char 
  2363 ;; Return value:  Size  Location     Type
  2364 ;;                  2    0[COMMON] int 
  2365 ;; Registers used:
  2366 ;;		wreg, status,2, status,0
  2367 ;; Tracked objects:
  2368 ;;		On entry : 0/0
  2369 ;;		On exit  : 0/0
  2370 ;;		Unchanged: 0/0
  2371 ;; Data sizes:     COMMON   BANK0   BANK1   BANK3   BANK2
  2372 ;;      Params:         4       0       0       0       0
  2373 ;;      Locals:         2       0       0       0       0
  2374 ;;      Temps:          1       0       0       0       0
  2375 ;;      Totals:         7       0       0       0       0
  2376 ;;Total ram usage:        7 bytes
  2377 ;; Hardware stack levels used:    1
  2378 ;; This function calls:
  2379 ;;		Nothing
  2380 ;; This function is called by:
  2381 ;;		_int2String
  2382 ;; This function uses a non-reentrant model
  2383 ;;
  2384                           
  2385                           
  2386                           ;psect for function ___awmod
  2387  151E                     ___awmod:
  2388  151E                     l2309:	
  2389                           ;incstack = 0
  2390                           ; Regs used in ___awmod: [wreg+status,2+status,0]
  2391                           
  2392  151E  01F6               	clrf	___awmod@sign
  2393  151F                     l2311:
  2394  151F  1FF3               	btfss	___awmod@dividend+1,7
  2395  1520  2D22               	goto	u2781
  2396  1521  2D23               	goto	u2780
  2397  1522                     u2781:
  2398  1522  2D2A               	goto	l2317
  2399  1523                     u2780:
  2400  1523                     l2313:
  2401  1523  09F2               	comf	___awmod@dividend,f
  2402  1524  09F3               	comf	___awmod@dividend+1,f
  2403  1525  0AF2               	incf	___awmod@dividend,f
  2404  1526  1903               	skipnz
  2405  1527  0AF3               	incf	___awmod@dividend+1,f
  2406  1528                     l2315:
  2407  1528  01F6               	clrf	___awmod@sign
  2408  1529  0AF6               	incf	___awmod@sign,f
  2409  152A                     l2317:
  2410  152A  1FF1               	btfss	___awmod@divisor+1,7
  2411  152B  2D2D               	goto	u2791
  2412  152C  2D2E               	goto	u2790
  2413  152D                     u2791:
  2414  152D  2D33               	goto	l2321
  2415  152E                     u2790:
  2416  152E                     l2319:
  2417  152E  09F0               	comf	___awmod@divisor,f
  2418  152F  09F1               	comf	___awmod@divisor+1,f
  2419  1530  0AF0               	incf	___awmod@divisor,f
  2420  1531  1903               	skipnz
  2421  1532  0AF1               	incf	___awmod@divisor+1,f
  2422  1533                     l2321:
  2423  1533  0870               	movf	___awmod@divisor,w
  2424  1534  0471               	iorwf	___awmod@divisor+1,w
  2425  1535  1903               	btfsc	3,2
  2426  1536  2D38               	goto	u2801
  2427  1537  2D39               	goto	u2800
  2428  1538                     u2801:
  2429  1538  2D68               	goto	l2339
  2430  1539                     u2800:
  2431  1539                     l2323:
  2432  1539  01F5               	clrf	___awmod@counter
  2433  153A  0AF5               	incf	___awmod@counter,f
  2434  153B  2D47               	goto	l2329
  2435  153C                     l2325:
  2436  153C  3001               	movlw	1
  2437  153D                     u2815:
  2438  153D  1003               	clrc
  2439  153E  0DF0               	rlf	___awmod@divisor,f
  2440  153F  0DF1               	rlf	___awmod@divisor+1,f
  2441  1540  3EFF               	addlw	-1
  2442  1541  1D03               	skipz
  2443  1542  2D3D               	goto	u2815
  2444  1543                     l2327:
  2445  1543  3001               	movlw	1
  2446  1544  00F4               	movwf	??___awmod
  2447  1545  0874               	movf	??___awmod,w
  2448  1546  07F5               	addwf	___awmod@counter,f
  2449  1547                     l2329:
  2450  1547  1FF1               	btfss	___awmod@divisor+1,7
  2451  1548  2D4A               	goto	u2821
  2452  1549  2D4B               	goto	u2820
  2453  154A                     u2821:
  2454  154A  2D3C               	goto	l2325
  2455  154B                     u2820:
  2456  154B                     l2331:
  2457  154B  0871               	movf	___awmod@divisor+1,w
  2458  154C  0273               	subwf	___awmod@dividend+1,w
  2459  154D  1D03               	skipz
  2460  154E  2D51               	goto	u2835
  2461  154F  0870               	movf	___awmod@divisor,w
  2462  1550  0272               	subwf	___awmod@dividend,w
  2463  1551                     u2835:
  2464  1551  1C03               	skipc
  2465  1552  2D54               	goto	u2831
  2466  1553  2D55               	goto	u2830
  2467  1554                     u2831:
  2468  1554  2D5B               	goto	l2335
  2469  1555                     u2830:
  2470  1555                     l2333:
  2471  1555  0870               	movf	___awmod@divisor,w
  2472  1556  02F2               	subwf	___awmod@dividend,f
  2473  1557  0871               	movf	___awmod@divisor+1,w
  2474  1558  1C03               	skipc
  2475  1559  03F3               	decf	___awmod@dividend+1,f
  2476  155A  02F3               	subwf	___awmod@dividend+1,f
  2477  155B                     l2335:
  2478  155B  3001               	movlw	1
  2479  155C                     u2845:
  2480  155C  1003               	clrc
  2481  155D  0CF1               	rrf	___awmod@divisor+1,f
  2482  155E  0CF0               	rrf	___awmod@divisor,f
  2483  155F  3EFF               	addlw	-1
  2484  1560  1D03               	skipz
  2485  1561  2D5C               	goto	u2845
  2486  1562                     l2337:
  2487  1562  3001               	movlw	1
  2488  1563  02F5               	subwf	___awmod@counter,f
  2489  1564  1D03               	btfss	3,2
  2490  1565  2D67               	goto	u2851
  2491  1566  2D68               	goto	u2850
  2492  1567                     u2851:
  2493  1567  2D4B               	goto	l2331
  2494  1568                     u2850:
  2495  1568                     l2339:
  2496  1568  0876               	movf	___awmod@sign,w
  2497  1569  1903               	btfsc	3,2
  2498  156A  2D6C               	goto	u2861
  2499  156B  2D6D               	goto	u2860
  2500  156C                     u2861:
  2501  156C  2D72               	goto	l2343
  2502  156D                     u2860:
  2503  156D                     l2341:
  2504  156D  09F2               	comf	___awmod@dividend,f
  2505  156E  09F3               	comf	___awmod@dividend+1,f
  2506  156F  0AF2               	incf	___awmod@dividend,f
  2507  1570  1903               	skipnz
  2508  1571  0AF3               	incf	___awmod@dividend+1,f
  2509  1572                     l2343:
  2510  1572  0873               	movf	___awmod@dividend+1,w
  2511  1573  00F1               	movwf	?___awmod+1
  2512  1574  0872               	movf	___awmod@dividend,w
  2513  1575  00F0               	movwf	?___awmod
  2514  1576                     l471:
  2515  1576  0008               	return
  2516  1577                     __end_of___awmod:
  2517                           
  2518                           	psect	text8
  2519  03FF                     __ptext8:	
  2520 ;; *************** function _convert *****************
  2521 ;; Defined at:
  2522 ;;		line 77 in file "LCD.c"
  2523 ;; Parameters:    Size  Location     Type
  2524 ;;  data            1    wreg     PTR unsigned char 
  2525 ;;		 -> string_temperature(5), string_voltageADC(5), 
  2526 ;;  a               4   70[BANK0 ] float 
  2527 ;;  place           2   74[BANK0 ] int 
  2528 ;; Auto vars:     Size  Location     Type
  2529 ;;  data            1    4[BANK1 ] PTR unsigned char 
  2530 ;;		 -> string_temperature(5), string_voltageADC(5), 
  2531 ;;  x               4    5[BANK1 ] float 
  2532 ;;  mu              2   13[BANK1 ] int 
  2533 ;;  digits          2   11[BANK1 ] int 
  2534 ;;  i               2    9[BANK1 ] int 
  2535 ;;  j               2    2[BANK1 ] int 
  2536 ;;  temp            2    0[BANK1 ] int 
  2537 ;; Return value:  Size  Location     Type
  2538 ;;                  1    wreg      void 
  2539 ;; Registers used:
  2540 ;;		wreg, fsr0l, fsr0h, status,2, status,0, btemp+1, pclath, cstack
  2541 ;; Tracked objects:
  2542 ;;		On entry : 0/0
  2543 ;;		On exit  : 0/0
  2544 ;;		Unchanged: 0/0
  2545 ;; Data sizes:     COMMON   BANK0   BANK1   BANK3   BANK2
  2546 ;;      Params:         0       6       0       0       0
  2547 ;;      Locals:         0       0      15       0       0
  2548 ;;      Temps:          0       2       0       0       0
  2549 ;;      Totals:         0       8      15       0       0
  2550 ;;Total ram usage:       23 bytes
  2551 ;; Hardware stack levels used:    1
  2552 ;; Hardware stack levels required when called:    2
  2553 ;; This function calls:
  2554 ;;		___awdiv
  2555 ;;		___fldiv
  2556 ;;		___flge
  2557 ;;		___flmul
  2558 ;;		___flsub
  2559 ;;		___fltol
  2560 ;;		___wmul
  2561 ;;		___xxtofl
  2562 ;; This function is called by:
  2563 ;;		_main
  2564 ;; This function uses a non-reentrant model
  2565 ;;
  2566                           
  2567                           
  2568                           ;psect for function _convert
  2569  03FF                     _convert:
  2570                           
  2571                           ;incstack = 0
  2572                           ; Regs used in _convert: [wreg-fsr0h+status,2+status,0+btemp+1+pclath+cstack]
  2573                           ;convert@data stored from wreg
  2574  03FF  1683               	bsf	3,5	;RP0=1, select bank1
  2575  0400  1303               	bcf	3,6	;RP1=0, select bank1
  2576  0401  00A4               	movwf	convert@data^(0+128)
  2577  0402                     l2815:
  2578                           
  2579                           ;LCD.c: 77: void convert(char *data, float a, int place);LCD.c: 78: {;LCD.c: 79:     int
      +                           temp = a;
  2580  0402  1283               	bcf	3,5	;RP0=0, select bank0
  2581  0403  1303               	bcf	3,6	;RP1=0, select bank0
  2582  0404  0869               	movf	convert@a+3,w
  2583  0405  00F3               	movwf	___fltol@f1+3
  2584  0406  0868               	movf	convert@a+2,w
  2585  0407  00F2               	movwf	___fltol@f1+2
  2586  0408  0867               	movf	convert@a+1,w
  2587  0409  00F1               	movwf	___fltol@f1+1
  2588  040A  0866               	movf	convert@a,w
  2589  040B  00F0               	movwf	___fltol@f1
  2590  040C  120A  118A  2024  120A  118A  	fcall	___fltol
  2591  0411  0871               	movf	?___fltol+1,w
  2592  0412  1683               	bsf	3,5	;RP0=1, select bank1
  2593  0413  1303               	bcf	3,6	;RP1=0, select bank1
  2594  0414  00A1               	movwf	(convert@temp+1)^(0+128)
  2595  0415  0870               	movf	?___fltol,w
  2596  0416  00A0               	movwf	convert@temp^(0+128)
  2597  0417                     l2817:
  2598  0417                     l2819:
  2599                           
  2600                           ;LCD.c: 81:     int digits = 0;
  2601  0417  01AB               	clrf	convert@digits^(0+128)
  2602  0418  01AC               	clrf	(convert@digits+1)^(0+128)
  2603  0419                     l2821:
  2604                           
  2605                           ;LCD.c: 82:     int i = 0, mu = 1;
  2606  0419  01A9               	clrf	convert@i^(0+128)
  2607  041A  01AA               	clrf	(convert@i+1)^(0+128)
  2608  041B                     l2823:
  2609  041B  3001               	movlw	1
  2610  041C  00AD               	movwf	convert@mu^(0+128)
  2611  041D  3000               	movlw	0
  2612  041E  00AE               	movwf	(convert@mu^(0+128)+1)
  2613  041F                     l2825:
  2614  041F                     l2827:
  2615                           
  2616                           ;LCD.c: 84:     if (a < 0) {
  2617  041F  1283               	bcf	3,5	;RP0=0, select bank0
  2618  0420  1303               	bcf	3,6	;RP1=0, select bank0
  2619  0421  0869               	movf	convert@a+3,w
  2620  0422  00F3               	movwf	___flge@ff1+3
  2621  0423  0868               	movf	convert@a+2,w
  2622  0424  00F2               	movwf	___flge@ff1+2
  2623  0425  0867               	movf	convert@a+1,w
  2624  0426  00F1               	movwf	___flge@ff1+1
  2625  0427  0866               	movf	convert@a,w
  2626  0428  00F0               	movwf	___flge@ff1
  2627  0429  3000               	movlw	0
  2628  042A  00F7               	movwf	___flge@ff2+3
  2629  042B  3000               	movlw	0
  2630  042C  00F6               	movwf	___flge@ff2+2
  2631  042D  3000               	movlw	0
  2632  042E  00F5               	movwf	___flge@ff2+1
  2633  042F  3000               	movlw	0
  2634  0430  00F4               	movwf	___flge@ff2
  2635  0431  160A  118A  26A2  120A  118A  	fcall	___flge
  2636  0436  1803               	btfsc	3,0
  2637  0437  2C39               	goto	u3911
  2638  0438  2C3A               	goto	u3910
  2639  0439                     u3911:
  2640  0439  2C88               	goto	l2839
  2641  043A                     u3910:
  2642  043A                     l2829:
  2643                           
  2644                           ;LCD.c: 85:         a = a*-1;
  2645  043A  30BF               	movlw	191
  2646  043B  1283               	bcf	3,5	;RP0=0, select bank0
  2647  043C  1303               	bcf	3,6	;RP1=0, select bank0
  2648  043D  00CF               	movwf	___flmul@b+3
  2649  043E  3080               	movlw	128
  2650  043F  00CE               	movwf	___flmul@b+2
  2651  0440  3000               	movlw	0
  2652  0441  00CD               	movwf	___flmul@b+1
  2653  0442  3000               	movlw	0
  2654  0443  00CC               	movwf	___flmul@b
  2655  0444  0869               	movf	convert@a+3,w
  2656  0445  00D3               	movwf	___flmul@a+3
  2657  0446  0868               	movf	convert@a+2,w
  2658  0447  00D2               	movwf	___flmul@a+2
  2659  0448  0867               	movf	convert@a+1,w
  2660  0449  00D1               	movwf	___flmul@a+1
  2661  044A  0866               	movf	convert@a,w
  2662  044B  00D0               	movwf	___flmul@a
  2663  044C  120A  118A  209E  120A  118A  	fcall	___flmul
  2664  0451  1283               	bcf	3,5	;RP0=0, select bank0
  2665  0452  1303               	bcf	3,6	;RP1=0, select bank0
  2666  0453  084F               	movf	?___flmul+3,w
  2667  0454  00E9               	movwf	convert@a+3
  2668  0455  084E               	movf	?___flmul+2,w
  2669  0456  00E8               	movwf	convert@a+2
  2670  0457  084D               	movf	?___flmul+1,w
  2671  0458  00E7               	movwf	convert@a+1
  2672  0459  084C               	movf	?___flmul,w
  2673  045A  00E6               	movwf	convert@a
  2674  045B                     l2831:
  2675                           
  2676                           ;LCD.c: 86:         data[i] = '-';
  2677  045B  302D               	movlw	45
  2678  045C  00EC               	movwf	??_convert
  2679  045D  1683               	bsf	3,5	;RP0=1, select bank1
  2680  045E  1303               	bcf	3,6	;RP1=0, select bank1
  2681  045F  0824               	movf	convert@data^(0+128),w
  2682  0460  0084               	movwf	4
  2683  0461  1283               	bcf	3,5	;RP0=0, select bank0
  2684  0462  1303               	bcf	3,6	;RP1=0, select bank0
  2685  0463  086C               	movf	??_convert,w
  2686  0464  1383               	bcf	3,7	;select IRP bank0
  2687  0465  0080               	movwf	0
  2688  0466                     l2833:
  2689                           
  2690                           ;LCD.c: 87:         i++;
  2691  0466  3001               	movlw	1
  2692  0467  1683               	bsf	3,5	;RP0=1, select bank1
  2693  0468  1303               	bcf	3,6	;RP1=0, select bank1
  2694  0469  07A9               	addwf	convert@i^(0+128),f
  2695  046A  1803               	skipnc
  2696  046B  0AAA               	incf	(convert@i+1)^(0+128),f
  2697  046C  3000               	movlw	0
  2698  046D  07AA               	addwf	(convert@i+1)^(0+128),f
  2699  046E  2C88               	goto	l2839
  2700  046F                     l2835:
  2701                           
  2702                           ;LCD.c: 91:         temp = temp / 10;
  2703  046F  300A               	movlw	10
  2704  0470  00F0               	movwf	___awdiv@divisor
  2705  0471  3000               	movlw	0
  2706  0472  00F1               	movwf	___awdiv@divisor+1
  2707  0473  0821               	movf	(convert@temp+1)^(0+128),w
  2708  0474  00F3               	movwf	___awdiv@dividend+1
  2709  0475  0820               	movf	convert@temp^(0+128),w
  2710  0476  00F2               	movwf	___awdiv@dividend
  2711  0477  160A  118A  263B  120A  118A  	fcall	___awdiv
  2712  047C  0871               	movf	?___awdiv+1,w
  2713  047D  1683               	bsf	3,5	;RP0=1, select bank1
  2714  047E  1303               	bcf	3,6	;RP1=0, select bank1
  2715  047F  00A1               	movwf	(convert@temp+1)^(0+128)
  2716  0480  0870               	movf	?___awdiv,w
  2717  0481  00A0               	movwf	convert@temp^(0+128)
  2718  0482                     l2837:
  2719                           
  2720                           ;LCD.c: 92:         digits++;
  2721  0482  3001               	movlw	1
  2722  0483  07AB               	addwf	convert@digits^(0+128),f
  2723  0484  1803               	skipnc
  2724  0485  0AAC               	incf	(convert@digits+1)^(0+128),f
  2725  0486  3000               	movlw	0
  2726  0487  07AC               	addwf	(convert@digits+1)^(0+128),f
  2727  0488                     l2839:
  2728                           
  2729                           ;LCD.c: 90:     while (temp != 0) {
  2730  0488  1683               	bsf	3,5	;RP0=1, select bank1
  2731  0489  1303               	bcf	3,6	;RP1=0, select bank1
  2732  048A  0820               	movf	convert@temp^(0+128),w
  2733  048B  0421               	iorwf	(convert@temp+1)^(0+128),w
  2734  048C  1D03               	btfss	3,2
  2735  048D  2C8F               	goto	u3921
  2736  048E  2C90               	goto	u3920
  2737  048F                     u3921:
  2738  048F  2C6F               	goto	l2835
  2739  0490                     u3920:
  2740  0490  2DAC               	goto	l2863
  2741  0491                     l2841:
  2742                           
  2743                           ;LCD.c: 95:         if (digits == 1)mu = 1;
  2744  0491  032B               	decf	convert@digits^(0+128),w
  2745  0492  042C               	iorwf	(convert@digits+1)^(0+128),w
  2746  0493  1D03               	btfss	3,2
  2747  0494  2C96               	goto	u3931
  2748  0495  2C97               	goto	u3930
  2749  0496                     u3931:
  2750  0496  2C9C               	goto	l2845
  2751  0497                     u3930:
  2752  0497                     l2843:
  2753  0497  3001               	movlw	1
  2754  0498  00AD               	movwf	convert@mu^(0+128)
  2755  0499  3000               	movlw	0
  2756  049A  00AE               	movwf	(convert@mu^(0+128)+1)
  2757  049B  2CDE               	goto	l2853
  2758  049C                     l2845:
  2759  049C  3002               	movlw	2
  2760  049D  00A2               	movwf	convert@j^(0+128)
  2761  049E  3000               	movlw	0
  2762  049F  00A3               	movwf	(convert@j^(0+128)+1)
  2763  04A0  2CC8               	goto	l2851
  2764  04A1                     l2847:
  2765  04A1  1683               	bsf	3,5	;RP0=1, select bank1
  2766  04A2  1303               	bcf	3,6	;RP1=0, select bank1
  2767  04A3  082E               	movf	(convert@mu+1)^(0+128),w
  2768  04A4  1283               	bcf	3,5	;RP0=0, select bank0
  2769  04A5  1303               	bcf	3,6	;RP1=0, select bank0
  2770  04A6  00A1               	movwf	___wmul@multiplier+1
  2771  04A7  1683               	bsf	3,5	;RP0=1, select bank1
  2772  04A8  1303               	bcf	3,6	;RP1=0, select bank1
  2773  04A9  082D               	movf	convert@mu^(0+128),w
  2774  04AA  1283               	bcf	3,5	;RP0=0, select bank0
  2775  04AB  1303               	bcf	3,6	;RP1=0, select bank0
  2776  04AC  00A0               	movwf	___wmul@multiplier
  2777  04AD  300A               	movlw	10
  2778  04AE  00A2               	movwf	___wmul@multiplicand
  2779  04AF  3000               	movlw	0
  2780  04B0  00A3               	movwf	___wmul@multiplicand+1
  2781  04B1  160A  118A  2443  120A  118A  	fcall	___wmul
  2782  04B6  1283               	bcf	3,5	;RP0=0, select bank0
  2783  04B7  1303               	bcf	3,6	;RP1=0, select bank0
  2784  04B8  0821               	movf	?___wmul+1,w
  2785  04B9  1683               	bsf	3,5	;RP0=1, select bank1
  2786  04BA  1303               	bcf	3,6	;RP1=0, select bank1
  2787  04BB  00AE               	movwf	(convert@mu+1)^(0+128)
  2788  04BC  1283               	bcf	3,5	;RP0=0, select bank0
  2789  04BD  1303               	bcf	3,6	;RP1=0, select bank0
  2790  04BE  0820               	movf	?___wmul,w
  2791  04BF  1683               	bsf	3,5	;RP0=1, select bank1
  2792  04C0  1303               	bcf	3,6	;RP1=0, select bank1
  2793  04C1  00AD               	movwf	convert@mu^(0+128)
  2794  04C2                     l2849:
  2795  04C2  3001               	movlw	1
  2796  04C3  07A2               	addwf	convert@j^(0+128),f
  2797  04C4  1803               	skipnc
  2798  04C5  0AA3               	incf	(convert@j+1)^(0+128),f
  2799  04C6  3000               	movlw	0
  2800  04C7  07A3               	addwf	(convert@j+1)^(0+128),f
  2801  04C8                     l2851:
  2802  04C8  082C               	movf	(convert@digits+1)^(0+128),w
  2803  04C9  3A80               	xorlw	128
  2804  04CA  1283               	bcf	3,5	;RP0=0, select bank0
  2805  04CB  1303               	bcf	3,6	;RP1=0, select bank0
  2806  04CC  00EC               	movwf	??_convert
  2807  04CD  1683               	bsf	3,5	;RP0=1, select bank1
  2808  04CE  1303               	bcf	3,6	;RP1=0, select bank1
  2809  04CF  0823               	movf	(convert@j+1)^(0+128),w
  2810  04D0  3A80               	xorlw	128
  2811  04D1  1283               	bcf	3,5	;RP0=0, select bank0
  2812  04D2  1303               	bcf	3,6	;RP1=0, select bank0
  2813  04D3  026C               	subwf	??_convert,w
  2814  04D4  1D03               	skipz
  2815  04D5  2CDA               	goto	u3945
  2816  04D6  1683               	bsf	3,5	;RP0=1, select bank1
  2817  04D7  1303               	bcf	3,6	;RP1=0, select bank1
  2818  04D8  0822               	movf	convert@j^(0+128),w
  2819  04D9  022B               	subwf	convert@digits^(0+128),w
  2820  04DA                     u3945:
  2821  04DA  1803               	skipnc
  2822  04DB  2CDD               	goto	u3941
  2823  04DC  2CDE               	goto	u3940
  2824  04DD                     u3941:
  2825  04DD  2CA1               	goto	l2847
  2826  04DE                     u3940:
  2827  04DE                     l2853:
  2828                           
  2829                           ;LCD.c: 98:         x = a / mu;
  2830  04DE  1683               	bsf	3,5	;RP0=1, select bank1
  2831  04DF  1303               	bcf	3,6	;RP1=0, select bank1
  2832  04E0  082D               	movf	convert@mu^(0+128),w
  2833  04E1  1283               	bcf	3,5	;RP0=0, select bank0
  2834  04E2  1303               	bcf	3,6	;RP1=0, select bank0
  2835  04E3  00A4               	movwf	___xxtofl@val
  2836  04E4  1683               	bsf	3,5	;RP0=1, select bank1
  2837  04E5  1303               	bcf	3,6	;RP1=0, select bank1
  2838  04E6  082E               	movf	(convert@mu+1)^(0+128),w
  2839  04E7  1283               	bcf	3,5	;RP0=0, select bank0
  2840  04E8  1303               	bcf	3,6	;RP1=0, select bank0
  2841  04E9  00A5               	movwf	___xxtofl@val+1
  2842  04EA  3000               	movlw	0
  2843  04EB  1BA5               	btfsc	___xxtofl@val+1,7
  2844  04EC  30FF               	movlw	255
  2845  04ED  00A6               	movwf	___xxtofl@val+2
  2846  04EE  00A7               	movwf	___xxtofl@val+3
  2847  04EF  3001               	movlw	1
  2848  04F0  160A  118A  2744  120A  118A  	fcall	___xxtofl
  2849  04F5  1283               	bcf	3,5	;RP0=0, select bank0
  2850  04F6  1303               	bcf	3,6	;RP1=0, select bank0
  2851  04F7  0827               	movf	?___xxtofl+3,w
  2852  04F8  00B5               	movwf	___fldiv@a+3
  2853  04F9  0826               	movf	?___xxtofl+2,w
  2854  04FA  00B4               	movwf	___fldiv@a+2
  2855  04FB  0825               	movf	?___xxtofl+1,w
  2856  04FC  00B3               	movwf	___fldiv@a+1
  2857  04FD  0824               	movf	?___xxtofl,w
  2858  04FE  00B2               	movwf	___fldiv@a
  2859  04FF  0869               	movf	convert@a+3,w
  2860  0500  00B9               	movwf	___fldiv@b+3
  2861  0501  0868               	movf	convert@a+2,w
  2862  0502  00B8               	movwf	___fldiv@b+2
  2863  0503  0867               	movf	convert@a+1,w
  2864  0504  00B7               	movwf	___fldiv@b+1
  2865  0505  0866               	movf	convert@a,w
  2866  0506  00B6               	movwf	___fldiv@b
  2867  0507  120A  158A  2091  120A  118A  	fcall	___fldiv
  2868  050C  1283               	bcf	3,5	;RP0=0, select bank0
  2869  050D  1303               	bcf	3,6	;RP1=0, select bank0
  2870  050E  0835               	movf	?___fldiv+3,w
  2871  050F  1683               	bsf	3,5	;RP0=1, select bank1
  2872  0510  1303               	bcf	3,6	;RP1=0, select bank1
  2873  0511  00A8               	movwf	(convert@x+3)^(0+128)
  2874  0512  1283               	bcf	3,5	;RP0=0, select bank0
  2875  0513  1303               	bcf	3,6	;RP1=0, select bank0
  2876  0514  0834               	movf	?___fldiv+2,w
  2877  0515  1683               	bsf	3,5	;RP0=1, select bank1
  2878  0516  1303               	bcf	3,6	;RP1=0, select bank1
  2879  0517  00A7               	movwf	(convert@x+2)^(0+128)
  2880  0518  1283               	bcf	3,5	;RP0=0, select bank0
  2881  0519  1303               	bcf	3,6	;RP1=0, select bank0
  2882  051A  0833               	movf	?___fldiv+1,w
  2883  051B  1683               	bsf	3,5	;RP0=1, select bank1
  2884  051C  1303               	bcf	3,6	;RP1=0, select bank1
  2885  051D  00A6               	movwf	(convert@x+1)^(0+128)
  2886  051E  1283               	bcf	3,5	;RP0=0, select bank0
  2887  051F  1303               	bcf	3,6	;RP1=0, select bank0
  2888  0520  0832               	movf	?___fldiv,w
  2889  0521  1683               	bsf	3,5	;RP0=1, select bank1
  2890  0522  1303               	bcf	3,6	;RP1=0, select bank1
  2891  0523  00A5               	movwf	convert@x^(0+128)
  2892                           
  2893                           ;LCD.c: 99:         a = a - ((int) x * mu);
  2894  0524  082E               	movf	(convert@mu+1)^(0+128),w
  2895  0525  1283               	bcf	3,5	;RP0=0, select bank0
  2896  0526  1303               	bcf	3,6	;RP1=0, select bank0
  2897  0527  00A3               	movwf	___wmul@multiplicand+1
  2898  0528  1683               	bsf	3,5	;RP0=1, select bank1
  2899  0529  1303               	bcf	3,6	;RP1=0, select bank1
  2900  052A  082D               	movf	convert@mu^(0+128),w
  2901  052B  1283               	bcf	3,5	;RP0=0, select bank0
  2902  052C  1303               	bcf	3,6	;RP1=0, select bank0
  2903  052D  00A2               	movwf	___wmul@multiplicand
  2904  052E  1683               	bsf	3,5	;RP0=1, select bank1
  2905  052F  1303               	bcf	3,6	;RP1=0, select bank1
  2906  0530  0828               	movf	(convert@x+3)^(0+128),w
  2907  0531  00F3               	movwf	___fltol@f1+3
  2908  0532  0827               	movf	(convert@x+2)^(0+128),w
  2909  0533  00F2               	movwf	___fltol@f1+2
  2910  0534  0826               	movf	(convert@x+1)^(0+128),w
  2911  0535  00F1               	movwf	___fltol@f1+1
  2912  0536  0825               	movf	convert@x^(0+128),w
  2913  0537  00F0               	movwf	___fltol@f1
  2914  0538  120A  118A  2024  120A  118A  	fcall	___fltol
  2915  053D  0871               	movf	?___fltol+1,w
  2916  053E  1283               	bcf	3,5	;RP0=0, select bank0
  2917  053F  1303               	bcf	3,6	;RP1=0, select bank0
  2918  0540  00A1               	movwf	___wmul@multiplier+1
  2919  0541  0870               	movf	?___fltol,w
  2920  0542  00A0               	movwf	___wmul@multiplier
  2921  0543  160A  118A  2443  120A  118A  	fcall	___wmul
  2922  0548  1283               	bcf	3,5	;RP0=0, select bank0
  2923  0549  1303               	bcf	3,6	;RP1=0, select bank0
  2924  054A  0820               	movf	?___wmul,w
  2925  054B  00A4               	movwf	___xxtofl@val
  2926  054C  0821               	movf	?___wmul+1,w
  2927  054D  00A5               	movwf	___xxtofl@val+1
  2928  054E  3000               	movlw	0
  2929  054F  1BA5               	btfsc	___xxtofl@val+1,7
  2930  0550  30FF               	movlw	255
  2931  0551  00A6               	movwf	___xxtofl@val+2
  2932  0552  00A7               	movwf	___xxtofl@val+3
  2933  0553  3001               	movlw	1
  2934  0554  160A  118A  2744  120A  118A  	fcall	___xxtofl
  2935  0559  1283               	bcf	3,5	;RP0=0, select bank0
  2936  055A  1303               	bcf	3,6	;RP1=0, select bank0
  2937  055B  0827               	movf	?___xxtofl+3,w
  2938  055C  00B5               	movwf	___flsub@a+3
  2939  055D  0826               	movf	?___xxtofl+2,w
  2940  055E  00B4               	movwf	___flsub@a+2
  2941  055F  0825               	movf	?___xxtofl+1,w
  2942  0560  00B3               	movwf	___flsub@a+1
  2943  0561  0824               	movf	?___xxtofl,w
  2944  0562  00B2               	movwf	___flsub@a
  2945  0563  0869               	movf	convert@a+3,w
  2946  0564  00B9               	movwf	___flsub@b+3
  2947  0565  0868               	movf	convert@a+2,w
  2948  0566  00B8               	movwf	___flsub@b+2
  2949  0567  0867               	movf	convert@a+1,w
  2950  0568  00B7               	movwf	___flsub@b+1
  2951  0569  0866               	movf	convert@a,w
  2952  056A  00B6               	movwf	___flsub@b
  2953  056B  160A  118A  23F8  120A  118A  	fcall	___flsub
  2954  0570  1283               	bcf	3,5	;RP0=0, select bank0
  2955  0571  1303               	bcf	3,6	;RP1=0, select bank0
  2956  0572  0835               	movf	?___flsub+3,w
  2957  0573  00E9               	movwf	convert@a+3
  2958  0574  0834               	movf	?___flsub+2,w
  2959  0575  00E8               	movwf	convert@a+2
  2960  0576  0833               	movf	?___flsub+1,w
  2961  0577  00E7               	movwf	convert@a+1
  2962  0578  0832               	movf	?___flsub,w
  2963  0579  00E6               	movwf	convert@a
  2964  057A                     l2855:
  2965                           
  2966                           ;LCD.c: 100:         data[i] = 0x30 + ((int) x);
  2967  057A  1683               	bsf	3,5	;RP0=1, select bank1
  2968  057B  1303               	bcf	3,6	;RP1=0, select bank1
  2969  057C  0828               	movf	(convert@x+3)^(0+128),w
  2970  057D  00F3               	movwf	___fltol@f1+3
  2971  057E  0827               	movf	(convert@x+2)^(0+128),w
  2972  057F  00F2               	movwf	___fltol@f1+2
  2973  0580  0826               	movf	(convert@x+1)^(0+128),w
  2974  0581  00F1               	movwf	___fltol@f1+1
  2975  0582  0825               	movf	convert@x^(0+128),w
  2976  0583  00F0               	movwf	___fltol@f1
  2977  0584  120A  118A  2024  120A  118A  	fcall	___fltol
  2978  0589  0870               	movf	?___fltol,w
  2979  058A  3E30               	addlw	48
  2980  058B  1283               	bcf	3,5	;RP0=0, select bank0
  2981  058C  1303               	bcf	3,6	;RP1=0, select bank0
  2982  058D  00EC               	movwf	??_convert
  2983  058E  1683               	bsf	3,5	;RP0=1, select bank1
  2984  058F  1303               	bcf	3,6	;RP1=0, select bank1
  2985  0590  0829               	movf	convert@i^(0+128),w
  2986  0591  0724               	addwf	convert@data^(0+128),w
  2987  0592  1283               	bcf	3,5	;RP0=0, select bank0
  2988  0593  1303               	bcf	3,6	;RP1=0, select bank0
  2989  0594  00ED               	movwf	??_convert+1
  2990  0595  086D               	movf	??_convert+1,w
  2991  0596  0084               	movwf	4
  2992  0597  086C               	movf	??_convert,w
  2993  0598  1383               	bcf	3,7	;select IRP bank0
  2994  0599  0080               	movwf	0
  2995  059A                     l2857:
  2996                           
  2997                           ;LCD.c: 101:         i++;
  2998  059A  3001               	movlw	1
  2999  059B  1683               	bsf	3,5	;RP0=1, select bank1
  3000  059C  1303               	bcf	3,6	;RP1=0, select bank1
  3001  059D  07A9               	addwf	convert@i^(0+128),f
  3002  059E  1803               	skipnc
  3003  059F  0AAA               	incf	(convert@i+1)^(0+128),f
  3004  05A0  3000               	movlw	0
  3005  05A1  07AA               	addwf	(convert@i+1)^(0+128),f
  3006  05A2                     l2859:
  3007                           
  3008                           ;LCD.c: 102:         digits--;
  3009  05A2  30FF               	movlw	255
  3010  05A3  07AB               	addwf	convert@digits^(0+128),f
  3011  05A4  1803               	skipnc
  3012  05A5  0AAC               	incf	(convert@digits+1)^(0+128),f
  3013  05A6  30FF               	movlw	255
  3014  05A7  07AC               	addwf	(convert@digits+1)^(0+128),f
  3015  05A8                     l2861:
  3016                           
  3017                           ;LCD.c: 103:         mu = 1;
  3018  05A8  3001               	movlw	1
  3019  05A9  00AD               	movwf	convert@mu^(0+128)
  3020  05AA  3000               	movlw	0
  3021  05AB  00AE               	movwf	(convert@mu^(0+128)+1)
  3022  05AC                     l2863:
  3023                           
  3024                           ;LCD.c: 94:     while (digits != 0) {
  3025  05AC  082B               	movf	convert@digits^(0+128),w
  3026  05AD  042C               	iorwf	(convert@digits+1)^(0+128),w
  3027  05AE  1D03               	btfss	3,2
  3028  05AF  2DB1               	goto	u3951
  3029  05B0  2DB2               	goto	u3950
  3030  05B1                     u3951:
  3031  05B1  2C91               	goto	l2841
  3032  05B2                     u3950:
  3033  05B2                     l2865:
  3034                           
  3035                           ;LCD.c: 106:     data[i] = '.';
  3036  05B2  302E               	movlw	46
  3037  05B3  1283               	bcf	3,5	;RP0=0, select bank0
  3038  05B4  1303               	bcf	3,6	;RP1=0, select bank0
  3039  05B5  00EC               	movwf	??_convert
  3040  05B6  1683               	bsf	3,5	;RP0=1, select bank1
  3041  05B7  1303               	bcf	3,6	;RP1=0, select bank1
  3042  05B8  0829               	movf	convert@i^(0+128),w
  3043  05B9  0724               	addwf	convert@data^(0+128),w
  3044  05BA  1283               	bcf	3,5	;RP0=0, select bank0
  3045  05BB  1303               	bcf	3,6	;RP1=0, select bank0
  3046  05BC  00ED               	movwf	??_convert+1
  3047  05BD  086D               	movf	??_convert+1,w
  3048  05BE  0084               	movwf	4
  3049  05BF  086C               	movf	??_convert,w
  3050  05C0  1383               	bcf	3,7	;select IRP bank0
  3051  05C1  0080               	movwf	0
  3052  05C2                     l2867:
  3053                           
  3054                           ;LCD.c: 107:     i++;
  3055  05C2  3001               	movlw	1
  3056  05C3  1683               	bsf	3,5	;RP0=1, select bank1
  3057  05C4  1303               	bcf	3,6	;RP1=0, select bank1
  3058  05C5  07A9               	addwf	convert@i^(0+128),f
  3059  05C6  1803               	skipnc
  3060  05C7  0AAA               	incf	(convert@i+1)^(0+128),f
  3061  05C8  3000               	movlw	0
  3062  05C9  07AA               	addwf	(convert@i+1)^(0+128),f
  3063  05CA                     l2869:
  3064  05CA                     l2871:
  3065                           
  3066                           ;LCD.c: 109:     for (j = 1; j <= place; j++)mu = mu * 10;
  3067  05CA  3001               	movlw	1
  3068  05CB  00A2               	movwf	convert@j^(0+128)
  3069  05CC  3000               	movlw	0
  3070  05CD  00A3               	movwf	(convert@j^(0+128)+1)
  3071  05CE  2DF6               	goto	l2877
  3072  05CF                     l2873:
  3073  05CF  1683               	bsf	3,5	;RP0=1, select bank1
  3074  05D0  1303               	bcf	3,6	;RP1=0, select bank1
  3075  05D1  082E               	movf	(convert@mu+1)^(0+128),w
  3076  05D2  1283               	bcf	3,5	;RP0=0, select bank0
  3077  05D3  1303               	bcf	3,6	;RP1=0, select bank0
  3078  05D4  00A1               	movwf	___wmul@multiplier+1
  3079  05D5  1683               	bsf	3,5	;RP0=1, select bank1
  3080  05D6  1303               	bcf	3,6	;RP1=0, select bank1
  3081  05D7  082D               	movf	convert@mu^(0+128),w
  3082  05D8  1283               	bcf	3,5	;RP0=0, select bank0
  3083  05D9  1303               	bcf	3,6	;RP1=0, select bank0
  3084  05DA  00A0               	movwf	___wmul@multiplier
  3085  05DB  300A               	movlw	10
  3086  05DC  00A2               	movwf	___wmul@multiplicand
  3087  05DD  3000               	movlw	0
  3088  05DE  00A3               	movwf	___wmul@multiplicand+1
  3089  05DF  160A  118A  2443  120A  118A  	fcall	___wmul
  3090  05E4  1283               	bcf	3,5	;RP0=0, select bank0
  3091  05E5  1303               	bcf	3,6	;RP1=0, select bank0
  3092  05E6  0821               	movf	?___wmul+1,w
  3093  05E7  1683               	bsf	3,5	;RP0=1, select bank1
  3094  05E8  1303               	bcf	3,6	;RP1=0, select bank1
  3095  05E9  00AE               	movwf	(convert@mu+1)^(0+128)
  3096  05EA  1283               	bcf	3,5	;RP0=0, select bank0
  3097  05EB  1303               	bcf	3,6	;RP1=0, select bank0
  3098  05EC  0820               	movf	?___wmul,w
  3099  05ED  1683               	bsf	3,5	;RP0=1, select bank1
  3100  05EE  1303               	bcf	3,6	;RP1=0, select bank1
  3101  05EF  00AD               	movwf	convert@mu^(0+128)
  3102  05F0                     l2875:
  3103  05F0  3001               	movlw	1
  3104  05F1  07A2               	addwf	convert@j^(0+128),f
  3105  05F2  1803               	skipnc
  3106  05F3  0AA3               	incf	(convert@j+1)^(0+128),f
  3107  05F4  3000               	movlw	0
  3108  05F5  07A3               	addwf	(convert@j+1)^(0+128),f
  3109  05F6                     l2877:
  3110  05F6  1283               	bcf	3,5	;RP0=0, select bank0
  3111  05F7  1303               	bcf	3,6	;RP1=0, select bank0
  3112  05F8  086B               	movf	convert@place+1,w
  3113  05F9  3A80               	xorlw	128
  3114  05FA  00EC               	movwf	??_convert
  3115  05FB  1683               	bsf	3,5	;RP0=1, select bank1
  3116  05FC  1303               	bcf	3,6	;RP1=0, select bank1
  3117  05FD  0823               	movf	(convert@j+1)^(0+128),w
  3118  05FE  3A80               	xorlw	128
  3119  05FF  1283               	bcf	3,5	;RP0=0, select bank0
  3120  0600  1303               	bcf	3,6	;RP1=0, select bank0
  3121  0601  026C               	subwf	??_convert,w
  3122  0602  1D03               	skipz
  3123  0603  2E0A               	goto	u3965
  3124  0604  1683               	bsf	3,5	;RP0=1, select bank1
  3125  0605  1303               	bcf	3,6	;RP1=0, select bank1
  3126  0606  0822               	movf	convert@j^(0+128),w
  3127  0607  1283               	bcf	3,5	;RP0=0, select bank0
  3128  0608  1303               	bcf	3,6	;RP1=0, select bank0
  3129  0609  026A               	subwf	convert@place,w
  3130  060A                     u3965:
  3131  060A  1803               	skipnc
  3132  060B  2E0D               	goto	u3961
  3133  060C  2E0E               	goto	u3960
  3134  060D                     u3961:
  3135  060D  2DCF               	goto	l2873
  3136  060E                     u3960:
  3137  060E                     l2879:
  3138                           
  3139                           ;LCD.c: 110:     x = (a - (int) a) * mu;
  3140  060E  1683               	bsf	3,5	;RP0=1, select bank1
  3141  060F  1303               	bcf	3,6	;RP1=0, select bank1
  3142  0610  082D               	movf	convert@mu^(0+128),w
  3143  0611  1283               	bcf	3,5	;RP0=0, select bank0
  3144  0612  1303               	bcf	3,6	;RP1=0, select bank0
  3145  0613  00A4               	movwf	___xxtofl@val
  3146  0614  1683               	bsf	3,5	;RP0=1, select bank1
  3147  0615  1303               	bcf	3,6	;RP1=0, select bank1
  3148  0616  082E               	movf	(convert@mu+1)^(0+128),w
  3149  0617  1283               	bcf	3,5	;RP0=0, select bank0
  3150  0618  1303               	bcf	3,6	;RP1=0, select bank0
  3151  0619  00A5               	movwf	___xxtofl@val+1
  3152  061A  3000               	movlw	0
  3153  061B  1BA5               	btfsc	___xxtofl@val+1,7
  3154  061C  30FF               	movlw	255
  3155  061D  00A6               	movwf	___xxtofl@val+2
  3156  061E  00A7               	movwf	___xxtofl@val+3
  3157  061F  3001               	movlw	1
  3158  0620  160A  118A  2744  120A  118A  	fcall	___xxtofl
  3159  0625  1283               	bcf	3,5	;RP0=0, select bank0
  3160  0626  1303               	bcf	3,6	;RP1=0, select bank0
  3161  0627  0827               	movf	?___xxtofl+3,w
  3162  0628  00CF               	movwf	___flmul@b+3
  3163  0629  0826               	movf	?___xxtofl+2,w
  3164  062A  00CE               	movwf	___flmul@b+2
  3165  062B  0825               	movf	?___xxtofl+1,w
  3166  062C  00CD               	movwf	___flmul@b+1
  3167  062D  0824               	movf	?___xxtofl,w
  3168  062E  00CC               	movwf	___flmul@b
  3169  062F  0869               	movf	convert@a+3,w
  3170  0630  00F3               	movwf	___fltol@f1+3
  3171  0631  0868               	movf	convert@a+2,w
  3172  0632  00F2               	movwf	___fltol@f1+2
  3173  0633  0867               	movf	convert@a+1,w
  3174  0634  00F1               	movwf	___fltol@f1+1
  3175  0635  0866               	movf	convert@a,w
  3176  0636  00F0               	movwf	___fltol@f1
  3177  0637  120A  118A  2024  120A  118A  	fcall	___fltol
  3178  063C  0870               	movf	?___fltol,w
  3179  063D  1283               	bcf	3,5	;RP0=0, select bank0
  3180  063E  1303               	bcf	3,6	;RP1=0, select bank0
  3181  063F  00A4               	movwf	___xxtofl@val
  3182  0640  0871               	movf	?___fltol+1,w
  3183  0641  00A5               	movwf	___xxtofl@val+1
  3184  0642  3000               	movlw	0
  3185  0643  1BA5               	btfsc	___xxtofl@val+1,7
  3186  0644  30FF               	movlw	255
  3187  0645  00A6               	movwf	___xxtofl@val+2
  3188  0646  00A7               	movwf	___xxtofl@val+3
  3189  0647  3001               	movlw	1
  3190  0648  160A  118A  2744  120A  118A  	fcall	___xxtofl
  3191  064D  1283               	bcf	3,5	;RP0=0, select bank0
  3192  064E  1303               	bcf	3,6	;RP1=0, select bank0
  3193  064F  0827               	movf	?___xxtofl+3,w
  3194  0650  00B5               	movwf	___flsub@a+3
  3195  0651  0826               	movf	?___xxtofl+2,w
  3196  0652  00B4               	movwf	___flsub@a+2
  3197  0653  0825               	movf	?___xxtofl+1,w
  3198  0654  00B3               	movwf	___flsub@a+1
  3199  0655  0824               	movf	?___xxtofl,w
  3200  0656  00B2               	movwf	___flsub@a
  3201  0657  0869               	movf	convert@a+3,w
  3202  0658  00B9               	movwf	___flsub@b+3
  3203  0659  0868               	movf	convert@a+2,w
  3204  065A  00B8               	movwf	___flsub@b+2
  3205  065B  0867               	movf	convert@a+1,w
  3206  065C  00B7               	movwf	___flsub@b+1
  3207  065D  0866               	movf	convert@a,w
  3208  065E  00B6               	movwf	___flsub@b
  3209  065F  160A  118A  23F8  120A  118A  	fcall	___flsub
  3210  0664  1283               	bcf	3,5	;RP0=0, select bank0
  3211  0665  1303               	bcf	3,6	;RP1=0, select bank0
  3212  0666  0835               	movf	?___flsub+3,w
  3213  0667  00D3               	movwf	___flmul@a+3
  3214  0668  0834               	movf	?___flsub+2,w
  3215  0669  00D2               	movwf	___flmul@a+2
  3216  066A  0833               	movf	?___flsub+1,w
  3217  066B  00D1               	movwf	___flmul@a+1
  3218  066C  0832               	movf	?___flsub,w
  3219  066D  00D0               	movwf	___flmul@a
  3220  066E  120A  118A  209E  120A  118A  	fcall	___flmul
  3221  0673  1283               	bcf	3,5	;RP0=0, select bank0
  3222  0674  1303               	bcf	3,6	;RP1=0, select bank0
  3223  0675  084F               	movf	?___flmul+3,w
  3224  0676  1683               	bsf	3,5	;RP0=1, select bank1
  3225  0677  1303               	bcf	3,6	;RP1=0, select bank1
  3226  0678  00A8               	movwf	(convert@x+3)^(0+128)
  3227  0679  1283               	bcf	3,5	;RP0=0, select bank0
  3228  067A  1303               	bcf	3,6	;RP1=0, select bank0
  3229  067B  084E               	movf	?___flmul+2,w
  3230  067C  1683               	bsf	3,5	;RP0=1, select bank1
  3231  067D  1303               	bcf	3,6	;RP1=0, select bank1
  3232  067E  00A7               	movwf	(convert@x+2)^(0+128)
  3233  067F  1283               	bcf	3,5	;RP0=0, select bank0
  3234  0680  1303               	bcf	3,6	;RP1=0, select bank0
  3235  0681  084D               	movf	?___flmul+1,w
  3236  0682  1683               	bsf	3,5	;RP0=1, select bank1
  3237  0683  1303               	bcf	3,6	;RP1=0, select bank1
  3238  0684  00A6               	movwf	(convert@x+1)^(0+128)
  3239  0685  1283               	bcf	3,5	;RP0=0, select bank0
  3240  0686  1303               	bcf	3,6	;RP1=0, select bank0
  3241  0687  084C               	movf	?___flmul,w
  3242  0688  1683               	bsf	3,5	;RP0=1, select bank1
  3243  0689  1303               	bcf	3,6	;RP1=0, select bank1
  3244  068A  00A5               	movwf	convert@x^(0+128)
  3245  068B                     l2881:
  3246                           
  3247                           ;LCD.c: 111:     a = x;
  3248  068B  0828               	movf	(convert@x+3)^(0+128),w
  3249  068C  1283               	bcf	3,5	;RP0=0, select bank0
  3250  068D  1303               	bcf	3,6	;RP1=0, select bank0
  3251  068E  00E9               	movwf	convert@a+3
  3252  068F  1683               	bsf	3,5	;RP0=1, select bank1
  3253  0690  1303               	bcf	3,6	;RP1=0, select bank1
  3254  0691  0827               	movf	(convert@x+2)^(0+128),w
  3255  0692  1283               	bcf	3,5	;RP0=0, select bank0
  3256  0693  1303               	bcf	3,6	;RP1=0, select bank0
  3257  0694  00E8               	movwf	convert@a+2
  3258  0695  1683               	bsf	3,5	;RP0=1, select bank1
  3259  0696  1303               	bcf	3,6	;RP1=0, select bank1
  3260  0697  0826               	movf	(convert@x+1)^(0+128),w
  3261  0698  1283               	bcf	3,5	;RP0=0, select bank0
  3262  0699  1303               	bcf	3,6	;RP1=0, select bank0
  3263  069A  00E7               	movwf	convert@a+1
  3264  069B  1683               	bsf	3,5	;RP0=1, select bank1
  3265  069C  1303               	bcf	3,6	;RP1=0, select bank1
  3266  069D  0825               	movf	convert@x^(0+128),w
  3267  069E  1283               	bcf	3,5	;RP0=0, select bank0
  3268  069F  1303               	bcf	3,6	;RP1=0, select bank0
  3269  06A0  00E6               	movwf	convert@a
  3270  06A1                     l2883:
  3271  06A1  0869               	movf	convert@a+3,w
  3272  06A2  00F3               	movwf	___fltol@f1+3
  3273  06A3  0868               	movf	convert@a+2,w
  3274  06A4  00F2               	movwf	___fltol@f1+2
  3275  06A5  0867               	movf	convert@a+1,w
  3276  06A6  00F1               	movwf	___fltol@f1+1
  3277  06A7  0866               	movf	convert@a,w
  3278  06A8  00F0               	movwf	___fltol@f1
  3279  06A9  120A  118A  2024  120A  118A  	fcall	___fltol
  3280  06AE                     l2885:
  3281  06AE                     l2887:
  3282                           
  3283                           ;LCD.c: 114:     mu = 1;
  3284  06AE  3001               	movlw	1
  3285  06AF  1683               	bsf	3,5	;RP0=1, select bank1
  3286  06B0  1303               	bcf	3,6	;RP1=0, select bank1
  3287  06B1  00AD               	movwf	convert@mu^(0+128)
  3288  06B2  3000               	movlw	0
  3289  06B3  00AE               	movwf	(convert@mu^(0+128)+1)
  3290  06B4                     l2889:
  3291                           
  3292                           ;LCD.c: 115:     digits = place;
  3293  06B4  1283               	bcf	3,5	;RP0=0, select bank0
  3294  06B5  1303               	bcf	3,6	;RP1=0, select bank0
  3295  06B6  086B               	movf	convert@place+1,w
  3296  06B7  1683               	bsf	3,5	;RP0=1, select bank1
  3297  06B8  1303               	bcf	3,6	;RP1=0, select bank1
  3298  06B9  00AC               	movwf	(convert@digits+1)^(0+128)
  3299  06BA  1283               	bcf	3,5	;RP0=0, select bank0
  3300  06BB  1303               	bcf	3,6	;RP1=0, select bank0
  3301  06BC  086A               	movf	convert@place,w
  3302  06BD  1683               	bsf	3,5	;RP0=1, select bank1
  3303  06BE  1303               	bcf	3,6	;RP1=0, select bank1
  3304  06BF  00AB               	movwf	convert@digits^(0+128)
  3305                           
  3306                           ;LCD.c: 116:     while (digits != 0) {
  3307  06C0  2FDC               	goto	l2913
  3308  06C1                     l2891:
  3309                           
  3310                           ;LCD.c: 117:         if (digits == 1)mu = 1;
  3311  06C1  032B               	decf	convert@digits^(0+128),w
  3312  06C2  042C               	iorwf	(convert@digits+1)^(0+128),w
  3313  06C3  1D03               	btfss	3,2
  3314  06C4  2EC6               	goto	u3971
  3315  06C5  2EC7               	goto	u3970
  3316  06C6                     u3971:
  3317  06C6  2ECC               	goto	l2895
  3318  06C7                     u3970:
  3319  06C7                     l2893:
  3320  06C7  3001               	movlw	1
  3321  06C8  00AD               	movwf	convert@mu^(0+128)
  3322  06C9  3000               	movlw	0
  3323  06CA  00AE               	movwf	(convert@mu^(0+128)+1)
  3324  06CB  2F0E               	goto	l2903
  3325  06CC                     l2895:
  3326  06CC  3002               	movlw	2
  3327  06CD  00A2               	movwf	convert@j^(0+128)
  3328  06CE  3000               	movlw	0
  3329  06CF  00A3               	movwf	(convert@j^(0+128)+1)
  3330  06D0  2EF8               	goto	l2901
  3331  06D1                     l2897:
  3332  06D1  1683               	bsf	3,5	;RP0=1, select bank1
  3333  06D2  1303               	bcf	3,6	;RP1=0, select bank1
  3334  06D3  082E               	movf	(convert@mu+1)^(0+128),w
  3335  06D4  1283               	bcf	3,5	;RP0=0, select bank0
  3336  06D5  1303               	bcf	3,6	;RP1=0, select bank0
  3337  06D6  00A1               	movwf	___wmul@multiplier+1
  3338  06D7  1683               	bsf	3,5	;RP0=1, select bank1
  3339  06D8  1303               	bcf	3,6	;RP1=0, select bank1
  3340  06D9  082D               	movf	convert@mu^(0+128),w
  3341  06DA  1283               	bcf	3,5	;RP0=0, select bank0
  3342  06DB  1303               	bcf	3,6	;RP1=0, select bank0
  3343  06DC  00A0               	movwf	___wmul@multiplier
  3344  06DD  300A               	movlw	10
  3345  06DE  00A2               	movwf	___wmul@multiplicand
  3346  06DF  3000               	movlw	0
  3347  06E0  00A3               	movwf	___wmul@multiplicand+1
  3348  06E1  160A  118A  2443  120A  118A  	fcall	___wmul
  3349  06E6  1283               	bcf	3,5	;RP0=0, select bank0
  3350  06E7  1303               	bcf	3,6	;RP1=0, select bank0
  3351  06E8  0821               	movf	?___wmul+1,w
  3352  06E9  1683               	bsf	3,5	;RP0=1, select bank1
  3353  06EA  1303               	bcf	3,6	;RP1=0, select bank1
  3354  06EB  00AE               	movwf	(convert@mu+1)^(0+128)
  3355  06EC  1283               	bcf	3,5	;RP0=0, select bank0
  3356  06ED  1303               	bcf	3,6	;RP1=0, select bank0
  3357  06EE  0820               	movf	?___wmul,w
  3358  06EF  1683               	bsf	3,5	;RP0=1, select bank1
  3359  06F0  1303               	bcf	3,6	;RP1=0, select bank1
  3360  06F1  00AD               	movwf	convert@mu^(0+128)
  3361  06F2                     l2899:
  3362  06F2  3001               	movlw	1
  3363  06F3  07A2               	addwf	convert@j^(0+128),f
  3364  06F4  1803               	skipnc
  3365  06F5  0AA3               	incf	(convert@j+1)^(0+128),f
  3366  06F6  3000               	movlw	0
  3367  06F7  07A3               	addwf	(convert@j+1)^(0+128),f
  3368  06F8                     l2901:
  3369  06F8  082C               	movf	(convert@digits+1)^(0+128),w
  3370  06F9  3A80               	xorlw	128
  3371  06FA  1283               	bcf	3,5	;RP0=0, select bank0
  3372  06FB  1303               	bcf	3,6	;RP1=0, select bank0
  3373  06FC  00EC               	movwf	??_convert
  3374  06FD  1683               	bsf	3,5	;RP0=1, select bank1
  3375  06FE  1303               	bcf	3,6	;RP1=0, select bank1
  3376  06FF  0823               	movf	(convert@j+1)^(0+128),w
  3377  0700  3A80               	xorlw	128
  3378  0701  1283               	bcf	3,5	;RP0=0, select bank0
  3379  0702  1303               	bcf	3,6	;RP1=0, select bank0
  3380  0703  026C               	subwf	??_convert,w
  3381  0704  1D03               	skipz
  3382  0705  2F0A               	goto	u3985
  3383  0706  1683               	bsf	3,5	;RP0=1, select bank1
  3384  0707  1303               	bcf	3,6	;RP1=0, select bank1
  3385  0708  0822               	movf	convert@j^(0+128),w
  3386  0709  022B               	subwf	convert@digits^(0+128),w
  3387  070A                     u3985:
  3388  070A  1803               	skipnc
  3389  070B  2F0D               	goto	u3981
  3390  070C  2F0E               	goto	u3980
  3391  070D                     u3981:
  3392  070D  2ED1               	goto	l2897
  3393  070E                     u3980:
  3394  070E                     l2903:
  3395                           
  3396                           ;LCD.c: 120:         x = a / mu;
  3397  070E  1683               	bsf	3,5	;RP0=1, select bank1
  3398  070F  1303               	bcf	3,6	;RP1=0, select bank1
  3399  0710  082D               	movf	convert@mu^(0+128),w
  3400  0711  1283               	bcf	3,5	;RP0=0, select bank0
  3401  0712  1303               	bcf	3,6	;RP1=0, select bank0
  3402  0713  00A4               	movwf	___xxtofl@val
  3403  0714  1683               	bsf	3,5	;RP0=1, select bank1
  3404  0715  1303               	bcf	3,6	;RP1=0, select bank1
  3405  0716  082E               	movf	(convert@mu+1)^(0+128),w
  3406  0717  1283               	bcf	3,5	;RP0=0, select bank0
  3407  0718  1303               	bcf	3,6	;RP1=0, select bank0
  3408  0719  00A5               	movwf	___xxtofl@val+1
  3409  071A  3000               	movlw	0
  3410  071B  1BA5               	btfsc	___xxtofl@val+1,7
  3411  071C  30FF               	movlw	255
  3412  071D  00A6               	movwf	___xxtofl@val+2
  3413  071E  00A7               	movwf	___xxtofl@val+3
  3414  071F  3001               	movlw	1
  3415  0720  160A  118A  2744  120A  118A  	fcall	___xxtofl
  3416  0725  1283               	bcf	3,5	;RP0=0, select bank0
  3417  0726  1303               	bcf	3,6	;RP1=0, select bank0
  3418  0727  0827               	movf	?___xxtofl+3,w
  3419  0728  00B5               	movwf	___fldiv@a+3
  3420  0729  0826               	movf	?___xxtofl+2,w
  3421  072A  00B4               	movwf	___fldiv@a+2
  3422  072B  0825               	movf	?___xxtofl+1,w
  3423  072C  00B3               	movwf	___fldiv@a+1
  3424  072D  0824               	movf	?___xxtofl,w
  3425  072E  00B2               	movwf	___fldiv@a
  3426  072F  0869               	movf	convert@a+3,w
  3427  0730  00B9               	movwf	___fldiv@b+3
  3428  0731  0868               	movf	convert@a+2,w
  3429  0732  00B8               	movwf	___fldiv@b+2
  3430  0733  0867               	movf	convert@a+1,w
  3431  0734  00B7               	movwf	___fldiv@b+1
  3432  0735  0866               	movf	convert@a,w
  3433  0736  00B6               	movwf	___fldiv@b
  3434  0737  120A  158A  2091  120A  118A  	fcall	___fldiv
  3435  073C  1283               	bcf	3,5	;RP0=0, select bank0
  3436  073D  1303               	bcf	3,6	;RP1=0, select bank0
  3437  073E  0835               	movf	?___fldiv+3,w
  3438  073F  1683               	bsf	3,5	;RP0=1, select bank1
  3439  0740  1303               	bcf	3,6	;RP1=0, select bank1
  3440  0741  00A8               	movwf	(convert@x+3)^(0+128)
  3441  0742  1283               	bcf	3,5	;RP0=0, select bank0
  3442  0743  1303               	bcf	3,6	;RP1=0, select bank0
  3443  0744  0834               	movf	?___fldiv+2,w
  3444  0745  1683               	bsf	3,5	;RP0=1, select bank1
  3445  0746  1303               	bcf	3,6	;RP1=0, select bank1
  3446  0747  00A7               	movwf	(convert@x+2)^(0+128)
  3447  0748  1283               	bcf	3,5	;RP0=0, select bank0
  3448  0749  1303               	bcf	3,6	;RP1=0, select bank0
  3449  074A  0833               	movf	?___fldiv+1,w
  3450  074B  1683               	bsf	3,5	;RP0=1, select bank1
  3451  074C  1303               	bcf	3,6	;RP1=0, select bank1
  3452  074D  00A6               	movwf	(convert@x+1)^(0+128)
  3453  074E  1283               	bcf	3,5	;RP0=0, select bank0
  3454  074F  1303               	bcf	3,6	;RP1=0, select bank0
  3455  0750  0832               	movf	?___fldiv,w
  3456  0751  1683               	bsf	3,5	;RP0=1, select bank1
  3457  0752  1303               	bcf	3,6	;RP1=0, select bank1
  3458  0753  00A5               	movwf	convert@x^(0+128)
  3459                           
  3460                           ;LCD.c: 121:         a = a - ((int) x * mu);
  3461  0754  082E               	movf	(convert@mu+1)^(0+128),w
  3462  0755  1283               	bcf	3,5	;RP0=0, select bank0
  3463  0756  1303               	bcf	3,6	;RP1=0, select bank0
  3464  0757  00A3               	movwf	___wmul@multiplicand+1
  3465  0758  1683               	bsf	3,5	;RP0=1, select bank1
  3466  0759  1303               	bcf	3,6	;RP1=0, select bank1
  3467  075A  082D               	movf	convert@mu^(0+128),w
  3468  075B  1283               	bcf	3,5	;RP0=0, select bank0
  3469  075C  1303               	bcf	3,6	;RP1=0, select bank0
  3470  075D  00A2               	movwf	___wmul@multiplicand
  3471  075E  1683               	bsf	3,5	;RP0=1, select bank1
  3472  075F  1303               	bcf	3,6	;RP1=0, select bank1
  3473  0760  0828               	movf	(convert@x+3)^(0+128),w
  3474  0761  00F3               	movwf	___fltol@f1+3
  3475  0762  0827               	movf	(convert@x+2)^(0+128),w
  3476  0763  00F2               	movwf	___fltol@f1+2
  3477  0764  0826               	movf	(convert@x+1)^(0+128),w
  3478  0765  00F1               	movwf	___fltol@f1+1
  3479  0766  0825               	movf	convert@x^(0+128),w
  3480  0767  00F0               	movwf	___fltol@f1
  3481  0768  120A  118A  2024  120A  118A  	fcall	___fltol
  3482  076D  0871               	movf	?___fltol+1,w
  3483  076E  1283               	bcf	3,5	;RP0=0, select bank0
  3484  076F  1303               	bcf	3,6	;RP1=0, select bank0
  3485  0770  00A1               	movwf	___wmul@multiplier+1
  3486  0771  0870               	movf	?___fltol,w
  3487  0772  00A0               	movwf	___wmul@multiplier
  3488  0773  160A  118A  2443  120A  118A  	fcall	___wmul
  3489  0778  1283               	bcf	3,5	;RP0=0, select bank0
  3490  0779  1303               	bcf	3,6	;RP1=0, select bank0
  3491  077A  0820               	movf	?___wmul,w
  3492  077B  00A4               	movwf	___xxtofl@val
  3493  077C  0821               	movf	?___wmul+1,w
  3494  077D  00A5               	movwf	___xxtofl@val+1
  3495  077E  3000               	movlw	0
  3496  077F  1BA5               	btfsc	___xxtofl@val+1,7
  3497  0780  30FF               	movlw	255
  3498  0781  00A6               	movwf	___xxtofl@val+2
  3499  0782  00A7               	movwf	___xxtofl@val+3
  3500  0783  3001               	movlw	1
  3501  0784  160A  118A  2744  120A  118A  	fcall	___xxtofl
  3502  0789  1283               	bcf	3,5	;RP0=0, select bank0
  3503  078A  1303               	bcf	3,6	;RP1=0, select bank0
  3504  078B  0827               	movf	?___xxtofl+3,w
  3505  078C  00B5               	movwf	___flsub@a+3
  3506  078D  0826               	movf	?___xxtofl+2,w
  3507  078E  00B4               	movwf	___flsub@a+2
  3508  078F  0825               	movf	?___xxtofl+1,w
  3509  0790  00B3               	movwf	___flsub@a+1
  3510  0791  0824               	movf	?___xxtofl,w
  3511  0792  00B2               	movwf	___flsub@a
  3512  0793  0869               	movf	convert@a+3,w
  3513  0794  00B9               	movwf	___flsub@b+3
  3514  0795  0868               	movf	convert@a+2,w
  3515  0796  00B8               	movwf	___flsub@b+2
  3516  0797  0867               	movf	convert@a+1,w
  3517  0798  00B7               	movwf	___flsub@b+1
  3518  0799  0866               	movf	convert@a,w
  3519  079A  00B6               	movwf	___flsub@b
  3520  079B  160A  118A  23F8  120A  118A  	fcall	___flsub
  3521  07A0  1283               	bcf	3,5	;RP0=0, select bank0
  3522  07A1  1303               	bcf	3,6	;RP1=0, select bank0
  3523  07A2  0835               	movf	?___flsub+3,w
  3524  07A3  00E9               	movwf	convert@a+3
  3525  07A4  0834               	movf	?___flsub+2,w
  3526  07A5  00E8               	movwf	convert@a+2
  3527  07A6  0833               	movf	?___flsub+1,w
  3528  07A7  00E7               	movwf	convert@a+1
  3529  07A8  0832               	movf	?___flsub,w
  3530  07A9  00E6               	movwf	convert@a
  3531  07AA                     l2905:
  3532                           
  3533                           ;LCD.c: 122:         data[i] = 0x30 + ((int) x);
  3534  07AA  1683               	bsf	3,5	;RP0=1, select bank1
  3535  07AB  1303               	bcf	3,6	;RP1=0, select bank1
  3536  07AC  0828               	movf	(convert@x+3)^(0+128),w
  3537  07AD  00F3               	movwf	___fltol@f1+3
  3538  07AE  0827               	movf	(convert@x+2)^(0+128),w
  3539  07AF  00F2               	movwf	___fltol@f1+2
  3540  07B0  0826               	movf	(convert@x+1)^(0+128),w
  3541  07B1  00F1               	movwf	___fltol@f1+1
  3542  07B2  0825               	movf	convert@x^(0+128),w
  3543  07B3  00F0               	movwf	___fltol@f1
  3544  07B4  120A  118A  2024  120A  118A  	fcall	___fltol
  3545  07B9  0870               	movf	?___fltol,w
  3546  07BA  3E30               	addlw	48
  3547  07BB  1283               	bcf	3,5	;RP0=0, select bank0
  3548  07BC  1303               	bcf	3,6	;RP1=0, select bank0
  3549  07BD  00EC               	movwf	??_convert
  3550  07BE  1683               	bsf	3,5	;RP0=1, select bank1
  3551  07BF  1303               	bcf	3,6	;RP1=0, select bank1
  3552  07C0  0829               	movf	convert@i^(0+128),w
  3553  07C1  0724               	addwf	convert@data^(0+128),w
  3554  07C2  1283               	bcf	3,5	;RP0=0, select bank0
  3555  07C3  1303               	bcf	3,6	;RP1=0, select bank0
  3556  07C4  00ED               	movwf	??_convert+1
  3557  07C5  086D               	movf	??_convert+1,w
  3558  07C6  0084               	movwf	4
  3559  07C7  086C               	movf	??_convert,w
  3560  07C8  1383               	bcf	3,7	;select IRP bank0
  3561  07C9  0080               	movwf	0
  3562  07CA                     l2907:
  3563                           
  3564                           ;LCD.c: 123:         i++;
  3565  07CA  3001               	movlw	1
  3566  07CB  1683               	bsf	3,5	;RP0=1, select bank1
  3567  07CC  1303               	bcf	3,6	;RP1=0, select bank1
  3568  07CD  07A9               	addwf	convert@i^(0+128),f
  3569  07CE  1803               	skipnc
  3570  07CF  0AAA               	incf	(convert@i+1)^(0+128),f
  3571  07D0  3000               	movlw	0
  3572  07D1  07AA               	addwf	(convert@i+1)^(0+128),f
  3573  07D2                     l2909:
  3574                           
  3575                           ;LCD.c: 124:         digits--;
  3576  07D2  30FF               	movlw	255
  3577  07D3  07AB               	addwf	convert@digits^(0+128),f
  3578  07D4  1803               	skipnc
  3579  07D5  0AAC               	incf	(convert@digits+1)^(0+128),f
  3580  07D6  30FF               	movlw	255
  3581  07D7  07AC               	addwf	(convert@digits+1)^(0+128),f
  3582  07D8                     l2911:
  3583                           
  3584                           ;LCD.c: 125:         mu = 1;
  3585  07D8  3001               	movlw	1
  3586  07D9  00AD               	movwf	convert@mu^(0+128)
  3587  07DA  3000               	movlw	0
  3588  07DB  00AE               	movwf	(convert@mu^(0+128)+1)
  3589  07DC                     l2913:
  3590                           
  3591                           ;LCD.c: 116:     while (digits != 0) {
  3592  07DC  082B               	movf	convert@digits^(0+128),w
  3593  07DD  042C               	iorwf	(convert@digits+1)^(0+128),w
  3594  07DE  1D03               	btfss	3,2
  3595  07DF  2FE1               	goto	u3991
  3596  07E0  2FE2               	goto	u3990
  3597  07E1                     u3991:
  3598  07E1  2EC1               	goto	l2891
  3599  07E2                     u3990:
  3600  07E2                     l2915:
  3601                           
  3602                           ;LCD.c: 128:     data[i] = '\n';
  3603  07E2  300A               	movlw	10
  3604  07E3  1283               	bcf	3,5	;RP0=0, select bank0
  3605  07E4  1303               	bcf	3,6	;RP1=0, select bank0
  3606  07E5  00EC               	movwf	??_convert
  3607  07E6  1683               	bsf	3,5	;RP0=1, select bank1
  3608  07E7  1303               	bcf	3,6	;RP1=0, select bank1
  3609  07E8  0829               	movf	convert@i^(0+128),w
  3610  07E9  0724               	addwf	convert@data^(0+128),w
  3611  07EA  1283               	bcf	3,5	;RP0=0, select bank0
  3612  07EB  1303               	bcf	3,6	;RP1=0, select bank0
  3613  07EC  00ED               	movwf	??_convert+1
  3614  07ED  086D               	movf	??_convert+1,w
  3615  07EE  0084               	movwf	4
  3616  07EF  086C               	movf	??_convert,w
  3617  07F0  1383               	bcf	3,7	;select IRP bank0
  3618  07F1  0080               	movwf	0
  3619  07F2                     l168:
  3620  07F2  0008               	return
  3621  07F3                     __end_of_convert:
  3622                           
  3623                           	psect	text9
  3624  1744                     __ptext9:	
  3625 ;; *************** function ___xxtofl *****************
  3626 ;; Defined at:
  3627 ;;		line 10 in file "C:\Program Files\Microchip\xc8\v2.31\pic\sources\c90\common\xxtofl.c"
  3628 ;; Parameters:    Size  Location     Type
  3629 ;;  sign            1    wreg     unsigned char 
  3630 ;;  val             4    4[BANK0 ] long 
  3631 ;; Auto vars:     Size  Location     Type
  3632 ;;  sign            1   12[BANK0 ] unsigned char 
  3633 ;;  arg             4   14[BANK0 ] unsigned long 
  3634 ;;  exp             1   13[BANK0 ] unsigned char 
  3635 ;; Return value:  Size  Location     Type
  3636 ;;                  4    4[BANK0 ] unsigned char 
  3637 ;; Registers used:
  3638 ;;		wreg, status,2, status,0
  3639 ;; Tracked objects:
  3640 ;;		On entry : 0/0
  3641 ;;		On exit  : 0/0
  3642 ;;		Unchanged: 0/0
  3643 ;; Data sizes:     COMMON   BANK0   BANK1   BANK3   BANK2
  3644 ;;      Params:         0       4       0       0       0
  3645 ;;      Locals:         0       6       0       0       0
  3646 ;;      Temps:          0       4       0       0       0
  3647 ;;      Totals:         0      14       0       0       0
  3648 ;;Total ram usage:       14 bytes
  3649 ;; Hardware stack levels used:    1
  3650 ;; This function calls:
  3651 ;;		Nothing
  3652 ;; This function is called by:
  3653 ;;		_main
  3654 ;;		_convert
  3655 ;; This function uses a non-reentrant model
  3656 ;;
  3657                           
  3658                           
  3659                           ;psect for function ___xxtofl
  3660  1744                     ___xxtofl:
  3661                           
  3662                           ;incstack = 0
  3663                           ; Regs used in ___xxtofl: [wreg+status,2+status,0]
  3664                           ;___xxtofl@sign stored from wreg
  3665  1744  1283               	bcf	3,5	;RP0=0, select bank0
  3666  1745  1303               	bcf	3,6	;RP1=0, select bank0
  3667  1746  00AC               	movwf	___xxtofl@sign
  3668  1747                     l2691:
  3669  1747  082C               	movf	___xxtofl@sign,w
  3670  1748  1903               	btfsc	3,2
  3671  1749  2F4B               	goto	u3701
  3672  174A  2F4C               	goto	u3700
  3673  174B                     u3701:
  3674  174B  2F60               	goto	l2697
  3675  174C                     u3700:
  3676  174C                     l2693:
  3677  174C  1FA7               	btfss	___xxtofl@val+3,7
  3678  174D  2F4F               	goto	u3711
  3679  174E  2F50               	goto	u3710
  3680  174F                     u3711:
  3681  174F  2F60               	goto	l2697
  3682  1750                     u3710:
  3683  1750                     l2695:
  3684  1750  0924               	comf	___xxtofl@val,w
  3685  1751  00AE               	movwf	___xxtofl@arg
  3686  1752  0925               	comf	___xxtofl@val+1,w
  3687  1753  00AF               	movwf	___xxtofl@arg+1
  3688  1754  0926               	comf	___xxtofl@val+2,w
  3689  1755  00B0               	movwf	___xxtofl@arg+2
  3690  1756  0927               	comf	___xxtofl@val+3,w
  3691  1757  00B1               	movwf	___xxtofl@arg+3
  3692  1758  0AAE               	incf	___xxtofl@arg,f
  3693  1759  1903               	skipnz
  3694  175A  0AAF               	incf	___xxtofl@arg+1,f
  3695  175B  1903               	skipnz
  3696  175C  0AB0               	incf	___xxtofl@arg+2,f
  3697  175D  1903               	skipnz
  3698  175E  0AB1               	incf	___xxtofl@arg+3,f
  3699  175F  2F68               	goto	l738
  3700  1760                     l2697:
  3701  1760  0827               	movf	___xxtofl@val+3,w
  3702  1761  00B1               	movwf	___xxtofl@arg+3
  3703  1762  0826               	movf	___xxtofl@val+2,w
  3704  1763  00B0               	movwf	___xxtofl@arg+2
  3705  1764  0825               	movf	___xxtofl@val+1,w
  3706  1765  00AF               	movwf	___xxtofl@arg+1
  3707  1766  0824               	movf	___xxtofl@val,w
  3708  1767  00AE               	movwf	___xxtofl@arg
  3709  1768                     l738:
  3710  1768  0827               	movf	___xxtofl@val+3,w
  3711  1769  0426               	iorwf	___xxtofl@val+2,w
  3712  176A  0425               	iorwf	___xxtofl@val+1,w
  3713  176B  0424               	iorwf	___xxtofl@val,w
  3714  176C  1D03               	skipz
  3715  176D  2F6F               	goto	u3721
  3716  176E  2F70               	goto	u3720
  3717  176F                     u3721:
  3718  176F  2F79               	goto	l2703
  3719  1770                     u3720:
  3720  1770                     l2699:
  3721  1770  3000               	movlw	0
  3722  1771  00A7               	movwf	?___xxtofl+3
  3723  1772  3000               	movlw	0
  3724  1773  00A6               	movwf	?___xxtofl+2
  3725  1774  3000               	movlw	0
  3726  1775  00A5               	movwf	?___xxtofl+1
  3727  1776  3000               	movlw	0
  3728  1777  00A4               	movwf	?___xxtofl
  3729  1778  2FFF               	goto	l740
  3730  1779                     l2703:
  3731  1779  3096               	movlw	150
  3732  177A  00A8               	movwf	??___xxtofl
  3733  177B  0828               	movf	??___xxtofl,w
  3734  177C  00AD               	movwf	___xxtofl@exp
  3735  177D  2F8B               	goto	l2707
  3736  177E                     l2705:
  3737  177E  3001               	movlw	1
  3738  177F  00A8               	movwf	??___xxtofl
  3739  1780  0828               	movf	??___xxtofl,w
  3740  1781  07AD               	addwf	___xxtofl@exp,f
  3741  1782  3001               	movlw	1
  3742  1783                     u3735:
  3743  1783  1003               	clrc
  3744  1784  0CB1               	rrf	___xxtofl@arg+3,f
  3745  1785  0CB0               	rrf	___xxtofl@arg+2,f
  3746  1786  0CAF               	rrf	___xxtofl@arg+1,f
  3747  1787  0CAE               	rrf	___xxtofl@arg,f
  3748  1788  3EFF               	addlw	-1
  3749  1789  1D03               	skipz
  3750  178A  2F83               	goto	u3735
  3751  178B                     l2707:
  3752  178B  30FE               	movlw	254
  3753  178C  0531               	andwf	___xxtofl@arg+3,w
  3754  178D  1D03               	btfss	3,2
  3755  178E  2F90               	goto	u3741
  3756  178F  2F91               	goto	u3740
  3757  1790                     u3741:
  3758  1790  2F7E               	goto	l2705
  3759  1791                     u3740:
  3760  1791  2FAD               	goto	l744
  3761  1792                     l2709:
  3762  1792  3001               	movlw	1
  3763  1793  00A8               	movwf	??___xxtofl
  3764  1794  0828               	movf	??___xxtofl,w
  3765  1795  07AD               	addwf	___xxtofl@exp,f
  3766  1796                     l2711:
  3767  1796  3001               	movlw	1
  3768  1797  07AE               	addwf	___xxtofl@arg,f
  3769  1798  3000               	movlw	0
  3770  1799  1803               	skipnc
  3771  179A  3001               	movlw	1
  3772  179B  07AF               	addwf	___xxtofl@arg+1,f
  3773  179C  3000               	movlw	0
  3774  179D  1803               	skipnc
  3775  179E  3001               	movlw	1
  3776  179F  07B0               	addwf	___xxtofl@arg+2,f
  3777  17A0  3000               	movlw	0
  3778  17A1  1803               	skipnc
  3779  17A2  3001               	movlw	1
  3780  17A3  07B1               	addwf	___xxtofl@arg+3,f
  3781  17A4                     l2713:
  3782  17A4  3001               	movlw	1
  3783  17A5                     u3755:
  3784  17A5  1003               	clrc
  3785  17A6  0CB1               	rrf	___xxtofl@arg+3,f
  3786  17A7  0CB0               	rrf	___xxtofl@arg+2,f
  3787  17A8  0CAF               	rrf	___xxtofl@arg+1,f
  3788  17A9  0CAE               	rrf	___xxtofl@arg,f
  3789  17AA  3EFF               	addlw	-1
  3790  17AB  1D03               	skipz
  3791  17AC  2FA5               	goto	u3755
  3792  17AD                     l744:
  3793  17AD  30FF               	movlw	255
  3794  17AE  0531               	andwf	___xxtofl@arg+3,w
  3795  17AF  1D03               	btfss	3,2
  3796  17B0  2FB2               	goto	u3761
  3797  17B1  2FB3               	goto	u3760
  3798  17B2                     u3761:
  3799  17B2  2F92               	goto	l2709
  3800  17B3                     u3760:
  3801  17B3  2FBF               	goto	l2717
  3802  17B4                     l2715:
  3803  17B4  3001               	movlw	1
  3804  17B5  02AD               	subwf	___xxtofl@exp,f
  3805  17B6  3001               	movlw	1
  3806  17B7  00A8               	movwf	??___xxtofl
  3807  17B8                     u3775:
  3808  17B8  1003               	clrc
  3809  17B9  0DAE               	rlf	___xxtofl@arg,f
  3810  17BA  0DAF               	rlf	___xxtofl@arg+1,f
  3811  17BB  0DB0               	rlf	___xxtofl@arg+2,f
  3812  17BC  0DB1               	rlf	___xxtofl@arg+3,f
  3813  17BD  0BA8               	decfsz	??___xxtofl,f
  3814  17BE  2FB8               	goto	u3775
  3815  17BF                     l2717:
  3816  17BF  1BB0               	btfsc	___xxtofl@arg+2,7
  3817  17C0  2FC2               	goto	u3781
  3818  17C1  2FC3               	goto	u3780
  3819  17C2                     u3781:
  3820  17C2  2FC9               	goto	l751
  3821  17C3                     u3780:
  3822  17C3                     l2719:
  3823  17C3  3002               	movlw	2
  3824  17C4  022D               	subwf	___xxtofl@exp,w
  3825  17C5  1803               	skipnc
  3826  17C6  2FC8               	goto	u3791
  3827  17C7  2FC9               	goto	u3790
  3828  17C8                     u3791:
  3829  17C8  2FB4               	goto	l2715
  3830  17C9                     u3790:
  3831  17C9                     l751:
  3832  17C9  182D               	btfsc	___xxtofl@exp,0
  3833  17CA  2FCC               	goto	u3801
  3834  17CB  2FCD               	goto	u3800
  3835  17CC                     u3801:
  3836  17CC  2FD5               	goto	l752
  3837  17CD                     u3800:
  3838  17CD                     l2721:
  3839  17CD  30FF               	movlw	255
  3840  17CE  05AE               	andwf	___xxtofl@arg,f
  3841  17CF  30FF               	movlw	255
  3842  17D0  05AF               	andwf	___xxtofl@arg+1,f
  3843  17D1  307F               	movlw	127
  3844  17D2  05B0               	andwf	___xxtofl@arg+2,f
  3845  17D3  30FF               	movlw	255
  3846  17D4  05B1               	andwf	___xxtofl@arg+3,f
  3847  17D5                     l752:
  3848  17D5  1003               	clrc
  3849  17D6  0CAD               	rrf	___xxtofl@exp,f
  3850  17D7                     l2723:
  3851  17D7  082D               	movf	___xxtofl@exp,w
  3852  17D8  00A8               	movwf	??___xxtofl
  3853  17D9  01A9               	clrf	??___xxtofl+1
  3854  17DA  01AA               	clrf	??___xxtofl+2
  3855  17DB  01AB               	clrf	??___xxtofl+3
  3856  17DC  3018               	movlw	24
  3857  17DD                     u3815:
  3858  17DD  1003               	clrc
  3859  17DE  0DA8               	rlf	??___xxtofl,f
  3860  17DF  0DA9               	rlf	??___xxtofl+1,f
  3861  17E0  0DAA               	rlf	??___xxtofl+2,f
  3862  17E1  0DAB               	rlf	??___xxtofl+3,f
  3863  17E2                     u3810:
  3864  17E2  3EFF               	addlw	-1
  3865  17E3  1D03               	skipz
  3866  17E4  2FDD               	goto	u3815
  3867  17E5  0828               	movf	??___xxtofl,w
  3868  17E6  04AE               	iorwf	___xxtofl@arg,f
  3869  17E7  0829               	movf	??___xxtofl+1,w
  3870  17E8  04AF               	iorwf	___xxtofl@arg+1,f
  3871  17E9  082A               	movf	??___xxtofl+2,w
  3872  17EA  04B0               	iorwf	___xxtofl@arg+2,f
  3873  17EB  082B               	movf	??___xxtofl+3,w
  3874  17EC  04B1               	iorwf	___xxtofl@arg+3,f
  3875  17ED                     l2725:
  3876  17ED  082C               	movf	___xxtofl@sign,w
  3877  17EE  1903               	btfsc	3,2
  3878  17EF  2FF1               	goto	u3821
  3879  17F0  2FF2               	goto	u3820
  3880  17F1                     u3821:
  3881  17F1  2FF7               	goto	l2731
  3882  17F2                     u3820:
  3883  17F2                     l2727:
  3884  17F2  1FA7               	btfss	___xxtofl@val+3,7
  3885  17F3  2FF5               	goto	u3831
  3886  17F4  2FF6               	goto	u3830
  3887  17F5                     u3831:
  3888  17F5  2FF7               	goto	l2731
  3889  17F6                     u3830:
  3890  17F6                     l2729:
  3891  17F6  17B1               	bsf	___xxtofl@arg+3,7
  3892  17F7                     l2731:
  3893  17F7  0831               	movf	___xxtofl@arg+3,w
  3894  17F8  00A7               	movwf	?___xxtofl+3
  3895  17F9  0830               	movf	___xxtofl@arg+2,w
  3896  17FA  00A6               	movwf	?___xxtofl+2
  3897  17FB  082F               	movf	___xxtofl@arg+1,w
  3898  17FC  00A5               	movwf	?___xxtofl+1
  3899  17FD  082E               	movf	___xxtofl@arg,w
  3900  17FE  00A4               	movwf	?___xxtofl
  3901  17FF                     l740:
  3902  17FF  0008               	return
  3903  1800                     __end_of___xxtofl:
  3904                           
  3905                           	psect	text10
  3906  1443                     __ptext10:	
  3907 ;; *************** function ___wmul *****************
  3908 ;; Defined at:
  3909 ;;		line 15 in file "C:\Program Files\Microchip\xc8\v2.31\pic\sources\c90\common\Umul16.c"
  3910 ;; Parameters:    Size  Location     Type
  3911 ;;  multiplier      2    0[BANK0 ] unsigned int 
  3912 ;;  multiplicand    2    2[BANK0 ] unsigned int 
  3913 ;; Auto vars:     Size  Location     Type
  3914 ;;  product         2   11[COMMON] unsigned int 
  3915 ;; Return value:  Size  Location     Type
  3916 ;;                  2    0[BANK0 ] unsigned int 
  3917 ;; Registers used:
  3918 ;;		wreg, status,2, status,0
  3919 ;; Tracked objects:
  3920 ;;		On entry : 0/0
  3921 ;;		On exit  : 0/0
  3922 ;;		Unchanged: 0/0
  3923 ;; Data sizes:     COMMON   BANK0   BANK1   BANK3   BANK2
  3924 ;;      Params:         0       4       0       0       0
  3925 ;;      Locals:         2       0       0       0       0
  3926 ;;      Temps:          0       0       0       0       0
  3927 ;;      Totals:         2       4       0       0       0
  3928 ;;Total ram usage:        6 bytes
  3929 ;; Hardware stack levels used:    1
  3930 ;; This function calls:
  3931 ;;		Nothing
  3932 ;; This function is called by:
  3933 ;;		_convert
  3934 ;; This function uses a non-reentrant model
  3935 ;;
  3936                           
  3937                           
  3938                           ;psect for function ___wmul
  3939  1443                     ___wmul:
  3940  1443                     l2213:	
  3941                           ;incstack = 0
  3942                           ; Regs used in ___wmul: [wreg+status,2+status,0]
  3943                           
  3944  1443  01FB               	clrf	___wmul@product
  3945  1444  01FC               	clrf	___wmul@product+1
  3946  1445                     l2215:
  3947  1445  1283               	bcf	3,5	;RP0=0, select bank0
  3948  1446  1303               	bcf	3,6	;RP1=0, select bank0
  3949  1447  1C20               	btfss	___wmul@multiplier,0
  3950  1448  2C4A               	goto	u2551
  3951  1449  2C4B               	goto	u2550
  3952  144A                     u2551:
  3953  144A  2C51               	goto	l305
  3954  144B                     u2550:
  3955  144B                     l2217:
  3956  144B  0822               	movf	___wmul@multiplicand,w
  3957  144C  07FB               	addwf	___wmul@product,f
  3958  144D  1803               	skipnc
  3959  144E  0AFC               	incf	___wmul@product+1,f
  3960  144F  0823               	movf	___wmul@multiplicand+1,w
  3961  1450  07FC               	addwf	___wmul@product+1,f
  3962  1451                     l305:
  3963  1451  3001               	movlw	1
  3964  1452                     u2565:
  3965  1452  1003               	clrc
  3966  1453  0DA2               	rlf	___wmul@multiplicand,f
  3967  1454  0DA3               	rlf	___wmul@multiplicand+1,f
  3968  1455  3EFF               	addlw	-1
  3969  1456  1D03               	skipz
  3970  1457  2C52               	goto	u2565
  3971  1458                     l2219:
  3972  1458  3001               	movlw	1
  3973  1459                     u2575:
  3974  1459  1003               	clrc
  3975  145A  0CA1               	rrf	___wmul@multiplier+1,f
  3976  145B  0CA0               	rrf	___wmul@multiplier,f
  3977  145C  3EFF               	addlw	-1
  3978  145D  1D03               	skipz
  3979  145E  2C59               	goto	u2575
  3980  145F                     l2221:
  3981  145F  0820               	movf	___wmul@multiplier,w
  3982  1460  0421               	iorwf	___wmul@multiplier+1,w
  3983  1461  1D03               	btfss	3,2
  3984  1462  2C64               	goto	u2581
  3985  1463  2C65               	goto	u2580
  3986  1464                     u2581:
  3987  1464  2C45               	goto	l2215
  3988  1465                     u2580:
  3989  1465                     l2223:
  3990  1465  087C               	movf	___wmul@product+1,w
  3991  1466  00A1               	movwf	?___wmul+1
  3992  1467  087B               	movf	___wmul@product,w
  3993  1468  00A0               	movwf	?___wmul
  3994  1469                     l307:
  3995  1469  0008               	return
  3996  146A                     __end_of___wmul:
  3997                           
  3998                           	psect	text11
  3999  0024                     __ptext11:	
  4000 ;; *************** function ___fltol *****************
  4001 ;; Defined at:
  4002 ;;		line 43 in file "C:\Program Files\Microchip\xc8\v2.31\pic\sources\c90\common\fltol.c"
  4003 ;; Parameters:    Size  Location     Type
  4004 ;;  f1              4    0[COMMON] unsigned int 
  4005 ;; Auto vars:     Size  Location     Type
  4006 ;;  exp1            1   10[COMMON] unsigned char 
  4007 ;;  sign1           1    9[COMMON] unsigned char 
  4008 ;; Return value:  Size  Location     Type
  4009 ;;                  4    0[COMMON] long 
  4010 ;; Registers used:
  4011 ;;		wreg, status,2, status,0
  4012 ;; Tracked objects:
  4013 ;;		On entry : 0/0
  4014 ;;		On exit  : 0/0
  4015 ;;		Unchanged: 0/0
  4016 ;; Data sizes:     COMMON   BANK0   BANK1   BANK3   BANK2
  4017 ;;      Params:         4       0       0       0       0
  4018 ;;      Locals:         2       0       0       0       0
  4019 ;;      Temps:          5       0       0       0       0
  4020 ;;      Totals:        11       0       0       0       0
  4021 ;;Total ram usage:       11 bytes
  4022 ;; Hardware stack levels used:    1
  4023 ;; This function calls:
  4024 ;;		Nothing
  4025 ;; This function is called by:
  4026 ;;		_convert
  4027 ;; This function uses a non-reentrant model
  4028 ;;
  4029                           
  4030                           
  4031                           ;psect for function ___fltol
  4032  0024                     ___fltol:
  4033  0024                     l2367:	
  4034                           ;incstack = 0
  4035                           ; Regs used in ___fltol: [wreg+status,2+status,0]
  4036                           
  4037  0024  1003               	clrc
  4038  0025  0D72               	rlf	___fltol@f1+2,w
  4039  0026  0D73               	rlf	___fltol@f1+3,w
  4040  0027  00F4               	movwf	??___fltol
  4041  0028  0874               	movf	??___fltol,w
  4042  0029  00FA               	movwf	___fltol@exp1
  4043  002A  087A               	movf	___fltol@exp1,w
  4044  002B  1D03               	btfss	3,2
  4045  002C  282E               	goto	u2941
  4046  002D  282F               	goto	u2940
  4047  002E                     u2941:
  4048  002E  2838               	goto	l2373
  4049  002F                     u2940:
  4050  002F                     l2369:
  4051  002F  3000               	movlw	0
  4052  0030  00F3               	movwf	?___fltol+3
  4053  0031  3000               	movlw	0
  4054  0032  00F2               	movwf	?___fltol+2
  4055  0033  3000               	movlw	0
  4056  0034  00F1               	movwf	?___fltol+1
  4057  0035  3000               	movlw	0
  4058  0036  00F0               	movwf	?___fltol
  4059  0037  289D               	goto	l491
  4060  0038                     l2373:
  4061  0038  0870               	movf	___fltol@f1,w
  4062  0039  00F4               	movwf	??___fltol
  4063  003A  0871               	movf	___fltol@f1+1,w
  4064  003B  00F5               	movwf	??___fltol+1
  4065  003C  0872               	movf	___fltol@f1+2,w
  4066  003D  00F6               	movwf	??___fltol+2
  4067  003E  0873               	movf	___fltol@f1+3,w
  4068  003F  00F7               	movwf	??___fltol+3
  4069  0040  301F               	movlw	31
  4070  0041                     u2955:
  4071  0041  1003               	clrc
  4072  0042  0CF7               	rrf	??___fltol+3,f
  4073  0043  0CF6               	rrf	??___fltol+2,f
  4074  0044  0CF5               	rrf	??___fltol+1,f
  4075  0045  0CF4               	rrf	??___fltol,f
  4076  0046                     u2950:
  4077  0046  3EFF               	addlw	-1
  4078  0047  1D03               	skipz
  4079  0048  2841               	goto	u2955
  4080  0049  0874               	movf	??___fltol,w
  4081  004A  00F8               	movwf	??___fltol+4
  4082  004B  0878               	movf	??___fltol+4,w
  4083  004C  00F9               	movwf	___fltol@sign1
  4084  004D                     l2375:
  4085  004D  17F2               	bsf	___fltol@f1+2,7
  4086  004E                     l2377:
  4087  004E  30FF               	movlw	255
  4088  004F  05F0               	andwf	___fltol@f1,f
  4089  0050  30FF               	movlw	255
  4090  0051  05F1               	andwf	___fltol@f1+1,f
  4091  0052  30FF               	movlw	255
  4092  0053  05F2               	andwf	___fltol@f1+2,f
  4093  0054  3000               	movlw	0
  4094  0055  05F3               	andwf	___fltol@f1+3,f
  4095  0056                     l2379:
  4096  0056  3096               	movlw	150
  4097  0057  02FA               	subwf	___fltol@exp1,f
  4098  0058                     l2381:
  4099  0058  1FFA               	btfss	___fltol@exp1,7
  4100  0059  285B               	goto	u2961
  4101  005A  285C               	goto	u2960
  4102  005B                     u2961:
  4103  005B  2876               	goto	l2391
  4104  005C                     u2960:
  4105  005C                     l2383:
  4106  005C  087A               	movf	___fltol@exp1,w
  4107  005D  3A80               	xorlw	128
  4108  005E  3E97               	addlw	151
  4109  005F  1803               	skipnc
  4110  0060  2862               	goto	u2971
  4111  0061  2863               	goto	u2970
  4112  0062                     u2971:
  4113  0062  2864               	goto	l2389
  4114  0063                     u2970:
  4115  0063  282F               	goto	l2369
  4116  0064                     l2389:
  4117  0064  3001               	movlw	1
  4118  0065                     u2985:
  4119  0065  1003               	clrc
  4120  0066  0CF3               	rrf	___fltol@f1+3,f
  4121  0067  0CF2               	rrf	___fltol@f1+2,f
  4122  0068  0CF1               	rrf	___fltol@f1+1,f
  4123  0069  0CF0               	rrf	___fltol@f1,f
  4124  006A  3EFF               	addlw	-1
  4125  006B  1D03               	skipz
  4126  006C  2865               	goto	u2985
  4127  006D  3001               	movlw	1
  4128  006E  00F4               	movwf	??___fltol
  4129  006F  0874               	movf	??___fltol,w
  4130  0070  07FA               	addwf	___fltol@exp1,f
  4131  0071  1D03               	btfss	3,2
  4132  0072  2874               	goto	u2991
  4133  0073  2875               	goto	u2990
  4134  0074                     u2991:
  4135  0074  2864               	goto	l2389
  4136  0075                     u2990:
  4137  0075  288D               	goto	l2399
  4138  0076                     l2391:
  4139  0076  3020               	movlw	32
  4140  0077  027A               	subwf	___fltol@exp1,w
  4141  0078  1C03               	skipc
  4142  0079  287B               	goto	u3001
  4143  007A  287C               	goto	u3000
  4144  007B                     u3001:
  4145  007B  2888               	goto	l498
  4146  007C                     u3000:
  4147  007C  282F               	goto	l2369
  4148  007D                     l2397:
  4149  007D  3001               	movlw	1
  4150  007E  00F4               	movwf	??___fltol
  4151  007F                     u3015:
  4152  007F  1003               	clrc
  4153  0080  0DF0               	rlf	___fltol@f1,f
  4154  0081  0DF1               	rlf	___fltol@f1+1,f
  4155  0082  0DF2               	rlf	___fltol@f1+2,f
  4156  0083  0DF3               	rlf	___fltol@f1+3,f
  4157  0084  0BF4               	decfsz	??___fltol,f
  4158  0085  287F               	goto	u3015
  4159  0086  3001               	movlw	1
  4160  0087  02FA               	subwf	___fltol@exp1,f
  4161  0088                     l498:
  4162  0088  087A               	movf	___fltol@exp1,w
  4163  0089  1D03               	btfss	3,2
  4164  008A  288C               	goto	u3021
  4165  008B  288D               	goto	u3020
  4166  008C                     u3021:
  4167  008C  287D               	goto	l2397
  4168  008D                     u3020:
  4169  008D                     l2399:
  4170  008D  0879               	movf	___fltol@sign1,w
  4171  008E  1903               	btfsc	3,2
  4172  008F  2891               	goto	u3031
  4173  0090  2892               	goto	u3030
  4174  0091                     u3031:
  4175  0091  289D               	goto	l501
  4176  0092                     u3030:
  4177  0092                     l2401:
  4178  0092  09F0               	comf	___fltol@f1,f
  4179  0093  09F1               	comf	___fltol@f1+1,f
  4180  0094  09F2               	comf	___fltol@f1+2,f
  4181  0095  09F3               	comf	___fltol@f1+3,f
  4182  0096  0AF0               	incf	___fltol@f1,f
  4183  0097  1903               	skipnz
  4184  0098  0AF1               	incf	___fltol@f1+1,f
  4185  0099  1903               	skipnz
  4186  009A  0AF2               	incf	___fltol@f1+2,f
  4187  009B  1903               	skipnz
  4188  009C  0AF3               	incf	___fltol@f1+3,f
  4189  009D                     l501:
  4190  009D                     l491:
  4191  009D  0008               	return
  4192  009E                     __end_of___fltol:
  4193                           
  4194                           	psect	text12
  4195  13F8                     __ptext12:	
  4196 ;; *************** function ___flsub *****************
  4197 ;; Defined at:
  4198 ;;		line 242 in file "C:\Program Files\Microchip\xc8\v2.31\pic\sources\c90\common\sprcadd.c"
  4199 ;; Parameters:    Size  Location     Type
  4200 ;;  a               4   18[BANK0 ] long 
  4201 ;;  b               4   22[BANK0 ] long 
  4202 ;; Auto vars:     Size  Location     Type
  4203 ;;		None
  4204 ;; Return value:  Size  Location     Type
  4205 ;;                  4   18[BANK0 ] long 
  4206 ;; Registers used:
  4207 ;;		wreg, status,2, status,0, btemp+1, pclath, cstack
  4208 ;; Tracked objects:
  4209 ;;		On entry : 0/0
  4210 ;;		On exit  : 0/0
  4211 ;;		Unchanged: 0/0
  4212 ;; Data sizes:     COMMON   BANK0   BANK1   BANK3   BANK2
  4213 ;;      Params:         0       8       0       0       0
  4214 ;;      Locals:         0       0       0       0       0
  4215 ;;      Temps:          0       0       0       0       0
  4216 ;;      Totals:         0       8       0       0       0
  4217 ;;Total ram usage:        8 bytes
  4218 ;; Hardware stack levels used:    1
  4219 ;; Hardware stack levels required when called:    1
  4220 ;; This function calls:
  4221 ;;		___fladd
  4222 ;; This function is called by:
  4223 ;;		_convert
  4224 ;; This function uses a non-reentrant model
  4225 ;;
  4226                           
  4227                           
  4228                           ;psect for function ___flsub
  4229  13F8                     ___flsub:
  4230  13F8                     l2403:	
  4231                           ;incstack = 0
  4232                           ; Regs used in ___flsub: [wreg+status,2+status,0+btemp+1+pclath+cstack]
  4233                           
  4234  13F8  3080               	movlw	128
  4235  13F9  1283               	bcf	3,5	;RP0=0, select bank0
  4236  13FA  1303               	bcf	3,6	;RP1=0, select bank0
  4237  13FB  06B5               	xorwf	___flsub@a+3,f
  4238  13FC                     l2405:
  4239  13FC  0839               	movf	___flsub@b+3,w
  4240  13FD  00F3               	movwf	___fladd@b+3
  4241  13FE  0838               	movf	___flsub@b+2,w
  4242  13FF  00F2               	movwf	___fladd@b+2
  4243  1400  0837               	movf	___flsub@b+1,w
  4244  1401  00F1               	movwf	___fladd@b+1
  4245  1402  0836               	movf	___flsub@b,w
  4246  1403  00F0               	movwf	___fladd@b
  4247  1404  0835               	movf	___flsub@a+3,w
  4248  1405  00F7               	movwf	___fladd@a+3
  4249  1406  0834               	movf	___flsub@a+2,w
  4250  1407  00F6               	movwf	___fladd@a+2
  4251  1408  0833               	movf	___flsub@a+1,w
  4252  1409  00F5               	movwf	___fladd@a+1
  4253  140A  0832               	movf	___flsub@a,w
  4254  140B  00F4               	movwf	___fladd@a
  4255  140C  120A  158A  226E  160A  118A  	fcall	___fladd
  4256  1411  0873               	movf	?___fladd+3,w
  4257  1412  1283               	bcf	3,5	;RP0=0, select bank0
  4258  1413  1303               	bcf	3,6	;RP1=0, select bank0
  4259  1414  00B5               	movwf	?___flsub+3
  4260  1415  0872               	movf	?___fladd+2,w
  4261  1416  00B4               	movwf	?___flsub+2
  4262  1417  0871               	movf	?___fladd+1,w
  4263  1418  00B3               	movwf	?___flsub+1
  4264  1419  0870               	movf	?___fladd,w
  4265  141A  00B2               	movwf	?___flsub
  4266  141B                     l644:
  4267  141B  0008               	return
  4268  141C                     __end_of___flsub:
  4269                           
  4270                           	psect	text13
  4271  0A6E                     __ptext13:	
  4272 ;; *************** function ___fladd *****************
  4273 ;; Defined at:
  4274 ;;		line 10 in file "C:\Program Files\Microchip\xc8\v2.31\pic\sources\c90\common\sprcadd.c"
  4275 ;; Parameters:    Size  Location     Type
  4276 ;;  b               4    0[COMMON] long 
  4277 ;;  a               4    4[COMMON] long 
  4278 ;; Auto vars:     Size  Location     Type
  4279 ;;  grs             1   11[COMMON] unsigned char 
  4280 ;;  bexp            1   10[COMMON] unsigned char 
  4281 ;;  aexp            1    9[COMMON] unsigned char 
  4282 ;;  signs           1    8[COMMON] unsigned char 
  4283 ;; Return value:  Size  Location     Type
  4284 ;;                  4    0[COMMON] unsigned char 
  4285 ;; Registers used:
  4286 ;;		wreg, status,2, status,0, btemp+1
  4287 ;; Tracked objects:
  4288 ;;		On entry : 0/0
  4289 ;;		On exit  : 0/0
  4290 ;;		Unchanged: 0/0
  4291 ;; Data sizes:     COMMON   BANK0   BANK1   BANK3   BANK2
  4292 ;;      Params:         8       0       0       0       0
  4293 ;;      Locals:         4       0       0       0       0
  4294 ;;      Temps:          0       8       0       0       0
  4295 ;;      Totals:        12       8       0       0       0
  4296 ;;Total ram usage:       20 bytes
  4297 ;; Hardware stack levels used:    1
  4298 ;; This function calls:
  4299 ;;		Nothing
  4300 ;; This function is called by:
  4301 ;;		___flsub
  4302 ;; This function uses a non-reentrant model
  4303 ;;
  4304                           
  4305                           
  4306                           ;psect for function ___fladd
  4307  0A6E                     ___fladd:
  4308  0A6E                     l1979:	
  4309                           ;incstack = 0
  4310                           ; Regs used in ___fladd: [wreg+status,2+status,0+btemp+1]
  4311                           
  4312  0A6E  0873               	movf	___fladd@b+3,w
  4313  0A6F  3980               	andlw	128
  4314  0A70  1283               	bcf	3,5	;RP0=0, select bank0
  4315  0A71  1303               	bcf	3,6	;RP1=0, select bank0
  4316  0A72  00A0               	movwf	??___fladd
  4317  0A73  0820               	movf	??___fladd,w
  4318  0A74  00F8               	movwf	___fladd@signs
  4319  0A75                     l1981:
  4320  0A75  0873               	movf	___fladd@b+3,w
  4321  0A76  00A0               	movwf	??___fladd
  4322  0A77  0720               	addwf	??___fladd,w
  4323  0A78  00A1               	movwf	??___fladd+1
  4324  0A79  0821               	movf	??___fladd+1,w
  4325  0A7A  00FA               	movwf	___fladd@bexp
  4326  0A7B                     l1983:
  4327  0A7B  1FF2               	btfss	___fladd@b+2,7
  4328  0A7C  2A7E               	goto	u2041
  4329  0A7D  2A7F               	goto	u2040
  4330  0A7E                     u2041:
  4331  0A7E  2A80               	goto	l1987
  4332  0A7F                     u2040:
  4333  0A7F                     l1985:
  4334  0A7F  147A               	bsf	___fladd@bexp,0
  4335  0A80                     l1987:
  4336  0A80  087A               	movf	___fladd@bexp,w
  4337  0A81  1903               	btfsc	3,2
  4338  0A82  2A84               	goto	u2051
  4339  0A83  2A85               	goto	u2050
  4340  0A84                     u2051:
  4341  0A84  2A95               	goto	l1997
  4342  0A85                     u2050:
  4343  0A85                     l1989:
  4344  0A85  0A7A               	incf	___fladd@bexp,w
  4345  0A86  1D03               	btfss	3,2
  4346  0A87  2A89               	goto	u2061
  4347  0A88  2A8A               	goto	u2060
  4348  0A89                     u2061:
  4349  0A89  2A92               	goto	l1993
  4350  0A8A                     u2060:
  4351  0A8A                     l1991:
  4352  0A8A  3000               	movlw	0
  4353  0A8B  00F3               	movwf	___fladd@b+3
  4354  0A8C  3000               	movlw	0
  4355  0A8D  00F2               	movwf	___fladd@b+2
  4356  0A8E  3000               	movlw	0
  4357  0A8F  00F1               	movwf	___fladd@b+1
  4358  0A90  3000               	movlw	0
  4359  0A91  00F0               	movwf	___fladd@b
  4360  0A92                     l1993:
  4361  0A92  17F2               	bsf	___fladd@b+2,7
  4362  0A93                     l1995:
  4363  0A93  01F3               	clrf	___fladd@b+3
  4364  0A94  2A9D               	goto	l1999
  4365  0A95                     l1997:
  4366  0A95  3000               	movlw	0
  4367  0A96  00F3               	movwf	___fladd@b+3
  4368  0A97  3000               	movlw	0
  4369  0A98  00F2               	movwf	___fladd@b+2
  4370  0A99  3000               	movlw	0
  4371  0A9A  00F1               	movwf	___fladd@b+1
  4372  0A9B  3000               	movlw	0
  4373  0A9C  00F0               	movwf	___fladd@b
  4374  0A9D                     l1999:
  4375  0A9D  0877               	movf	___fladd@a+3,w
  4376  0A9E  3980               	andlw	128
  4377  0A9F  00A0               	movwf	??___fladd
  4378  0AA0  0820               	movf	??___fladd,w
  4379  0AA1  00F9               	movwf	___fladd@aexp
  4380  0AA2                     l2001:
  4381  0AA2  0879               	movf	___fladd@aexp,w
  4382  0AA3  0678               	xorwf	___fladd@signs,w
  4383  0AA4  1903               	skipnz
  4384  0AA5  2AA7               	goto	u2071
  4385  0AA6  2AA8               	goto	u2070
  4386  0AA7                     u2071:
  4387  0AA7  2AA9               	goto	l2005
  4388  0AA8                     u2070:
  4389  0AA8                     l2003:
  4390  0AA8  1778               	bsf	___fladd@signs,6
  4391  0AA9                     l2005:
  4392  0AA9  0877               	movf	___fladd@a+3,w
  4393  0AAA  00A0               	movwf	??___fladd
  4394  0AAB  0720               	addwf	??___fladd,w
  4395  0AAC  00A1               	movwf	??___fladd+1
  4396  0AAD  0821               	movf	??___fladd+1,w
  4397  0AAE  00F9               	movwf	___fladd@aexp
  4398  0AAF                     l2007:
  4399  0AAF  1FF6               	btfss	___fladd@a+2,7
  4400  0AB0  2AB2               	goto	u2081
  4401  0AB1  2AB3               	goto	u2080
  4402  0AB2                     u2081:
  4403  0AB2  2AB4               	goto	l2011
  4404  0AB3                     u2080:
  4405  0AB3                     l2009:
  4406  0AB3  1479               	bsf	___fladd@aexp,0
  4407  0AB4                     l2011:
  4408  0AB4  0879               	movf	___fladd@aexp,w
  4409  0AB5  1903               	btfsc	3,2
  4410  0AB6  2AB8               	goto	u2091
  4411  0AB7  2AB9               	goto	u2090
  4412  0AB8                     u2091:
  4413  0AB8  2AC9               	goto	l2021
  4414  0AB9                     u2090:
  4415  0AB9                     l2013:
  4416  0AB9  0A79               	incf	___fladd@aexp,w
  4417  0ABA  1D03               	btfss	3,2
  4418  0ABB  2ABD               	goto	u2101
  4419  0ABC  2ABE               	goto	u2100
  4420  0ABD                     u2101:
  4421  0ABD  2AC6               	goto	l2017
  4422  0ABE                     u2100:
  4423  0ABE                     l2015:
  4424  0ABE  3000               	movlw	0
  4425  0ABF  00F7               	movwf	___fladd@a+3
  4426  0AC0  3000               	movlw	0
  4427  0AC1  00F6               	movwf	___fladd@a+2
  4428  0AC2  3000               	movlw	0
  4429  0AC3  00F5               	movwf	___fladd@a+1
  4430  0AC4  3000               	movlw	0
  4431  0AC5  00F4               	movwf	___fladd@a
  4432  0AC6                     l2017:
  4433  0AC6  17F6               	bsf	___fladd@a+2,7
  4434  0AC7                     l2019:
  4435  0AC7  01F7               	clrf	___fladd@a+3
  4436  0AC8  2AD1               	goto	l598
  4437  0AC9                     l2021:
  4438  0AC9  3000               	movlw	0
  4439  0ACA  00F7               	movwf	___fladd@a+3
  4440  0ACB  3000               	movlw	0
  4441  0ACC  00F6               	movwf	___fladd@a+2
  4442  0ACD  3000               	movlw	0
  4443  0ACE  00F5               	movwf	___fladd@a+1
  4444  0ACF  3000               	movlw	0
  4445  0AD0  00F4               	movwf	___fladd@a
  4446  0AD1                     l598:
  4447  0AD1  087A               	movf	___fladd@bexp,w
  4448  0AD2  0279               	subwf	___fladd@aexp,w
  4449  0AD3  1803               	skipnc
  4450  0AD4  2AD6               	goto	u2111
  4451  0AD5  2AD7               	goto	u2110
  4452  0AD6                     u2111:
  4453  0AD6  2B1B               	goto	l2057
  4454  0AD7                     u2110:
  4455  0AD7                     l2023:
  4456  0AD7  1F78               	btfss	___fladd@signs,6
  4457  0AD8  2ADA               	goto	u2121
  4458  0AD9  2ADB               	goto	u2120
  4459  0ADA                     u2121:
  4460  0ADA  2ADF               	goto	l2027
  4461  0ADB                     u2120:
  4462  0ADB                     l2025:
  4463  0ADB  3080               	movlw	128
  4464  0ADC  00A0               	movwf	??___fladd
  4465  0ADD  0820               	movf	??___fladd,w
  4466  0ADE  06F8               	xorwf	___fladd@signs,f
  4467  0ADF                     l2027:
  4468  0ADF  087A               	movf	___fladd@bexp,w
  4469  0AE0  00A0               	movwf	??___fladd
  4470  0AE1  0820               	movf	??___fladd,w
  4471  0AE2  00FB               	movwf	___fladd@grs
  4472  0AE3                     l2029:
  4473  0AE3  0879               	movf	___fladd@aexp,w
  4474  0AE4  00A0               	movwf	??___fladd
  4475  0AE5  0820               	movf	??___fladd,w
  4476  0AE6  00FA               	movwf	___fladd@bexp
  4477  0AE7                     l2031:
  4478  0AE7  087B               	movf	___fladd@grs,w
  4479  0AE8  00A0               	movwf	??___fladd
  4480  0AE9  0820               	movf	??___fladd,w
  4481  0AEA  00F9               	movwf	___fladd@aexp
  4482  0AEB                     l2033:
  4483  0AEB  0870               	movf	___fladd@b,w
  4484  0AEC  00A0               	movwf	??___fladd
  4485  0AED  0820               	movf	??___fladd,w
  4486  0AEE  00FB               	movwf	___fladd@grs
  4487  0AEF                     l2035:
  4488  0AEF  0874               	movf	___fladd@a,w
  4489  0AF0  00A0               	movwf	??___fladd
  4490  0AF1  0820               	movf	??___fladd,w
  4491  0AF2  00F0               	movwf	___fladd@b
  4492  0AF3                     l2037:
  4493  0AF3  087B               	movf	___fladd@grs,w
  4494  0AF4  00A0               	movwf	??___fladd
  4495  0AF5  0820               	movf	??___fladd,w
  4496  0AF6  00F4               	movwf	___fladd@a
  4497  0AF7                     l2039:
  4498  0AF7  0871               	movf	___fladd@b+1,w
  4499  0AF8  00A0               	movwf	??___fladd
  4500  0AF9  0820               	movf	??___fladd,w
  4501  0AFA  00FB               	movwf	___fladd@grs
  4502  0AFB                     l2041:
  4503  0AFB  0875               	movf	___fladd@a+1,w
  4504  0AFC  00A0               	movwf	??___fladd
  4505  0AFD  0820               	movf	??___fladd,w
  4506  0AFE  00F1               	movwf	___fladd@b+1
  4507  0AFF                     l2043:
  4508  0AFF  087B               	movf	___fladd@grs,w
  4509  0B00  00A0               	movwf	??___fladd
  4510  0B01  0820               	movf	??___fladd,w
  4511  0B02  00F5               	movwf	___fladd@a+1
  4512  0B03                     l2045:
  4513  0B03  0872               	movf	___fladd@b+2,w
  4514  0B04  00A0               	movwf	??___fladd
  4515  0B05  0820               	movf	??___fladd,w
  4516  0B06  00FB               	movwf	___fladd@grs
  4517  0B07                     l2047:
  4518  0B07  0876               	movf	___fladd@a+2,w
  4519  0B08  00A0               	movwf	??___fladd
  4520  0B09  0820               	movf	??___fladd,w
  4521  0B0A  00F2               	movwf	___fladd@b+2
  4522  0B0B                     l2049:
  4523  0B0B  087B               	movf	___fladd@grs,w
  4524  0B0C  00A0               	movwf	??___fladd
  4525  0B0D  0820               	movf	??___fladd,w
  4526  0B0E  00F6               	movwf	___fladd@a+2
  4527  0B0F                     l2051:
  4528  0B0F  0873               	movf	___fladd@b+3,w
  4529  0B10  00A0               	movwf	??___fladd
  4530  0B11  0820               	movf	??___fladd,w
  4531  0B12  00FB               	movwf	___fladd@grs
  4532  0B13                     l2053:
  4533  0B13  0877               	movf	___fladd@a+3,w
  4534  0B14  00A0               	movwf	??___fladd
  4535  0B15  0820               	movf	??___fladd,w
  4536  0B16  00F3               	movwf	___fladd@b+3
  4537  0B17                     l2055:
  4538  0B17  087B               	movf	___fladd@grs,w
  4539  0B18  00A0               	movwf	??___fladd
  4540  0B19  0820               	movf	??___fladd,w
  4541  0B1A  00F7               	movwf	___fladd@a+3
  4542  0B1B                     l2057:
  4543  0B1B  01FB               	clrf	___fladd@grs
  4544  0B1C                     l2059:
  4545  0B1C  0879               	movf	___fladd@aexp,w
  4546  0B1D  00A0               	movwf	??___fladd
  4547  0B1E  01A1               	clrf	??___fladd+1
  4548  0B1F  0821               	movf	??___fladd+1,w
  4549  0B20  00A3               	movwf	??___fladd+3
  4550  0B21  087A               	movf	___fladd@bexp,w
  4551  0B22  0220               	subwf	??___fladd,w
  4552  0B23  00A2               	movwf	??___fladd+2
  4553  0B24  1C03               	skipc
  4554  0B25  03A3               	decf	??___fladd+3,f
  4555  0B26  0823               	movf	??___fladd+3,w
  4556  0B27  3A80               	xorlw	128
  4557  0B28  00FF               	movwf	btemp+1
  4558  0B29  3080               	movlw	128
  4559  0B2A  027F               	subwf	btemp+1,w
  4560  0B2B  1D03               	skipz
  4561  0B2C  2B2F               	goto	u2135
  4562  0B2D  301A               	movlw	26
  4563  0B2E  0222               	subwf	??___fladd+2,w
  4564  0B2F                     u2135:
  4565  0B2F  1C03               	skipc
  4566  0B30  2B32               	goto	u2131
  4567  0B31  2B33               	goto	u2130
  4568  0B32                     u2131:
  4569  0B32  2B74               	goto	l2075
  4570  0B33                     u2130:
  4571  0B33                     l2061:
  4572  0B33  0873               	movf	___fladd@b+3,w
  4573  0B34  0472               	iorwf	___fladd@b+2,w
  4574  0B35  0471               	iorwf	___fladd@b+1,w
  4575  0B36  0470               	iorwf	___fladd@b,w
  4576  0B37  1D03               	skipz
  4577  0B38  2B3A               	goto	u2141
  4578  0B39  2B3C               	goto	u2140
  4579  0B3A                     u2141:
  4580  0B3A  3001               	movlw	1
  4581  0B3B  2B3D               	goto	u2150
  4582  0B3C                     u2140:
  4583  0B3C  3000               	movlw	0
  4584  0B3D                     u2150:
  4585  0B3D  1283               	bcf	3,5	;RP0=0, select bank0
  4586  0B3E  1303               	bcf	3,6	;RP1=0, select bank0
  4587  0B3F  00A0               	movwf	??___fladd
  4588  0B40  0820               	movf	??___fladd,w
  4589  0B41  00FB               	movwf	___fladd@grs
  4590  0B42  3000               	movlw	0
  4591  0B43  00F3               	movwf	___fladd@b+3
  4592  0B44  3000               	movlw	0
  4593  0B45  00F2               	movwf	___fladd@b+2
  4594  0B46  3000               	movlw	0
  4595  0B47  00F1               	movwf	___fladd@b+1
  4596  0B48  3000               	movlw	0
  4597  0B49  00F0               	movwf	___fladd@b
  4598  0B4A  0879               	movf	___fladd@aexp,w
  4599  0B4B  00A0               	movwf	??___fladd
  4600  0B4C  0820               	movf	??___fladd,w
  4601  0B4D  00FA               	movwf	___fladd@bexp
  4602  0B4E  2B7A               	goto	l602
  4603  0B4F                     l604:
  4604  0B4F  1C7B               	btfss	___fladd@grs,0
  4605  0B50  2B52               	goto	u2161
  4606  0B51  2B53               	goto	u2160
  4607  0B52                     u2161:
  4608  0B52  2B5E               	goto	l2065
  4609  0B53                     u2160:
  4610  0B53                     l2063:
  4611  0B53  087B               	movf	___fladd@grs,w
  4612  0B54  1283               	bcf	3,5	;RP0=0, select bank0
  4613  0B55  1303               	bcf	3,6	;RP1=0, select bank0
  4614  0B56  00A0               	movwf	??___fladd
  4615  0B57  1003               	clrc
  4616  0B58  0C20               	rrf	??___fladd,w
  4617  0B59  3801               	iorlw	1
  4618  0B5A  00A1               	movwf	??___fladd+1
  4619  0B5B  0821               	movf	??___fladd+1,w
  4620  0B5C  00FB               	movwf	___fladd@grs
  4621  0B5D  2B60               	goto	l2067
  4622  0B5E                     l2065:
  4623  0B5E  1003               	clrc
  4624  0B5F  0CFB               	rrf	___fladd@grs,f
  4625  0B60                     l2067:
  4626  0B60  1C70               	btfss	___fladd@b,0
  4627  0B61  2B63               	goto	u2171
  4628  0B62  2B64               	goto	u2170
  4629  0B63                     u2171:
  4630  0B63  2B65               	goto	l2071
  4631  0B64                     u2170:
  4632  0B64                     l2069:
  4633  0B64  17FB               	bsf	___fladd@grs,7
  4634  0B65                     l2071:
  4635  0B65  3001               	movlw	1
  4636  0B66  1283               	bcf	3,5	;RP0=0, select bank0
  4637  0B67  1303               	bcf	3,6	;RP1=0, select bank0
  4638  0B68  00A0               	movwf	??___fladd
  4639  0B69                     u2185:
  4640  0B69  0D73               	rlf	___fladd@b+3,w
  4641  0B6A  0CF3               	rrf	___fladd@b+3,f
  4642  0B6B  0CF2               	rrf	___fladd@b+2,f
  4643  0B6C  0CF1               	rrf	___fladd@b+1,f
  4644  0B6D  0CF0               	rrf	___fladd@b,f
  4645  0B6E  0BA0               	decfsz	??___fladd& (0+127),f
  4646  0B6F  2B69               	goto	u2185
  4647  0B70                     l2073:
  4648  0B70  3001               	movlw	1
  4649  0B71  00A0               	movwf	??___fladd
  4650  0B72  0820               	movf	??___fladd,w
  4651  0B73  07FA               	addwf	___fladd@bexp,f
  4652  0B74                     l2075:
  4653  0B74  0879               	movf	___fladd@aexp,w
  4654  0B75  027A               	subwf	___fladd@bexp,w
  4655  0B76  1C03               	skipc
  4656  0B77  2B79               	goto	u2191
  4657  0B78  2B7A               	goto	u2190
  4658  0B79                     u2191:
  4659  0B79  2B4F               	goto	l604
  4660  0B7A                     u2190:
  4661  0B7A                     l602:
  4662  0B7A  1B78               	btfsc	___fladd@signs,6
  4663  0B7B  2B7D               	goto	u2201
  4664  0B7C  2B7E               	goto	u2200
  4665  0B7D                     u2201:
  4666  0B7D  2BCD               	goto	l2101
  4667  0B7E                     u2200:
  4668  0B7E                     l2077:
  4669  0B7E  087A               	movf	___fladd@bexp,w
  4670  0B7F  1D03               	btfss	3,2
  4671  0B80  2B82               	goto	u2211
  4672  0B81  2B83               	goto	u2210
  4673  0B82                     u2211:
  4674  0B82  2B8C               	goto	l2083
  4675  0B83                     u2210:
  4676  0B83                     l2079:
  4677  0B83  3000               	movlw	0
  4678  0B84  00F3               	movwf	?___fladd+3
  4679  0B85  3000               	movlw	0
  4680  0B86  00F2               	movwf	?___fladd+2
  4681  0B87  3000               	movlw	0
  4682  0B88  00F1               	movwf	?___fladd+1
  4683  0B89  3000               	movlw	0
  4684  0B8A  00F0               	movwf	?___fladd
  4685  0B8B  2D05               	goto	l611
  4686  0B8C                     l2083:
  4687  0B8C  0874               	movf	___fladd@a,w
  4688  0B8D  07F0               	addwf	___fladd@b,f
  4689  0B8E  0875               	movf	___fladd@a+1,w
  4690  0B8F  1103               	clrz
  4691  0B90  1803               	skipnc
  4692  0B91  3E01               	addlw	1
  4693  0B92  1903               	skipnz
  4694  0B93  2B95               	goto	u2221
  4695  0B94  07F1               	addwf	___fladd@b+1,f
  4696  0B95                     u2221:
  4697  0B95  0876               	movf	___fladd@a+2,w
  4698  0B96  1103               	clrz
  4699  0B97  1803               	skipnc
  4700  0B98  3E01               	addlw	1
  4701  0B99  1903               	skipnz
  4702  0B9A  2B9C               	goto	u2222
  4703  0B9B  07F2               	addwf	___fladd@b+2,f
  4704  0B9C                     u2222:
  4705  0B9C  0877               	movf	___fladd@a+3,w
  4706  0B9D  1103               	clrz
  4707  0B9E  1803               	skipnc
  4708  0B9F  3E01               	addlw	1
  4709  0BA0  1903               	skipnz
  4710  0BA1  2BA3               	goto	u2223
  4711  0BA2  07F3               	addwf	___fladd@b+3,f
  4712  0BA3                     u2223:
  4713  0BA3                     l2085:
  4714  0BA3  1C73               	btfss	___fladd@b+3,0
  4715  0BA4  2BA6               	goto	u2231
  4716  0BA5  2BA7               	goto	u2230
  4717  0BA6                     u2231:
  4718  0BA6  2C85               	goto	l2135
  4719  0BA7                     u2230:
  4720  0BA7                     l2087:
  4721  0BA7  1C7B               	btfss	___fladd@grs,0
  4722  0BA8  2BAA               	goto	u2241
  4723  0BA9  2BAB               	goto	u2240
  4724  0BAA                     u2241:
  4725  0BAA  2BB6               	goto	l2091
  4726  0BAB                     u2240:
  4727  0BAB                     l2089:
  4728  0BAB  087B               	movf	___fladd@grs,w
  4729  0BAC  1283               	bcf	3,5	;RP0=0, select bank0
  4730  0BAD  1303               	bcf	3,6	;RP1=0, select bank0
  4731  0BAE  00A0               	movwf	??___fladd
  4732  0BAF  1003               	clrc
  4733  0BB0  0C20               	rrf	??___fladd,w
  4734  0BB1  3801               	iorlw	1
  4735  0BB2  00A1               	movwf	??___fladd+1
  4736  0BB3  0821               	movf	??___fladd+1,w
  4737  0BB4  00FB               	movwf	___fladd@grs
  4738  0BB5  2BB8               	goto	l2093
  4739  0BB6                     l2091:
  4740  0BB6  1003               	clrc
  4741  0BB7  0CFB               	rrf	___fladd@grs,f
  4742  0BB8                     l2093:
  4743  0BB8  1C70               	btfss	___fladd@b,0
  4744  0BB9  2BBB               	goto	u2251
  4745  0BBA  2BBC               	goto	u2250
  4746  0BBB                     u2251:
  4747  0BBB  2BBD               	goto	l2097
  4748  0BBC                     u2250:
  4749  0BBC                     l2095:
  4750  0BBC  17FB               	bsf	___fladd@grs,7
  4751  0BBD                     l2097:
  4752  0BBD  3001               	movlw	1
  4753  0BBE  1283               	bcf	3,5	;RP0=0, select bank0
  4754  0BBF  1303               	bcf	3,6	;RP1=0, select bank0
  4755  0BC0  00A0               	movwf	??___fladd
  4756  0BC1                     u2265:
  4757  0BC1  0D73               	rlf	___fladd@b+3,w
  4758  0BC2  0CF3               	rrf	___fladd@b+3,f
  4759  0BC3  0CF2               	rrf	___fladd@b+2,f
  4760  0BC4  0CF1               	rrf	___fladd@b+1,f
  4761  0BC5  0CF0               	rrf	___fladd@b,f
  4762  0BC6  0BA0               	decfsz	??___fladd& (0+127),f
  4763  0BC7  2BC1               	goto	u2265
  4764  0BC8                     l2099:
  4765  0BC8  3001               	movlw	1
  4766  0BC9  00A0               	movwf	??___fladd
  4767  0BCA  0820               	movf	??___fladd,w
  4768  0BCB  07FA               	addwf	___fladd@bexp,f
  4769  0BCC  2C85               	goto	l2135
  4770  0BCD                     l2101:
  4771  0BCD  0873               	movf	___fladd@b+3,w
  4772  0BCE  3A80               	xorlw	128
  4773  0BCF  00FF               	movwf	btemp+1
  4774  0BD0  0877               	movf	___fladd@a+3,w
  4775  0BD1  3A80               	xorlw	128
  4776  0BD2  027F               	subwf	btemp+1,w
  4777  0BD3  1D03               	skipz
  4778  0BD4  2BDF               	goto	u2273
  4779  0BD5  0876               	movf	___fladd@a+2,w
  4780  0BD6  0272               	subwf	___fladd@b+2,w
  4781  0BD7  1D03               	skipz
  4782  0BD8  2BDF               	goto	u2273
  4783  0BD9  0875               	movf	___fladd@a+1,w
  4784  0BDA  0271               	subwf	___fladd@b+1,w
  4785  0BDB  1D03               	skipz
  4786  0BDC  2BDF               	goto	u2273
  4787  0BDD  0874               	movf	___fladd@a,w
  4788  0BDE  0270               	subwf	___fladd@b,w
  4789  0BDF                     u2273:
  4790  0BDF  1803               	skipnc
  4791  0BE0  2BE2               	goto	u2271
  4792  0BE1  2BE3               	goto	u2270
  4793  0BE2                     u2271:
  4794  0BE2  2C3D               	goto	l2111
  4795  0BE3                     u2270:
  4796  0BE3                     l2103:
  4797  0BE3  30FF               	movlw	255
  4798  0BE4  1283               	bcf	3,5	;RP0=0, select bank0
  4799  0BE5  1303               	bcf	3,6	;RP1=0, select bank0
  4800  0BE6  00A0               	movwf	??___fladd
  4801  0BE7  30FF               	movlw	255
  4802  0BE8  00A1               	movwf	??___fladd+1
  4803  0BE9  30FF               	movlw	255
  4804  0BEA  00A2               	movwf	??___fladd+2
  4805  0BEB  30FF               	movlw	255
  4806  0BEC  00A3               	movwf	??___fladd+3
  4807  0BED  0874               	movf	___fladd@a,w
  4808  0BEE  00A4               	movwf	??___fladd+4
  4809  0BEF  0875               	movf	___fladd@a+1,w
  4810  0BF0  00A5               	movwf	??___fladd+5
  4811  0BF1  0876               	movf	___fladd@a+2,w
  4812  0BF2  00A6               	movwf	??___fladd+6
  4813  0BF3  0877               	movf	___fladd@a+3,w
  4814  0BF4  00A7               	movwf	??___fladd+7
  4815  0BF5  0870               	movf	___fladd@b,w
  4816  0BF6  02A4               	subwf	??___fladd+4,f
  4817  0BF7  0871               	movf	___fladd@b+1,w
  4818  0BF8  1C03               	skipc
  4819  0BF9  0F71               	incfsz	___fladd@b+1,w
  4820  0BFA  2BFC               	goto	u2281
  4821  0BFB  2BFD               	goto	u2282
  4822  0BFC                     u2281:
  4823  0BFC  02A5               	subwf	??___fladd+5,f
  4824  0BFD                     u2282:
  4825  0BFD  0872               	movf	___fladd@b+2,w
  4826  0BFE  1C03               	skipc
  4827  0BFF  0F72               	incfsz	___fladd@b+2,w
  4828  0C00  2C02               	goto	u2283
  4829  0C01  2C03               	goto	u2284
  4830  0C02                     u2283:
  4831  0C02  02A6               	subwf	??___fladd+6,f
  4832  0C03                     u2284:
  4833  0C03  0873               	movf	___fladd@b+3,w
  4834  0C04  1C03               	skipc
  4835  0C05  0F73               	incfsz	___fladd@b+3,w
  4836  0C06  2C08               	goto	u2285
  4837  0C07  2C09               	goto	u2286
  4838  0C08                     u2285:
  4839  0C08  02A7               	subwf	??___fladd+7,f
  4840  0C09                     u2286:
  4841  0C09  0824               	movf	??___fladd+4,w
  4842  0C0A  07A0               	addwf	??___fladd,f
  4843  0C0B  0825               	movf	??___fladd+5,w
  4844  0C0C  1803               	skipnc
  4845  0C0D  0F25               	incfsz	??___fladd+5,w
  4846  0C0E  2C10               	goto	u2290
  4847  0C0F  2C11               	goto	u2291
  4848  0C10                     u2290:
  4849  0C10  07A1               	addwf	??___fladd+1,f
  4850  0C11                     u2291:
  4851  0C11  0826               	movf	??___fladd+6,w
  4852  0C12  1803               	skipnc
  4853  0C13  0F26               	incfsz	??___fladd+6,w
  4854  0C14  2C16               	goto	u2292
  4855  0C15  2C17               	goto	u2293
  4856  0C16                     u2292:
  4857  0C16  07A2               	addwf	??___fladd+2,f
  4858  0C17                     u2293:
  4859  0C17  0827               	movf	??___fladd+7,w
  4860  0C18  1803               	skipnc
  4861  0C19  0A27               	incf	??___fladd+7,w
  4862  0C1A  07A3               	addwf	??___fladd+3,f
  4863  0C1B  0823               	movf	??___fladd+3,w
  4864  0C1C  00F3               	movwf	___fladd@b+3
  4865  0C1D  0822               	movf	??___fladd+2,w
  4866  0C1E  00F2               	movwf	___fladd@b+2
  4867  0C1F  0821               	movf	??___fladd+1,w
  4868  0C20  00F1               	movwf	___fladd@b+1
  4869  0C21  0820               	movf	??___fladd,w
  4870  0C22  00F0               	movwf	___fladd@b
  4871  0C23                     l2105:
  4872  0C23  3080               	movlw	128
  4873  0C24  00A0               	movwf	??___fladd
  4874  0C25  0820               	movf	??___fladd,w
  4875  0C26  06F8               	xorwf	___fladd@signs,f
  4876  0C27  09FB               	comf	___fladd@grs,f
  4877  0C28  0AFB               	incf	___fladd@grs,f
  4878  0C29                     l2107:
  4879  0C29  087B               	movf	___fladd@grs,w
  4880  0C2A  1D03               	btfss	3,2
  4881  0C2B  2C2D               	goto	u2301
  4882  0C2C  2C2E               	goto	u2300
  4883  0C2D                     u2301:
  4884  0C2D  2C4B               	goto	l619
  4885  0C2E                     u2300:
  4886  0C2E                     l2109:
  4887  0C2E  3001               	movlw	1
  4888  0C2F  07F0               	addwf	___fladd@b,f
  4889  0C30  3000               	movlw	0
  4890  0C31  1803               	skipnc
  4891  0C32  3001               	movlw	1
  4892  0C33  07F1               	addwf	___fladd@b+1,f
  4893  0C34  3000               	movlw	0
  4894  0C35  1803               	skipnc
  4895  0C36  3001               	movlw	1
  4896  0C37  07F2               	addwf	___fladd@b+2,f
  4897  0C38  3000               	movlw	0
  4898  0C39  1803               	skipnc
  4899  0C3A  3001               	movlw	1
  4900  0C3B  07F3               	addwf	___fladd@b+3,f
  4901  0C3C  2C4B               	goto	l619
  4902  0C3D                     l2111:
  4903  0C3D  0874               	movf	___fladd@a,w
  4904  0C3E  02F0               	subwf	___fladd@b,f
  4905  0C3F  0875               	movf	___fladd@a+1,w
  4906  0C40  1C03               	skipc
  4907  0C41  0F75               	incfsz	___fladd@a+1,w
  4908  0C42  02F1               	subwf	___fladd@b+1,f
  4909  0C43  0876               	movf	___fladd@a+2,w
  4910  0C44  1C03               	skipc
  4911  0C45  0F76               	incfsz	___fladd@a+2,w
  4912  0C46  02F2               	subwf	___fladd@b+2,f
  4913  0C47  0877               	movf	___fladd@a+3,w
  4914  0C48  1C03               	skipc
  4915  0C49  0F77               	incfsz	___fladd@a+3,w
  4916  0C4A  02F3               	subwf	___fladd@b+3,f
  4917  0C4B                     l619:
  4918  0C4B  0873               	movf	___fladd@b+3,w
  4919  0C4C  0472               	iorwf	___fladd@b+2,w
  4920  0C4D  0471               	iorwf	___fladd@b+1,w
  4921  0C4E  0470               	iorwf	___fladd@b,w
  4922  0C4F  1D03               	skipz
  4923  0C50  2C52               	goto	u2311
  4924  0C51  2C53               	goto	u2310
  4925  0C52                     u2311:
  4926  0C52  2C81               	goto	l2133
  4927  0C53                     u2310:
  4928  0C53                     l2113:
  4929  0C53  087B               	movf	___fladd@grs,w
  4930  0C54  1D03               	btfss	3,2
  4931  0C55  2C57               	goto	u2321
  4932  0C56  2C58               	goto	u2320
  4933  0C57                     u2321:
  4934  0C57  2C81               	goto	l2133
  4935  0C58                     u2320:
  4936  0C58                     l2115:
  4937  0C58  3000               	movlw	0
  4938  0C59  00F3               	movwf	?___fladd+3
  4939  0C5A  3000               	movlw	0
  4940  0C5B  00F2               	movwf	?___fladd+2
  4941  0C5C  3000               	movlw	0
  4942  0C5D  00F1               	movwf	?___fladd+1
  4943  0C5E  3000               	movlw	0
  4944  0C5F  00F0               	movwf	?___fladd
  4945  0C60  2D05               	goto	l611
  4946  0C61                     l2119:
  4947  0C61  3001               	movlw	1
  4948  0C62  1283               	bcf	3,5	;RP0=0, select bank0
  4949  0C63  1303               	bcf	3,6	;RP1=0, select bank0
  4950  0C64  00A0               	movwf	??___fladd
  4951  0C65                     u2335:
  4952  0C65  1003               	clrc
  4953  0C66  0DF0               	rlf	___fladd@b,f
  4954  0C67  0DF1               	rlf	___fladd@b+1,f
  4955  0C68  0DF2               	rlf	___fladd@b+2,f
  4956  0C69  0DF3               	rlf	___fladd@b+3,f
  4957  0C6A  0BA0               	decfsz	??___fladd,f
  4958  0C6B  2C65               	goto	u2335
  4959  0C6C                     l2121:
  4960  0C6C  1FFB               	btfss	___fladd@grs,7
  4961  0C6D  2C6F               	goto	u2341
  4962  0C6E  2C70               	goto	u2340
  4963  0C6F                     u2341:
  4964  0C6F  2C71               	goto	l623
  4965  0C70                     u2340:
  4966  0C70                     l2123:
  4967  0C70  1470               	bsf	___fladd@b,0
  4968  0C71                     l623:
  4969  0C71  1C7B               	btfss	___fladd@grs,0
  4970  0C72  2C74               	goto	u2351
  4971  0C73  2C75               	goto	u2350
  4972  0C74                     u2351:
  4973  0C74  2C78               	goto	l2127
  4974  0C75                     u2350:
  4975  0C75                     l2125:
  4976  0C75  1403               	setc
  4977  0C76  0DFB               	rlf	___fladd@grs,f
  4978  0C77  2C7A               	goto	l2129
  4979  0C78                     l2127:
  4980  0C78  1003               	clrc
  4981  0C79  0DFB               	rlf	___fladd@grs,f
  4982  0C7A                     l2129:
  4983  0C7A  087A               	movf	___fladd@bexp,w
  4984  0C7B  1903               	btfsc	3,2
  4985  0C7C  2C7E               	goto	u2361
  4986  0C7D  2C7F               	goto	u2360
  4987  0C7E                     u2361:
  4988  0C7E  2C81               	goto	l2133
  4989  0C7F                     u2360:
  4990  0C7F                     l2131:
  4991  0C7F  3001               	movlw	1
  4992  0C80  02FA               	subwf	___fladd@bexp,f
  4993  0C81                     l2133:
  4994  0C81  1FF2               	btfss	___fladd@b+2,7
  4995  0C82  2C84               	goto	u2371
  4996  0C83  2C85               	goto	u2370
  4997  0C84                     u2371:
  4998  0C84  2C61               	goto	l2119
  4999  0C85                     u2370:
  5000  0C85                     l2135:
  5001  0C85  01F9               	clrf	___fladd@aexp
  5002  0C86                     l2137:
  5003  0C86  1FFB               	btfss	___fladd@grs,7
  5004  0C87  2C89               	goto	u2381
  5005  0C88  2C8A               	goto	u2380
  5006  0C89                     u2381:
  5007  0C89  2C98               	goto	l2145
  5008  0C8A                     u2380:
  5009  0C8A                     l2139:
  5010  0C8A  087B               	movf	___fladd@grs,w
  5011  0C8B  397F               	andlw	127
  5012  0C8C  1903               	btfsc	3,2
  5013  0C8D  2C8F               	goto	u2391
  5014  0C8E  2C90               	goto	u2390
  5015  0C8F                     u2391:
  5016  0C8F  2C93               	goto	l629
  5017  0C90                     u2390:
  5018  0C90                     l2141:
  5019  0C90  01F9               	clrf	___fladd@aexp
  5020  0C91  0AF9               	incf	___fladd@aexp,f
  5021  0C92  2C98               	goto	l2145
  5022  0C93                     l629:
  5023  0C93  1C70               	btfss	___fladd@b,0
  5024  0C94  2C96               	goto	u2401
  5025  0C95  2C97               	goto	u2400
  5026  0C96                     u2401:
  5027  0C96  2C98               	goto	l2145
  5028  0C97                     u2400:
  5029  0C97  2C90               	goto	l2141
  5030  0C98                     l2145:
  5031  0C98  0879               	movf	___fladd@aexp,w
  5032  0C99  1903               	btfsc	3,2
  5033  0C9A  2C9C               	goto	u2411
  5034  0C9B  2C9D               	goto	u2410
  5035  0C9C                     u2411:
  5036  0C9C  2CD3               	goto	l632
  5037  0C9D                     u2410:
  5038  0C9D                     l2147:
  5039  0C9D  3001               	movlw	1
  5040  0C9E  07F0               	addwf	___fladd@b,f
  5041  0C9F  3000               	movlw	0
  5042  0CA0  1803               	skipnc
  5043  0CA1  3001               	movlw	1
  5044  0CA2  07F1               	addwf	___fladd@b+1,f
  5045  0CA3  3000               	movlw	0
  5046  0CA4  1803               	skipnc
  5047  0CA5  3001               	movlw	1
  5048  0CA6  07F2               	addwf	___fladd@b+2,f
  5049  0CA7  3000               	movlw	0
  5050  0CA8  1803               	skipnc
  5051  0CA9  3001               	movlw	1
  5052  0CAA  07F3               	addwf	___fladd@b+3,f
  5053  0CAB                     l2149:
  5054  0CAB  1C73               	btfss	___fladd@b+3,0
  5055  0CAC  2CAE               	goto	u2421
  5056  0CAD  2CAF               	goto	u2420
  5057  0CAE                     u2421:
  5058  0CAE  2CD3               	goto	l632
  5059  0CAF                     u2420:
  5060  0CAF                     l2151:
  5061  0CAF  0870               	movf	___fladd@b,w
  5062  0CB0  1283               	bcf	3,5	;RP0=0, select bank0
  5063  0CB1  1303               	bcf	3,6	;RP1=0, select bank0
  5064  0CB2  00A0               	movwf	??___fladd
  5065  0CB3  0871               	movf	___fladd@b+1,w
  5066  0CB4  00A1               	movwf	??___fladd+1
  5067  0CB5  0872               	movf	___fladd@b+2,w
  5068  0CB6  00A2               	movwf	??___fladd+2
  5069  0CB7  0873               	movf	___fladd@b+3,w
  5070  0CB8  00A3               	movwf	??___fladd+3
  5071  0CB9  3001               	movlw	1
  5072  0CBA  00A4               	movwf	??___fladd+4
  5073  0CBB                     u2435:
  5074  0CBB  0D23               	rlf	??___fladd+3,w
  5075  0CBC  0CA3               	rrf	??___fladd+3,f
  5076  0CBD  0CA2               	rrf	??___fladd+2,f
  5077  0CBE  0CA1               	rrf	??___fladd+1,f
  5078  0CBF  0CA0               	rrf	??___fladd,f
  5079  0CC0                     u2430:
  5080  0CC0  0BA4               	decfsz	??___fladd+4,f
  5081  0CC1  2CBB               	goto	u2435
  5082  0CC2  0823               	movf	??___fladd+3,w
  5083  0CC3  00F3               	movwf	___fladd@b+3
  5084  0CC4  0822               	movf	??___fladd+2,w
  5085  0CC5  00F2               	movwf	___fladd@b+2
  5086  0CC6  0821               	movf	??___fladd+1,w
  5087  0CC7  00F1               	movwf	___fladd@b+1
  5088  0CC8  0820               	movf	??___fladd,w
  5089  0CC9  00F0               	movwf	___fladd@b
  5090  0CCA  0A7A               	incf	___fladd@bexp,w
  5091  0CCB  1903               	btfsc	3,2
  5092  0CCC  2CCE               	goto	u2441
  5093  0CCD  2CCF               	goto	u2440
  5094  0CCE                     u2441:
  5095  0CCE  2CD3               	goto	l632
  5096  0CCF                     u2440:
  5097  0CCF                     l2153:
  5098  0CCF  3001               	movlw	1
  5099  0CD0  00A0               	movwf	??___fladd
  5100  0CD1  0820               	movf	??___fladd,w
  5101  0CD2  07FA               	addwf	___fladd@bexp,f
  5102  0CD3                     l632:
  5103  0CD3  0A7A               	incf	___fladd@bexp,w
  5104  0CD4  1903               	btfsc	3,2
  5105  0CD5  2CD7               	goto	u2451
  5106  0CD6  2CD8               	goto	u2450
  5107  0CD7                     u2451:
  5108  0CD7  2CDD               	goto	l2157
  5109  0CD8                     u2450:
  5110  0CD8                     l2155:
  5111  0CD8  087A               	movf	___fladd@bexp,w
  5112  0CD9  1D03               	btfss	3,2
  5113  0CDA  2CDC               	goto	u2461
  5114  0CDB  2CDD               	goto	u2460
  5115  0CDC                     u2461:
  5116  0CDC  2CEB               	goto	l2163
  5117  0CDD                     u2460:
  5118  0CDD                     l2157:
  5119  0CDD  3000               	movlw	0
  5120  0CDE  00F3               	movwf	___fladd@b+3
  5121  0CDF  3000               	movlw	0
  5122  0CE0  00F2               	movwf	___fladd@b+2
  5123  0CE1  3000               	movlw	0
  5124  0CE2  00F1               	movwf	___fladd@b+1
  5125  0CE3  3000               	movlw	0
  5126  0CE4  00F0               	movwf	___fladd@b
  5127  0CE5                     l2159:
  5128  0CE5  087A               	movf	___fladd@bexp,w
  5129  0CE6  1D03               	btfss	3,2
  5130  0CE7  2CE9               	goto	u2471
  5131  0CE8  2CEA               	goto	u2470
  5132  0CE9                     u2471:
  5133  0CE9  2CEB               	goto	l2163
  5134  0CEA                     u2470:
  5135  0CEA                     l2161:
  5136  0CEA  01F8               	clrf	___fladd@signs
  5137  0CEB                     l2163:
  5138  0CEB  1C7A               	btfss	___fladd@bexp,0
  5139  0CEC  2CEE               	goto	u2481
  5140  0CED  2CEF               	goto	u2480
  5141  0CEE                     u2481:
  5142  0CEE  2CF1               	goto	l2167
  5143  0CEF                     u2480:
  5144  0CEF                     l2165:
  5145  0CEF  17F2               	bsf	___fladd@b+2,7
  5146  0CF0  2CF7               	goto	l640
  5147  0CF1                     l2167:
  5148  0CF1  307F               	movlw	127
  5149  0CF2  1283               	bcf	3,5	;RP0=0, select bank0
  5150  0CF3  1303               	bcf	3,6	;RP1=0, select bank0
  5151  0CF4  00A0               	movwf	??___fladd
  5152  0CF5  0820               	movf	??___fladd,w
  5153  0CF6  05F2               	andwf	___fladd@b+2,f
  5154  0CF7                     l640:
  5155  0CF7  087A               	movf	___fladd@bexp,w
  5156  0CF8  1283               	bcf	3,5	;RP0=0, select bank0
  5157  0CF9  1303               	bcf	3,6	;RP1=0, select bank0
  5158  0CFA  00A0               	movwf	??___fladd
  5159  0CFB  1003               	clrc
  5160  0CFC  0C20               	rrf	??___fladd,w
  5161  0CFD  00A1               	movwf	??___fladd+1
  5162  0CFE  0821               	movf	??___fladd+1,w
  5163  0CFF  00F3               	movwf	___fladd@b+3
  5164  0D00                     l2169:
  5165  0D00  1FF8               	btfss	___fladd@signs,7
  5166  0D01  2D03               	goto	u2491
  5167  0D02  2D04               	goto	u2490
  5168  0D03                     u2491:
  5169  0D03  2D05               	goto	l641
  5170  0D04                     u2490:
  5171  0D04                     l2171:
  5172  0D04  17F3               	bsf	___fladd@b+3,7
  5173  0D05                     l641:
  5174  0D05                     l611:
  5175  0D05  0008               	return
  5176  0D06                     __end_of___fladd:
  5177                           
  5178                           	psect	text14
  5179  009E                     __ptext14:	
  5180 ;; *************** function ___flmul *****************
  5181 ;; Defined at:
  5182 ;;		line 8 in file "C:\Program Files\Microchip\xc8\v2.31\pic\sources\c90\common\sprcmul.c"
  5183 ;; Parameters:    Size  Location     Type
  5184 ;;  b               4   44[BANK0 ] unsigned char 
  5185 ;;  a               4   48[BANK0 ] unsigned char 
  5186 ;; Auto vars:     Size  Location     Type
  5187 ;;  prod            4   64[BANK0 ] struct .
  5188 ;;  grs             4   58[BANK0 ] unsigned long 
  5189 ;;  temp            2   68[BANK0 ] struct .
  5190 ;;  bexp            1   63[BANK0 ] unsigned char 
  5191 ;;  aexp            1   62[BANK0 ] unsigned char 
  5192 ;;  sign            1   57[BANK0 ] unsigned char 
  5193 ;; Return value:  Size  Location     Type
  5194 ;;                  4   44[BANK0 ] unsigned char 
  5195 ;; Registers used:
  5196 ;;		wreg, status,2, status,0, btemp+1, pclath, cstack
  5197 ;; Tracked objects:
  5198 ;;		On entry : 0/0
  5199 ;;		On exit  : 0/0
  5200 ;;		Unchanged: 0/0
  5201 ;; Data sizes:     COMMON   BANK0   BANK1   BANK3   BANK2
  5202 ;;      Params:         0       8       0       0       0
  5203 ;;      Locals:         0      13       0       0       0
  5204 ;;      Temps:          0       5       0       0       0
  5205 ;;      Totals:         0      26       0       0       0
  5206 ;;Total ram usage:       26 bytes
  5207 ;; Hardware stack levels used:    1
  5208 ;; Hardware stack levels required when called:    1
  5209 ;; This function calls:
  5210 ;;		__Umul8_16
  5211 ;; This function is called by:
  5212 ;;		_main
  5213 ;;		_convert
  5214 ;; This function uses a non-reentrant model
  5215 ;;
  5216                           
  5217                           
  5218                           ;psect for function ___flmul
  5219  009E                     ___flmul:
  5220  009E                     l2551:	
  5221                           ;incstack = 0
  5222                           ; Regs used in ___flmul: [wreg+status,2+status,0+btemp+1+pclath+cstack]
  5223                           
  5224  009E  1283               	bcf	3,5	;RP0=0, select bank0
  5225  009F  1303               	bcf	3,6	;RP1=0, select bank0
  5226  00A0  084F               	movf	___flmul@b+3,w
  5227  00A1  3980               	andlw	128
  5228  00A2  00D4               	movwf	??___flmul
  5229  00A3  0854               	movf	??___flmul,w
  5230  00A4  00D9               	movwf	___flmul@sign
  5231  00A5                     l2553:
  5232  00A5  084F               	movf	___flmul@b+3,w
  5233  00A6  00D4               	movwf	??___flmul
  5234  00A7  0754               	addwf	??___flmul,w
  5235  00A8  00D5               	movwf	??___flmul+1
  5236  00A9  0855               	movf	??___flmul+1,w
  5237  00AA  00DF               	movwf	___flmul@bexp
  5238  00AB                     l2555:
  5239  00AB  1FCE               	btfss	___flmul@b+2,7
  5240  00AC  28AE               	goto	u3331
  5241  00AD  28AF               	goto	u3330
  5242  00AE                     u3331:
  5243  00AE  28B0               	goto	l2559
  5244  00AF                     u3330:
  5245  00AF                     l2557:
  5246  00AF  145F               	bsf	___flmul@bexp,0
  5247  00B0                     l2559:
  5248  00B0  085F               	movf	___flmul@bexp,w
  5249  00B1  1903               	btfsc	3,2
  5250  00B2  28B4               	goto	u3341
  5251  00B3  28B5               	goto	u3340
  5252  00B4                     u3341:
  5253  00B4  28C4               	goto	l2567
  5254  00B5                     u3340:
  5255  00B5                     l2561:
  5256  00B5  0A5F               	incf	___flmul@bexp,w
  5257  00B6  1D03               	btfss	3,2
  5258  00B7  28B9               	goto	u3351
  5259  00B8  28BA               	goto	u3350
  5260  00B9                     u3351:
  5261  00B9  28C2               	goto	l2565
  5262  00BA                     u3350:
  5263  00BA                     l2563:
  5264  00BA  3000               	movlw	0
  5265  00BB  00CF               	movwf	___flmul@b+3
  5266  00BC  3000               	movlw	0
  5267  00BD  00CE               	movwf	___flmul@b+2
  5268  00BE  3000               	movlw	0
  5269  00BF  00CD               	movwf	___flmul@b+1
  5270  00C0  3000               	movlw	0
  5271  00C1  00CC               	movwf	___flmul@b
  5272  00C2                     l2565:
  5273  00C2  17CE               	bsf	___flmul@b+2,7
  5274  00C3  28CC               	goto	l2569
  5275  00C4                     l2567:
  5276  00C4  3000               	movlw	0
  5277  00C5  00CF               	movwf	___flmul@b+3
  5278  00C6  3000               	movlw	0
  5279  00C7  00CE               	movwf	___flmul@b+2
  5280  00C8  3000               	movlw	0
  5281  00C9  00CD               	movwf	___flmul@b+1
  5282  00CA  3000               	movlw	0
  5283  00CB  00CC               	movwf	___flmul@b
  5284  00CC                     l2569:
  5285  00CC  0853               	movf	___flmul@a+3,w
  5286  00CD  3980               	andlw	128
  5287  00CE  00D4               	movwf	??___flmul
  5288  00CF  0854               	movf	??___flmul,w
  5289  00D0  06D9               	xorwf	___flmul@sign,f
  5290  00D1                     l2571:
  5291  00D1  0853               	movf	___flmul@a+3,w
  5292  00D2  00D4               	movwf	??___flmul
  5293  00D3  0754               	addwf	??___flmul,w
  5294  00D4  00D5               	movwf	??___flmul+1
  5295  00D5  0855               	movf	??___flmul+1,w
  5296  00D6  00DE               	movwf	___flmul@aexp
  5297  00D7                     l2573:
  5298  00D7  1FD2               	btfss	___flmul@a+2,7
  5299  00D8  28DA               	goto	u3361
  5300  00D9  28DB               	goto	u3360
  5301  00DA                     u3361:
  5302  00DA  28DC               	goto	l2577
  5303  00DB                     u3360:
  5304  00DB                     l2575:
  5305  00DB  145E               	bsf	___flmul@aexp,0
  5306  00DC                     l2577:
  5307  00DC  085E               	movf	___flmul@aexp,w
  5308  00DD  1903               	btfsc	3,2
  5309  00DE  28E0               	goto	u3371
  5310  00DF  28E1               	goto	u3370
  5311  00E0                     u3371:
  5312  00E0  28F0               	goto	l2585
  5313  00E1                     u3370:
  5314  00E1                     l2579:
  5315  00E1  0A5E               	incf	___flmul@aexp,w
  5316  00E2  1D03               	btfss	3,2
  5317  00E3  28E5               	goto	u3381
  5318  00E4  28E6               	goto	u3380
  5319  00E5                     u3381:
  5320  00E5  28EE               	goto	l2583
  5321  00E6                     u3380:
  5322  00E6                     l2581:
  5323  00E6  3000               	movlw	0
  5324  00E7  00D3               	movwf	___flmul@a+3
  5325  00E8  3000               	movlw	0
  5326  00E9  00D2               	movwf	___flmul@a+2
  5327  00EA  3000               	movlw	0
  5328  00EB  00D1               	movwf	___flmul@a+1
  5329  00EC  3000               	movlw	0
  5330  00ED  00D0               	movwf	___flmul@a
  5331  00EE                     l2583:
  5332  00EE  17D2               	bsf	___flmul@a+2,7
  5333  00EF  28F8               	goto	l2587
  5334  00F0                     l2585:
  5335  00F0  3000               	movlw	0
  5336  00F1  00D3               	movwf	___flmul@a+3
  5337  00F2  3000               	movlw	0
  5338  00F3  00D2               	movwf	___flmul@a+2
  5339  00F4  3000               	movlw	0
  5340  00F5  00D1               	movwf	___flmul@a+1
  5341  00F6  3000               	movlw	0
  5342  00F7  00D0               	movwf	___flmul@a
  5343  00F8                     l2587:
  5344  00F8  085E               	movf	___flmul@aexp,w
  5345  00F9  1903               	btfsc	3,2
  5346  00FA  28FC               	goto	u3391
  5347  00FB  28FD               	goto	u3390
  5348  00FC                     u3391:
  5349  00FC  2902               	goto	l2591
  5350  00FD                     u3390:
  5351  00FD                     l2589:
  5352  00FD  085F               	movf	___flmul@bexp,w
  5353  00FE  1D03               	btfss	3,2
  5354  00FF  2901               	goto	u3401
  5355  0100  2902               	goto	u3400
  5356  0101                     u3401:
  5357  0101  290B               	goto	l2595
  5358  0102                     u3400:
  5359  0102                     l2591:
  5360  0102  3000               	movlw	0
  5361  0103  00CF               	movwf	?___flmul+3
  5362  0104  3000               	movlw	0
  5363  0105  00CE               	movwf	?___flmul+2
  5364  0106  3000               	movlw	0
  5365  0107  00CD               	movwf	?___flmul+1
  5366  0108  3000               	movlw	0
  5367  0109  00CC               	movwf	?___flmul
  5368  010A  2BFE               	goto	l694
  5369  010B                     l2595:
  5370  010B  084C               	movf	___flmul@b,w
  5371  010C  00D4               	movwf	??___flmul
  5372  010D  0854               	movf	??___flmul,w
  5373  010E  00F0               	movwf	__Umul8_16@multiplicand
  5374  010F  0852               	movf	___flmul@a+2,w
  5375  0110  160A  118A  241C  120A  118A  	fcall	__Umul8_16
  5376  0115  0871               	movf	?__Umul8_16+1,w
  5377  0116  1283               	bcf	3,5	;RP0=0, select bank0
  5378  0117  1303               	bcf	3,6	;RP1=0, select bank0
  5379  0118  00E5               	movwf	___flmul@temp+1
  5380  0119  0870               	movf	?__Umul8_16,w
  5381  011A  00E4               	movwf	___flmul@temp
  5382  011B                     l2597:
  5383  011B  0864               	movf	___flmul@temp,w
  5384  011C  00D4               	movwf	??___flmul
  5385  011D  01D5               	clrf	??___flmul+1
  5386  011E  01D6               	clrf	??___flmul+2
  5387  011F  01D7               	clrf	??___flmul+3
  5388  0120  0857               	movf	??___flmul+3,w
  5389  0121  00DD               	movwf	___flmul@grs+3
  5390  0122  0856               	movf	??___flmul+2,w
  5391  0123  00DC               	movwf	___flmul@grs+2
  5392  0124  0855               	movf	??___flmul+1,w
  5393  0125  00DB               	movwf	___flmul@grs+1
  5394  0126  0854               	movf	??___flmul,w
  5395  0127  00DA               	movwf	___flmul@grs
  5396  0128                     l2599:
  5397  0128  0865               	movf	___flmul@temp+1,w
  5398  0129  00D4               	movwf	??___flmul
  5399  012A  01D5               	clrf	??___flmul+1
  5400  012B  01D6               	clrf	??___flmul+2
  5401  012C  01D7               	clrf	??___flmul+3
  5402  012D  0857               	movf	??___flmul+3,w
  5403  012E  00E3               	movwf	___flmul@prod+3
  5404  012F  0856               	movf	??___flmul+2,w
  5405  0130  00E2               	movwf	___flmul@prod+2
  5406  0131  0855               	movf	??___flmul+1,w
  5407  0132  00E1               	movwf	___flmul@prod+1
  5408  0133  0854               	movf	??___flmul,w
  5409  0134  00E0               	movwf	___flmul@prod
  5410  0135  084D               	movf	___flmul@b+1,w
  5411  0136  00D4               	movwf	??___flmul
  5412  0137  0854               	movf	??___flmul,w
  5413  0138  00F0               	movwf	__Umul8_16@multiplicand
  5414  0139  0851               	movf	___flmul@a+1,w
  5415  013A  160A  118A  241C  120A  118A  	fcall	__Umul8_16
  5416  013F  0871               	movf	?__Umul8_16+1,w
  5417  0140  1283               	bcf	3,5	;RP0=0, select bank0
  5418  0141  1303               	bcf	3,6	;RP1=0, select bank0
  5419  0142  00E5               	movwf	___flmul@temp+1
  5420  0143  0870               	movf	?__Umul8_16,w
  5421  0144  00E4               	movwf	___flmul@temp
  5422  0145                     l2601:
  5423  0145  0864               	movf	___flmul@temp,w
  5424  0146  00D4               	movwf	??___flmul
  5425  0147  01D5               	clrf	??___flmul+1
  5426  0148  01D6               	clrf	??___flmul+2
  5427  0149  01D7               	clrf	??___flmul+3
  5428  014A  0854               	movf	??___flmul,w
  5429  014B  07DA               	addwf	___flmul@grs,f
  5430  014C  0855               	movf	??___flmul+1,w
  5431  014D  1103               	clrz
  5432  014E  1803               	skipnc
  5433  014F  3E01               	addlw	1
  5434  0150  1903               	skipnz
  5435  0151  2953               	goto	u3411
  5436  0152  07DB               	addwf	___flmul@grs+1,f
  5437  0153                     u3411:
  5438  0153  0856               	movf	??___flmul+2,w
  5439  0154  1103               	clrz
  5440  0155  1803               	skipnc
  5441  0156  3E01               	addlw	1
  5442  0157  1903               	skipnz
  5443  0158  295A               	goto	u3412
  5444  0159  07DC               	addwf	___flmul@grs+2,f
  5445  015A                     u3412:
  5446  015A  0857               	movf	??___flmul+3,w
  5447  015B  1103               	clrz
  5448  015C  1803               	skipnc
  5449  015D  3E01               	addlw	1
  5450  015E  1903               	skipnz
  5451  015F  2961               	goto	u3413
  5452  0160  07DD               	addwf	___flmul@grs+3,f
  5453  0161                     u3413:
  5454  0161                     l2603:
  5455  0161  0865               	movf	___flmul@temp+1,w
  5456  0162  00D4               	movwf	??___flmul
  5457  0163  01D5               	clrf	??___flmul+1
  5458  0164  01D6               	clrf	??___flmul+2
  5459  0165  01D7               	clrf	??___flmul+3
  5460  0166  0854               	movf	??___flmul,w
  5461  0167  07E0               	addwf	___flmul@prod,f
  5462  0168  0855               	movf	??___flmul+1,w
  5463  0169  1103               	clrz
  5464  016A  1803               	skipnc
  5465  016B  3E01               	addlw	1
  5466  016C  1903               	skipnz
  5467  016D  296F               	goto	u3421
  5468  016E  07E1               	addwf	___flmul@prod+1,f
  5469  016F                     u3421:
  5470  016F  0856               	movf	??___flmul+2,w
  5471  0170  1103               	clrz
  5472  0171  1803               	skipnc
  5473  0172  3E01               	addlw	1
  5474  0173  1903               	skipnz
  5475  0174  2976               	goto	u3422
  5476  0175  07E2               	addwf	___flmul@prod+2,f
  5477  0176                     u3422:
  5478  0176  0857               	movf	??___flmul+3,w
  5479  0177  1103               	clrz
  5480  0178  1803               	skipnc
  5481  0179  3E01               	addlw	1
  5482  017A  1903               	skipnz
  5483  017B  297D               	goto	u3423
  5484  017C  07E3               	addwf	___flmul@prod+3,f
  5485  017D                     u3423:
  5486  017D  084E               	movf	___flmul@b+2,w
  5487  017E  00D4               	movwf	??___flmul
  5488  017F  0854               	movf	??___flmul,w
  5489  0180  00F0               	movwf	__Umul8_16@multiplicand
  5490  0181  0850               	movf	___flmul@a,w
  5491  0182  160A  118A  241C  120A  118A  	fcall	__Umul8_16
  5492  0187  0871               	movf	?__Umul8_16+1,w
  5493  0188  1283               	bcf	3,5	;RP0=0, select bank0
  5494  0189  1303               	bcf	3,6	;RP1=0, select bank0
  5495  018A  00E5               	movwf	___flmul@temp+1
  5496  018B  0870               	movf	?__Umul8_16,w
  5497  018C  00E4               	movwf	___flmul@temp
  5498  018D                     l2605:
  5499  018D  0864               	movf	___flmul@temp,w
  5500  018E  00D4               	movwf	??___flmul
  5501  018F  01D5               	clrf	??___flmul+1
  5502  0190  01D6               	clrf	??___flmul+2
  5503  0191  01D7               	clrf	??___flmul+3
  5504  0192  0854               	movf	??___flmul,w
  5505  0193  07DA               	addwf	___flmul@grs,f
  5506  0194  0855               	movf	??___flmul+1,w
  5507  0195  1103               	clrz
  5508  0196  1803               	skipnc
  5509  0197  3E01               	addlw	1
  5510  0198  1903               	skipnz
  5511  0199  299B               	goto	u3431
  5512  019A  07DB               	addwf	___flmul@grs+1,f
  5513  019B                     u3431:
  5514  019B  0856               	movf	??___flmul+2,w
  5515  019C  1103               	clrz
  5516  019D  1803               	skipnc
  5517  019E  3E01               	addlw	1
  5518  019F  1903               	skipnz
  5519  01A0  29A2               	goto	u3432
  5520  01A1  07DC               	addwf	___flmul@grs+2,f
  5521  01A2                     u3432:
  5522  01A2  0857               	movf	??___flmul+3,w
  5523  01A3  1103               	clrz
  5524  01A4  1803               	skipnc
  5525  01A5  3E01               	addlw	1
  5526  01A6  1903               	skipnz
  5527  01A7  29A9               	goto	u3433
  5528  01A8  07DD               	addwf	___flmul@grs+3,f
  5529  01A9                     u3433:
  5530  01A9                     l2607:
  5531  01A9  0865               	movf	___flmul@temp+1,w
  5532  01AA  00D4               	movwf	??___flmul
  5533  01AB  01D5               	clrf	??___flmul+1
  5534  01AC  01D6               	clrf	??___flmul+2
  5535  01AD  01D7               	clrf	??___flmul+3
  5536  01AE  0854               	movf	??___flmul,w
  5537  01AF  07E0               	addwf	___flmul@prod,f
  5538  01B0  0855               	movf	??___flmul+1,w
  5539  01B1  1103               	clrz
  5540  01B2  1803               	skipnc
  5541  01B3  3E01               	addlw	1
  5542  01B4  1903               	skipnz
  5543  01B5  29B7               	goto	u3441
  5544  01B6  07E1               	addwf	___flmul@prod+1,f
  5545  01B7                     u3441:
  5546  01B7  0856               	movf	??___flmul+2,w
  5547  01B8  1103               	clrz
  5548  01B9  1803               	skipnc
  5549  01BA  3E01               	addlw	1
  5550  01BB  1903               	skipnz
  5551  01BC  29BE               	goto	u3442
  5552  01BD  07E2               	addwf	___flmul@prod+2,f
  5553  01BE                     u3442:
  5554  01BE  0857               	movf	??___flmul+3,w
  5555  01BF  1103               	clrz
  5556  01C0  1803               	skipnc
  5557  01C1  3E01               	addlw	1
  5558  01C2  1903               	skipnz
  5559  01C3  29C5               	goto	u3443
  5560  01C4  07E3               	addwf	___flmul@prod+3,f
  5561  01C5                     u3443:
  5562  01C5                     l2609:
  5563  01C5  3008               	movlw	8
  5564  01C6  00D4               	movwf	??___flmul
  5565  01C7                     u3455:
  5566  01C7  1003               	clrc
  5567  01C8  0DDA               	rlf	___flmul@grs,f
  5568  01C9  0DDB               	rlf	___flmul@grs+1,f
  5569  01CA  0DDC               	rlf	___flmul@grs+2,f
  5570  01CB  0DDD               	rlf	___flmul@grs+3,f
  5571  01CC  0BD4               	decfsz	??___flmul,f
  5572  01CD  29C7               	goto	u3455
  5573  01CE                     l2611:
  5574  01CE  084D               	movf	___flmul@b+1,w
  5575  01CF  00D4               	movwf	??___flmul
  5576  01D0  0854               	movf	??___flmul,w
  5577  01D1  00F0               	movwf	__Umul8_16@multiplicand
  5578  01D2  0850               	movf	___flmul@a,w
  5579  01D3  160A  118A  241C  120A  118A  	fcall	__Umul8_16
  5580  01D8  0871               	movf	?__Umul8_16+1,w
  5581  01D9  1283               	bcf	3,5	;RP0=0, select bank0
  5582  01DA  1303               	bcf	3,6	;RP1=0, select bank0
  5583  01DB  00E5               	movwf	___flmul@temp+1
  5584  01DC  0870               	movf	?__Umul8_16,w
  5585  01DD  00E4               	movwf	___flmul@temp
  5586  01DE                     l2613:
  5587  01DE  0864               	movf	___flmul@temp,w
  5588  01DF  00D4               	movwf	??___flmul
  5589  01E0  0865               	movf	___flmul@temp+1,w
  5590  01E1  00D5               	movwf	??___flmul+1
  5591  01E2  01D6               	clrf	??___flmul+2
  5592  01E3  01D7               	clrf	??___flmul+3
  5593  01E4  0854               	movf	??___flmul,w
  5594  01E5  07DA               	addwf	___flmul@grs,f
  5595  01E6  0855               	movf	??___flmul+1,w
  5596  01E7  1103               	clrz
  5597  01E8  1803               	skipnc
  5598  01E9  3E01               	addlw	1
  5599  01EA  1903               	skipnz
  5600  01EB  29ED               	goto	u3461
  5601  01EC  07DB               	addwf	___flmul@grs+1,f
  5602  01ED                     u3461:
  5603  01ED  0856               	movf	??___flmul+2,w
  5604  01EE  1103               	clrz
  5605  01EF  1803               	skipnc
  5606  01F0  3E01               	addlw	1
  5607  01F1  1903               	skipnz
  5608  01F2  29F4               	goto	u3462
  5609  01F3  07DC               	addwf	___flmul@grs+2,f
  5610  01F4                     u3462:
  5611  01F4  0857               	movf	??___flmul+3,w
  5612  01F5  1103               	clrz
  5613  01F6  1803               	skipnc
  5614  01F7  3E01               	addlw	1
  5615  01F8  1903               	skipnz
  5616  01F9  29FB               	goto	u3463
  5617  01FA  07DD               	addwf	___flmul@grs+3,f
  5618  01FB                     u3463:
  5619  01FB                     l2615:
  5620  01FB  084C               	movf	___flmul@b,w
  5621  01FC  00D4               	movwf	??___flmul
  5622  01FD  0854               	movf	??___flmul,w
  5623  01FE  00F0               	movwf	__Umul8_16@multiplicand
  5624  01FF  0851               	movf	___flmul@a+1,w
  5625  0200  160A  118A  241C  120A  118A  	fcall	__Umul8_16
  5626  0205  0871               	movf	?__Umul8_16+1,w
  5627  0206  1283               	bcf	3,5	;RP0=0, select bank0
  5628  0207  1303               	bcf	3,6	;RP1=0, select bank0
  5629  0208  00E5               	movwf	___flmul@temp+1
  5630  0209  0870               	movf	?__Umul8_16,w
  5631  020A  00E4               	movwf	___flmul@temp
  5632  020B                     l2617:
  5633  020B  0864               	movf	___flmul@temp,w
  5634  020C  00D4               	movwf	??___flmul
  5635  020D  0865               	movf	___flmul@temp+1,w
  5636  020E  00D5               	movwf	??___flmul+1
  5637  020F  01D6               	clrf	??___flmul+2
  5638  0210  01D7               	clrf	??___flmul+3
  5639  0211  0854               	movf	??___flmul,w
  5640  0212  07DA               	addwf	___flmul@grs,f
  5641  0213  0855               	movf	??___flmul+1,w
  5642  0214  1103               	clrz
  5643  0215  1803               	skipnc
  5644  0216  3E01               	addlw	1
  5645  0217  1903               	skipnz
  5646  0218  2A1A               	goto	u3471
  5647  0219  07DB               	addwf	___flmul@grs+1,f
  5648  021A                     u3471:
  5649  021A  0856               	movf	??___flmul+2,w
  5650  021B  1103               	clrz
  5651  021C  1803               	skipnc
  5652  021D  3E01               	addlw	1
  5653  021E  1903               	skipnz
  5654  021F  2A21               	goto	u3472
  5655  0220  07DC               	addwf	___flmul@grs+2,f
  5656  0221                     u3472:
  5657  0221  0857               	movf	??___flmul+3,w
  5658  0222  1103               	clrz
  5659  0223  1803               	skipnc
  5660  0224  3E01               	addlw	1
  5661  0225  1903               	skipnz
  5662  0226  2A28               	goto	u3473
  5663  0227  07DD               	addwf	___flmul@grs+3,f
  5664  0228                     u3473:
  5665  0228                     l2619:
  5666  0228  3008               	movlw	8
  5667  0229  00D4               	movwf	??___flmul
  5668  022A                     u3485:
  5669  022A  1003               	clrc
  5670  022B  0DDA               	rlf	___flmul@grs,f
  5671  022C  0DDB               	rlf	___flmul@grs+1,f
  5672  022D  0DDC               	rlf	___flmul@grs+2,f
  5673  022E  0DDD               	rlf	___flmul@grs+3,f
  5674  022F  0BD4               	decfsz	??___flmul,f
  5675  0230  2A2A               	goto	u3485
  5676  0231  084C               	movf	___flmul@b,w
  5677  0232  00D4               	movwf	??___flmul
  5678  0233  0854               	movf	??___flmul,w
  5679  0234  00F0               	movwf	__Umul8_16@multiplicand
  5680  0235  0850               	movf	___flmul@a,w
  5681  0236  160A  118A  241C  120A  118A  	fcall	__Umul8_16
  5682  023B  0871               	movf	?__Umul8_16+1,w
  5683  023C  1283               	bcf	3,5	;RP0=0, select bank0
  5684  023D  1303               	bcf	3,6	;RP1=0, select bank0
  5685  023E  00E5               	movwf	___flmul@temp+1
  5686  023F  0870               	movf	?__Umul8_16,w
  5687  0240  00E4               	movwf	___flmul@temp
  5688  0241                     l2621:
  5689  0241  0864               	movf	___flmul@temp,w
  5690  0242  00D4               	movwf	??___flmul
  5691  0243  0865               	movf	___flmul@temp+1,w
  5692  0244  00D5               	movwf	??___flmul+1
  5693  0245  01D6               	clrf	??___flmul+2
  5694  0246  01D7               	clrf	??___flmul+3
  5695  0247  0854               	movf	??___flmul,w
  5696  0248  07DA               	addwf	___flmul@grs,f
  5697  0249  0855               	movf	??___flmul+1,w
  5698  024A  1103               	clrz
  5699  024B  1803               	skipnc
  5700  024C  3E01               	addlw	1
  5701  024D  1903               	skipnz
  5702  024E  2A50               	goto	u3491
  5703  024F  07DB               	addwf	___flmul@grs+1,f
  5704  0250                     u3491:
  5705  0250  0856               	movf	??___flmul+2,w
  5706  0251  1103               	clrz
  5707  0252  1803               	skipnc
  5708  0253  3E01               	addlw	1
  5709  0254  1903               	skipnz
  5710  0255  2A57               	goto	u3492
  5711  0256  07DC               	addwf	___flmul@grs+2,f
  5712  0257                     u3492:
  5713  0257  0857               	movf	??___flmul+3,w
  5714  0258  1103               	clrz
  5715  0259  1803               	skipnc
  5716  025A  3E01               	addlw	1
  5717  025B  1903               	skipnz
  5718  025C  2A5E               	goto	u3493
  5719  025D  07DD               	addwf	___flmul@grs+3,f
  5720  025E                     u3493:
  5721  025E                     l2623:
  5722  025E  084D               	movf	___flmul@b+1,w
  5723  025F  00D4               	movwf	??___flmul
  5724  0260  0854               	movf	??___flmul,w
  5725  0261  00F0               	movwf	__Umul8_16@multiplicand
  5726  0262  0852               	movf	___flmul@a+2,w
  5727  0263  160A  118A  241C  120A  118A  	fcall	__Umul8_16
  5728  0268  0871               	movf	?__Umul8_16+1,w
  5729  0269  1283               	bcf	3,5	;RP0=0, select bank0
  5730  026A  1303               	bcf	3,6	;RP1=0, select bank0
  5731  026B  00E5               	movwf	___flmul@temp+1
  5732  026C  0870               	movf	?__Umul8_16,w
  5733  026D  00E4               	movwf	___flmul@temp
  5734  026E  0864               	movf	___flmul@temp,w
  5735  026F  00D4               	movwf	??___flmul
  5736  0270  0865               	movf	___flmul@temp+1,w
  5737  0271  00D5               	movwf	??___flmul+1
  5738  0272  01D6               	clrf	??___flmul+2
  5739  0273  01D7               	clrf	??___flmul+3
  5740  0274  0854               	movf	??___flmul,w
  5741  0275  07E0               	addwf	___flmul@prod,f
  5742  0276  0855               	movf	??___flmul+1,w
  5743  0277  1103               	clrz
  5744  0278  1803               	skipnc
  5745  0279  3E01               	addlw	1
  5746  027A  1903               	skipnz
  5747  027B  2A7D               	goto	u3501
  5748  027C  07E1               	addwf	___flmul@prod+1,f
  5749  027D                     u3501:
  5750  027D  0856               	movf	??___flmul+2,w
  5751  027E  1103               	clrz
  5752  027F  1803               	skipnc
  5753  0280  3E01               	addlw	1
  5754  0281  1903               	skipnz
  5755  0282  2A84               	goto	u3502
  5756  0283  07E2               	addwf	___flmul@prod+2,f
  5757  0284                     u3502:
  5758  0284  0857               	movf	??___flmul+3,w
  5759  0285  1103               	clrz
  5760  0286  1803               	skipnc
  5761  0287  3E01               	addlw	1
  5762  0288  1903               	skipnz
  5763  0289  2A8B               	goto	u3503
  5764  028A  07E3               	addwf	___flmul@prod+3,f
  5765  028B                     u3503:
  5766  028B                     l2625:
  5767  028B  084E               	movf	___flmul@b+2,w
  5768  028C  00D4               	movwf	??___flmul
  5769  028D  0854               	movf	??___flmul,w
  5770  028E  00F0               	movwf	__Umul8_16@multiplicand
  5771  028F  0851               	movf	___flmul@a+1,w
  5772  0290  160A  118A  241C  120A  118A  	fcall	__Umul8_16
  5773  0295  0871               	movf	?__Umul8_16+1,w
  5774  0296  1283               	bcf	3,5	;RP0=0, select bank0
  5775  0297  1303               	bcf	3,6	;RP1=0, select bank0
  5776  0298  00E5               	movwf	___flmul@temp+1
  5777  0299  0870               	movf	?__Umul8_16,w
  5778  029A  00E4               	movwf	___flmul@temp
  5779  029B                     l2627:
  5780  029B  0864               	movf	___flmul@temp,w
  5781  029C  00D4               	movwf	??___flmul
  5782  029D  0865               	movf	___flmul@temp+1,w
  5783  029E  00D5               	movwf	??___flmul+1
  5784  029F  01D6               	clrf	??___flmul+2
  5785  02A0  01D7               	clrf	??___flmul+3
  5786  02A1  0854               	movf	??___flmul,w
  5787  02A2  07E0               	addwf	___flmul@prod,f
  5788  02A3  0855               	movf	??___flmul+1,w
  5789  02A4  1103               	clrz
  5790  02A5  1803               	skipnc
  5791  02A6  3E01               	addlw	1
  5792  02A7  1903               	skipnz
  5793  02A8  2AAA               	goto	u3511
  5794  02A9  07E1               	addwf	___flmul@prod+1,f
  5795  02AA                     u3511:
  5796  02AA  0856               	movf	??___flmul+2,w
  5797  02AB  1103               	clrz
  5798  02AC  1803               	skipnc
  5799  02AD  3E01               	addlw	1
  5800  02AE  1903               	skipnz
  5801  02AF  2AB1               	goto	u3512
  5802  02B0  07E2               	addwf	___flmul@prod+2,f
  5803  02B1                     u3512:
  5804  02B1  0857               	movf	??___flmul+3,w
  5805  02B2  1103               	clrz
  5806  02B3  1803               	skipnc
  5807  02B4  3E01               	addlw	1
  5808  02B5  1903               	skipnz
  5809  02B6  2AB8               	goto	u3513
  5810  02B7  07E3               	addwf	___flmul@prod+3,f
  5811  02B8                     u3513:
  5812  02B8  084E               	movf	___flmul@b+2,w
  5813  02B9  00D4               	movwf	??___flmul
  5814  02BA  0854               	movf	??___flmul,w
  5815  02BB  00F0               	movwf	__Umul8_16@multiplicand
  5816  02BC  0852               	movf	___flmul@a+2,w
  5817  02BD  160A  118A  241C  120A  118A  	fcall	__Umul8_16
  5818  02C2  0871               	movf	?__Umul8_16+1,w
  5819  02C3  1283               	bcf	3,5	;RP0=0, select bank0
  5820  02C4  1303               	bcf	3,6	;RP1=0, select bank0
  5821  02C5  00E5               	movwf	___flmul@temp+1
  5822  02C6  0870               	movf	?__Umul8_16,w
  5823  02C7  00E4               	movwf	___flmul@temp
  5824  02C8                     l2629:
  5825  02C8  0864               	movf	___flmul@temp,w
  5826  02C9  00D4               	movwf	??___flmul
  5827  02CA  0865               	movf	___flmul@temp+1,w
  5828  02CB  00D5               	movwf	??___flmul+1
  5829  02CC  01D6               	clrf	??___flmul+2
  5830  02CD  01D7               	clrf	??___flmul+3
  5831  02CE  3008               	movlw	8
  5832  02CF                     u3525:
  5833  02CF  1003               	clrc
  5834  02D0  0DD4               	rlf	??___flmul,f
  5835  02D1  0DD5               	rlf	??___flmul+1,f
  5836  02D2  0DD6               	rlf	??___flmul+2,f
  5837  02D3  0DD7               	rlf	??___flmul+3,f
  5838  02D4                     u3520:
  5839  02D4  3EFF               	addlw	-1
  5840  02D5  1D03               	skipz
  5841  02D6  2ACF               	goto	u3525
  5842  02D7  0854               	movf	??___flmul,w
  5843  02D8  07E0               	addwf	___flmul@prod,f
  5844  02D9  0855               	movf	??___flmul+1,w
  5845  02DA  1103               	clrz
  5846  02DB  1803               	skipnc
  5847  02DC  3E01               	addlw	1
  5848  02DD  1903               	skipnz
  5849  02DE  2AE0               	goto	u3531
  5850  02DF  07E1               	addwf	___flmul@prod+1,f
  5851  02E0                     u3531:
  5852  02E0  0856               	movf	??___flmul+2,w
  5853  02E1  1103               	clrz
  5854  02E2  1803               	skipnc
  5855  02E3  3E01               	addlw	1
  5856  02E4  1903               	skipnz
  5857  02E5  2AE7               	goto	u3532
  5858  02E6  07E2               	addwf	___flmul@prod+2,f
  5859  02E7                     u3532:
  5860  02E7  0857               	movf	??___flmul+3,w
  5861  02E8  1103               	clrz
  5862  02E9  1803               	skipnc
  5863  02EA  3E01               	addlw	1
  5864  02EB  1903               	skipnz
  5865  02EC  2AEE               	goto	u3533
  5866  02ED  07E3               	addwf	___flmul@prod+3,f
  5867  02EE                     u3533:
  5868  02EE                     l2631:
  5869  02EE  085A               	movf	___flmul@grs,w
  5870  02EF  00D4               	movwf	??___flmul
  5871  02F0  085B               	movf	___flmul@grs+1,w
  5872  02F1  00D5               	movwf	??___flmul+1
  5873  02F2  085C               	movf	___flmul@grs+2,w
  5874  02F3  00D6               	movwf	??___flmul+2
  5875  02F4  085D               	movf	___flmul@grs+3,w
  5876  02F5  00D7               	movwf	??___flmul+3
  5877  02F6  3018               	movlw	24
  5878  02F7                     u3545:
  5879  02F7  1003               	clrc
  5880  02F8  0CD7               	rrf	??___flmul+3,f
  5881  02F9  0CD6               	rrf	??___flmul+2,f
  5882  02FA  0CD5               	rrf	??___flmul+1,f
  5883  02FB  0CD4               	rrf	??___flmul,f
  5884  02FC                     u3540:
  5885  02FC  3EFF               	addlw	-1
  5886  02FD  1D03               	skipz
  5887  02FE  2AF7               	goto	u3545
  5888  02FF  0854               	movf	??___flmul,w
  5889  0300  07E0               	addwf	___flmul@prod,f
  5890  0301  0855               	movf	??___flmul+1,w
  5891  0302  1103               	clrz
  5892  0303  1803               	skipnc
  5893  0304  3E01               	addlw	1
  5894  0305  1903               	skipnz
  5895  0306  2B08               	goto	u3551
  5896  0307  07E1               	addwf	___flmul@prod+1,f
  5897  0308                     u3551:
  5898  0308  0856               	movf	??___flmul+2,w
  5899  0309  1103               	clrz
  5900  030A  1803               	skipnc
  5901  030B  3E01               	addlw	1
  5902  030C  1903               	skipnz
  5903  030D  2B0F               	goto	u3552
  5904  030E  07E2               	addwf	___flmul@prod+2,f
  5905  030F                     u3552:
  5906  030F  0857               	movf	??___flmul+3,w
  5907  0310  1103               	clrz
  5908  0311  1803               	skipnc
  5909  0312  3E01               	addlw	1
  5910  0313  1903               	skipnz
  5911  0314  2B16               	goto	u3553
  5912  0315  07E3               	addwf	___flmul@prod+3,f
  5913  0316                     u3553:
  5914  0316                     l2633:
  5915  0316  3008               	movlw	8
  5916  0317  00D4               	movwf	??___flmul
  5917  0318                     u3565:
  5918  0318  1003               	clrc
  5919  0319  0DDA               	rlf	___flmul@grs,f
  5920  031A  0DDB               	rlf	___flmul@grs+1,f
  5921  031B  0DDC               	rlf	___flmul@grs+2,f
  5922  031C  0DDD               	rlf	___flmul@grs+3,f
  5923  031D  0BD4               	decfsz	??___flmul,f
  5924  031E  2B18               	goto	u3565
  5925  031F                     l2635:
  5926  031F  085F               	movf	___flmul@bexp,w
  5927  0320  075E               	addwf	___flmul@aexp,w
  5928  0321  00D4               	movwf	??___flmul
  5929  0322  01D5               	clrf	??___flmul+1
  5930  0323  0DD5               	rlf	??___flmul+1,f
  5931  0324  0854               	movf	??___flmul,w
  5932  0325  3E82               	addlw	130
  5933  0326  00E4               	movwf	___flmul@temp
  5934  0327  0855               	movf	??___flmul+1,w
  5935  0328  1803               	skipnc
  5936  0329  3E01               	addlw	1
  5937  032A  3EFF               	addlw	255
  5938  032B  00E5               	movwf	___flmul@temp+1
  5939  032C  2B4A               	goto	l2647
  5940  032D                     l2637:
  5941  032D  3001               	movlw	1
  5942  032E  00D4               	movwf	??___flmul
  5943  032F                     u3575:
  5944  032F  1003               	clrc
  5945  0330  0DE0               	rlf	___flmul@prod,f
  5946  0331  0DE1               	rlf	___flmul@prod+1,f
  5947  0332  0DE2               	rlf	___flmul@prod+2,f
  5948  0333  0DE3               	rlf	___flmul@prod+3,f
  5949  0334  0BD4               	decfsz	??___flmul,f
  5950  0335  2B2F               	goto	u3575
  5951  0336                     l2639:
  5952  0336  1FDD               	btfss	___flmul@grs+3,7
  5953  0337  2B39               	goto	u3581
  5954  0338  2B3A               	goto	u3580
  5955  0339                     u3581:
  5956  0339  2B3B               	goto	l2643
  5957  033A                     u3580:
  5958  033A                     l2641:
  5959  033A  1460               	bsf	___flmul@prod,0
  5960  033B                     l2643:
  5961  033B  3001               	movlw	1
  5962  033C  00D4               	movwf	??___flmul
  5963  033D                     u3595:
  5964  033D  1003               	clrc
  5965  033E  0DDA               	rlf	___flmul@grs,f
  5966  033F  0DDB               	rlf	___flmul@grs+1,f
  5967  0340  0DDC               	rlf	___flmul@grs+2,f
  5968  0341  0DDD               	rlf	___flmul@grs+3,f
  5969  0342  0BD4               	decfsz	??___flmul,f
  5970  0343  2B3D               	goto	u3595
  5971  0344                     l2645:
  5972  0344  30FF               	movlw	255
  5973  0345  07E4               	addwf	___flmul@temp,f
  5974  0346  1803               	skipnc
  5975  0347  0AE5               	incf	___flmul@temp+1,f
  5976  0348  30FF               	movlw	255
  5977  0349  07E5               	addwf	___flmul@temp+1,f
  5978  034A                     l2647:
  5979  034A  1FE2               	btfss	___flmul@prod+2,7
  5980  034B  2B4D               	goto	u3601
  5981  034C  2B4E               	goto	u3600
  5982  034D                     u3601:
  5983  034D  2B2D               	goto	l2637
  5984  034E                     u3600:
  5985  034E                     l2649:
  5986  034E  01DE               	clrf	___flmul@aexp
  5987  034F                     l2651:
  5988  034F  1FDD               	btfss	___flmul@grs+3,7
  5989  0350  2B52               	goto	u3611
  5990  0351  2B53               	goto	u3610
  5991  0352                     u3611:
  5992  0352  2B6F               	goto	l2659
  5993  0353                     u3610:
  5994  0353                     l2653:
  5995  0353  30FF               	movlw	255
  5996  0354  055A               	andwf	___flmul@grs,w
  5997  0355  00D4               	movwf	??___flmul
  5998  0356  30FF               	movlw	255
  5999  0357  055B               	andwf	___flmul@grs+1,w
  6000  0358  00D5               	movwf	??___flmul+1
  6001  0359  30FF               	movlw	255
  6002  035A  055C               	andwf	___flmul@grs+2,w
  6003  035B  00D6               	movwf	??___flmul+2
  6004  035C  307F               	movlw	127
  6005  035D  055D               	andwf	___flmul@grs+3,w
  6006  035E  00D7               	movwf	??___flmul+3
  6007  035F  0857               	movf	??___flmul+3,w
  6008  0360  0456               	iorwf	??___flmul+2,w
  6009  0361  0455               	iorwf	??___flmul+1,w
  6010  0362  0454               	iorwf	??___flmul,w
  6011  0363  1903               	skipnz
  6012  0364  2B66               	goto	u3621
  6013  0365  2B67               	goto	u3620
  6014  0366                     u3621:
  6015  0366  2B6A               	goto	l700
  6016  0367                     u3620:
  6017  0367                     l2655:
  6018  0367  01DE               	clrf	___flmul@aexp
  6019  0368  0ADE               	incf	___flmul@aexp,f
  6020  0369  2B6F               	goto	l2659
  6021  036A                     l700:
  6022  036A  1C60               	btfss	___flmul@prod,0
  6023  036B  2B6D               	goto	u3631
  6024  036C  2B6E               	goto	u3630
  6025  036D                     u3631:
  6026  036D  2B6F               	goto	l2659
  6027  036E                     u3630:
  6028  036E  2B67               	goto	l2655
  6029  036F                     l2659:
  6030  036F  085E               	movf	___flmul@aexp,w
  6031  0370  1903               	btfsc	3,2
  6032  0371  2B73               	goto	u3641
  6033  0372  2B74               	goto	u3640
  6034  0373                     u3641:
  6035  0373  2BA5               	goto	l2669
  6036  0374                     u3640:
  6037  0374                     l2661:
  6038  0374  3001               	movlw	1
  6039  0375  07E0               	addwf	___flmul@prod,f
  6040  0376  3000               	movlw	0
  6041  0377  1803               	skipnc
  6042  0378  3001               	movlw	1
  6043  0379  07E1               	addwf	___flmul@prod+1,f
  6044  037A  3000               	movlw	0
  6045  037B  1803               	skipnc
  6046  037C  3001               	movlw	1
  6047  037D  07E2               	addwf	___flmul@prod+2,f
  6048  037E  3000               	movlw	0
  6049  037F  1803               	skipnc
  6050  0380  3001               	movlw	1
  6051  0381  07E3               	addwf	___flmul@prod+3,f
  6052  0382                     l2663:
  6053  0382  1C63               	btfss	___flmul@prod+3,0
  6054  0383  2B85               	goto	u3651
  6055  0384  2B86               	goto	u3650
  6056  0385                     u3651:
  6057  0385  2BA5               	goto	l2669
  6058  0386                     u3650:
  6059  0386                     l2665:
  6060  0386  0860               	movf	___flmul@prod,w
  6061  0387  00D4               	movwf	??___flmul
  6062  0388  0861               	movf	___flmul@prod+1,w
  6063  0389  00D5               	movwf	??___flmul+1
  6064  038A  0862               	movf	___flmul@prod+2,w
  6065  038B  00D6               	movwf	??___flmul+2
  6066  038C  0863               	movf	___flmul@prod+3,w
  6067  038D  00D7               	movwf	??___flmul+3
  6068  038E  3001               	movlw	1
  6069  038F  00D8               	movwf	??___flmul+4
  6070  0390                     u3665:
  6071  0390  0D57               	rlf	??___flmul+3,w
  6072  0391  0CD7               	rrf	??___flmul+3,f
  6073  0392  0CD6               	rrf	??___flmul+2,f
  6074  0393  0CD5               	rrf	??___flmul+1,f
  6075  0394  0CD4               	rrf	??___flmul,f
  6076  0395                     u3660:
  6077  0395  0BD8               	decfsz	??___flmul+4,f
  6078  0396  2B90               	goto	u3665
  6079  0397  0857               	movf	??___flmul+3,w
  6080  0398  00E3               	movwf	___flmul@prod+3
  6081  0399  0856               	movf	??___flmul+2,w
  6082  039A  00E2               	movwf	___flmul@prod+2
  6083  039B  0855               	movf	??___flmul+1,w
  6084  039C  00E1               	movwf	___flmul@prod+1
  6085  039D  0854               	movf	??___flmul,w
  6086  039E  00E0               	movwf	___flmul@prod
  6087  039F                     l2667:
  6088  039F  3001               	movlw	1
  6089  03A0  07E4               	addwf	___flmul@temp,f
  6090  03A1  1803               	skipnc
  6091  03A2  0AE5               	incf	___flmul@temp+1,f
  6092  03A3  3000               	movlw	0
  6093  03A4  07E5               	addwf	___flmul@temp+1,f
  6094  03A5                     l2669:
  6095  03A5  0865               	movf	___flmul@temp+1,w
  6096  03A6  3A80               	xorlw	128
  6097  03A7  00FF               	movwf	btemp+1
  6098  03A8  3080               	movlw	128
  6099  03A9  027F               	subwf	btemp+1,w
  6100  03AA  1D03               	skipz
  6101  03AB  2BAE               	goto	u3675
  6102  03AC  30FF               	movlw	255
  6103  03AD  0264               	subwf	___flmul@temp,w
  6104  03AE                     u3675:
  6105  03AE  1C03               	skipc
  6106  03AF  2BB1               	goto	u3671
  6107  03B0  2BB2               	goto	u3670
  6108  03B1                     u3671:
  6109  03B1  2BBD               	goto	l2673
  6110  03B2                     u3670:
  6111  03B2                     l2671:
  6112  03B2  307F               	movlw	127
  6113  03B3  1283               	bcf	3,5	;RP0=0, select bank0
  6114  03B4  1303               	bcf	3,6	;RP1=0, select bank0
  6115  03B5  00E3               	movwf	___flmul@prod+3
  6116  03B6  3080               	movlw	128
  6117  03B7  00E2               	movwf	___flmul@prod+2
  6118  03B8  3000               	movlw	0
  6119  03B9  00E1               	movwf	___flmul@prod+1
  6120  03BA  3000               	movlw	0
  6121  03BB  00E0               	movwf	___flmul@prod
  6122  03BC  2BF2               	goto	l706
  6123  03BD                     l2673:
  6124  03BD  1283               	bcf	3,5	;RP0=0, select bank0
  6125  03BE  1303               	bcf	3,6	;RP1=0, select bank0
  6126  03BF  0865               	movf	___flmul@temp+1,w
  6127  03C0  3A80               	xorlw	128
  6128  03C1  00FF               	movwf	btemp+1
  6129  03C2  3080               	movlw	128
  6130  03C3  027F               	subwf	btemp+1,w
  6131  03C4  1D03               	skipz
  6132  03C5  2BC8               	goto	u3685
  6133  03C6  3001               	movlw	1
  6134  03C7  0264               	subwf	___flmul@temp,w
  6135  03C8                     u3685:
  6136  03C8  1803               	skipnc
  6137  03C9  2BCB               	goto	u3681
  6138  03CA  2BCC               	goto	u3680
  6139  03CB                     u3681:
  6140  03CB  2BD8               	goto	l2679
  6141  03CC                     u3680:
  6142  03CC                     l2675:
  6143  03CC  3000               	movlw	0
  6144  03CD  1283               	bcf	3,5	;RP0=0, select bank0
  6145  03CE  1303               	bcf	3,6	;RP1=0, select bank0
  6146  03CF  00E3               	movwf	___flmul@prod+3
  6147  03D0  3000               	movlw	0
  6148  03D1  00E2               	movwf	___flmul@prod+2
  6149  03D2  3000               	movlw	0
  6150  03D3  00E1               	movwf	___flmul@prod+1
  6151  03D4  3000               	movlw	0
  6152  03D5  00E0               	movwf	___flmul@prod
  6153  03D6                     l2677:
  6154  03D6  01D9               	clrf	___flmul@sign
  6155  03D7  2BF2               	goto	l706
  6156  03D8                     l2679:
  6157  03D8  1283               	bcf	3,5	;RP0=0, select bank0
  6158  03D9  1303               	bcf	3,6	;RP1=0, select bank0
  6159  03DA  0864               	movf	___flmul@temp,w
  6160  03DB  00D4               	movwf	??___flmul
  6161  03DC  0854               	movf	??___flmul,w
  6162  03DD  00DF               	movwf	___flmul@bexp
  6163  03DE  30FF               	movlw	255
  6164  03DF  05E0               	andwf	___flmul@prod,f
  6165  03E0  30FF               	movlw	255
  6166  03E1  05E1               	andwf	___flmul@prod+1,f
  6167  03E2  307F               	movlw	127
  6168  03E3  05E2               	andwf	___flmul@prod+2,f
  6169  03E4  3000               	movlw	0
  6170  03E5  05E3               	andwf	___flmul@prod+3,f
  6171  03E6                     l2681:
  6172  03E6  1C5F               	btfss	___flmul@bexp,0
  6173  03E7  2BE9               	goto	u3691
  6174  03E8  2BEA               	goto	u3690
  6175  03E9                     u3691:
  6176  03E9  2BEB               	goto	l2685
  6177  03EA                     u3690:
  6178  03EA                     l2683:
  6179  03EA  17E2               	bsf	___flmul@prod+2,7
  6180  03EB                     l2685:
  6181  03EB  085F               	movf	___flmul@bexp,w
  6182  03EC  00D4               	movwf	??___flmul
  6183  03ED  1003               	clrc
  6184  03EE  0C54               	rrf	??___flmul,w
  6185  03EF  00D5               	movwf	??___flmul+1
  6186  03F0  0855               	movf	??___flmul+1,w
  6187  03F1  00E3               	movwf	___flmul@prod+3
  6188  03F2                     l706:
  6189  03F2  0859               	movf	___flmul@sign,w
  6190  03F3  00D4               	movwf	??___flmul
  6191  03F4  0854               	movf	??___flmul,w
  6192  03F5  04E3               	iorwf	___flmul@prod+3,f
  6193  03F6                     l2687:
  6194  03F6  0863               	movf	___flmul@prod+3,w
  6195  03F7  00CF               	movwf	?___flmul+3
  6196  03F8  0862               	movf	___flmul@prod+2,w
  6197  03F9  00CE               	movwf	?___flmul+2
  6198  03FA  0861               	movf	___flmul@prod+1,w
  6199  03FB  00CD               	movwf	?___flmul+1
  6200  03FC  0860               	movf	___flmul@prod,w
  6201  03FD  00CC               	movwf	?___flmul
  6202  03FE                     l694:
  6203  03FE  0008               	return
  6204  03FF                     __end_of___flmul:
  6205                           
  6206                           	psect	text15
  6207  141C                     __ptext15:	
  6208 ;; *************** function __Umul8_16 *****************
  6209 ;; Defined at:
  6210 ;;		line 4 in file "C:\Program Files\Microchip\xc8\v2.31\pic\sources\c90\common\Umul8_16.c"
  6211 ;; Parameters:    Size  Location     Type
  6212 ;;  multiplier      1    wreg     unsigned char 
  6213 ;;  multiplicand    1    0[COMMON] unsigned char 
  6214 ;; Auto vars:     Size  Location     Type
  6215 ;;  multiplier      1    8[COMMON] unsigned char 
  6216 ;;  word_mpld       2    6[COMMON] unsigned int 
  6217 ;;  product         2    4[COMMON] unsigned int 
  6218 ;; Return value:  Size  Location     Type
  6219 ;;                  2    0[COMMON] unsigned int 
  6220 ;; Registers used:
  6221 ;;		wreg, status,2, status,0
  6222 ;; Tracked objects:
  6223 ;;		On entry : 0/0
  6224 ;;		On exit  : 0/0
  6225 ;;		Unchanged: 0/0
  6226 ;; Data sizes:     COMMON   BANK0   BANK1   BANK3   BANK2
  6227 ;;      Params:         2       0       0       0       0
  6228 ;;      Locals:         5       0       0       0       0
  6229 ;;      Temps:          2       0       0       0       0
  6230 ;;      Totals:         9       0       0       0       0
  6231 ;;Total ram usage:        9 bytes
  6232 ;; Hardware stack levels used:    1
  6233 ;; This function calls:
  6234 ;;		Nothing
  6235 ;; This function is called by:
  6236 ;;		___flmul
  6237 ;; This function uses a non-reentrant model
  6238 ;;
  6239                           
  6240                           
  6241                           ;psect for function __Umul8_16
  6242  141C                     __Umul8_16:
  6243                           
  6244                           ;incstack = 0
  6245                           ; Regs used in __Umul8_16: [wreg+status,2+status,0]
  6246                           ;__Umul8_16@multiplier stored from wreg
  6247  141C  00F8               	movwf	__Umul8_16@multiplier
  6248  141D                     l2173:
  6249  141D  01F4               	clrf	__Umul8_16@product
  6250  141E  01F5               	clrf	__Umul8_16@product+1
  6251  141F                     l2175:
  6252  141F  0870               	movf	__Umul8_16@multiplicand,w
  6253  1420  00F2               	movwf	??__Umul8_16
  6254  1421  01F3               	clrf	??__Umul8_16+1
  6255  1422  0872               	movf	??__Umul8_16,w
  6256  1423  00F6               	movwf	__Umul8_16@word_mpld
  6257  1424  0873               	movf	??__Umul8_16+1,w
  6258  1425  00F7               	movwf	__Umul8_16@word_mpld+1
  6259  1426                     l2177:
  6260  1426  1C78               	btfss	__Umul8_16@multiplier,0
  6261  1427  2C29               	goto	u2501
  6262  1428  2C2A               	goto	u2500
  6263  1429                     u2501:
  6264  1429  2C30               	goto	l713
  6265  142A                     u2500:
  6266  142A                     l2179:
  6267  142A  0876               	movf	__Umul8_16@word_mpld,w
  6268  142B  07F4               	addwf	__Umul8_16@product,f
  6269  142C  1803               	skipnc
  6270  142D  0AF5               	incf	__Umul8_16@product+1,f
  6271  142E  0877               	movf	__Umul8_16@word_mpld+1,w
  6272  142F  07F5               	addwf	__Umul8_16@product+1,f
  6273  1430                     l713:
  6274  1430  3001               	movlw	1
  6275  1431                     u2515:
  6276  1431  1003               	clrc
  6277  1432  0DF6               	rlf	__Umul8_16@word_mpld,f
  6278  1433  0DF7               	rlf	__Umul8_16@word_mpld+1,f
  6279  1434  3EFF               	addlw	-1
  6280  1435  1D03               	skipz
  6281  1436  2C31               	goto	u2515
  6282  1437  1003               	clrc
  6283  1438  0CF8               	rrf	__Umul8_16@multiplier,f
  6284  1439                     l2181:
  6285  1439  0878               	movf	__Umul8_16@multiplier,w
  6286  143A  1D03               	btfss	3,2
  6287  143B  2C3D               	goto	u2521
  6288  143C  2C3E               	goto	u2520
  6289  143D                     u2521:
  6290  143D  2C26               	goto	l2177
  6291  143E                     u2520:
  6292  143E                     l2183:
  6293  143E  0875               	movf	__Umul8_16@product+1,w
  6294  143F  00F1               	movwf	?__Umul8_16+1
  6295  1440  0874               	movf	__Umul8_16@product,w
  6296  1441  00F0               	movwf	?__Umul8_16
  6297  1442                     l715:
  6298  1442  0008               	return
  6299  1443                     __end_of__Umul8_16:
  6300                           
  6301                           	psect	text16
  6302  16A2                     __ptext16:	
  6303 ;; *************** function ___flge *****************
  6304 ;; Defined at:
  6305 ;;		line 4 in file "C:\Program Files\Microchip\xc8\v2.31\pic\sources\c90\common\flge.c"
  6306 ;; Parameters:    Size  Location     Type
  6307 ;;  ff1             4    0[COMMON] unsigned int 
  6308 ;;  ff2             4    4[COMMON] unsigned int 
  6309 ;; Auto vars:     Size  Location     Type
  6310 ;;		None
  6311 ;; Return value:  Size  Location     Type
  6312 ;;		None               void
  6313 ;; Registers used:
  6314 ;;		wreg, status,2, status,0
  6315 ;; Tracked objects:
  6316 ;;		On entry : 0/0
  6317 ;;		On exit  : 0/0
  6318 ;;		Unchanged: 0/0
  6319 ;; Data sizes:     COMMON   BANK0   BANK1   BANK3   BANK2
  6320 ;;      Params:         8       0       0       0       0
  6321 ;;      Locals:         0       0       0       0       0
  6322 ;;      Temps:          4       0       0       0       0
  6323 ;;      Totals:        12       0       0       0       0
  6324 ;;Total ram usage:       12 bytes
  6325 ;; Hardware stack levels used:    1
  6326 ;; This function calls:
  6327 ;;		Nothing
  6328 ;; This function is called by:
  6329 ;;		_convert
  6330 ;; This function uses a non-reentrant model
  6331 ;;
  6332                           
  6333                           
  6334                           ;psect for function ___flge
  6335  16A2                     ___flge:
  6336  16A2                     l2347:	
  6337                           ;incstack = 0
  6338                           ; Regs used in ___flge: [wreg+status,2+status,0]
  6339                           
  6340  16A2  3000               	movlw	0
  6341  16A3  0570               	andwf	___flge@ff1,w
  6342  16A4  00F8               	movwf	??___flge
  6343  16A5  3000               	movlw	0
  6344  16A6  0571               	andwf	___flge@ff1+1,w
  6345  16A7  00F9               	movwf	??___flge+1
  6346  16A8  3080               	movlw	128
  6347  16A9  0572               	andwf	___flge@ff1+2,w
  6348  16AA  00FA               	movwf	??___flge+2
  6349  16AB  307F               	movlw	127
  6350  16AC  0573               	andwf	___flge@ff1+3,w
  6351  16AD  00FB               	movwf	??___flge+3
  6352  16AE  087B               	movf	??___flge+3,w
  6353  16AF  047A               	iorwf	??___flge+2,w
  6354  16B0  0479               	iorwf	??___flge+1,w
  6355  16B1  0478               	iorwf	??___flge,w
  6356  16B2  1D03               	skipz
  6357  16B3  2EB5               	goto	u2871
  6358  16B4  2EB6               	goto	u2870
  6359  16B5                     u2871:
  6360  16B5  2EBE               	goto	l479
  6361  16B6                     u2870:
  6362  16B6                     l2349:
  6363  16B6  3000               	movlw	0
  6364  16B7  00F3               	movwf	___flge@ff1+3
  6365  16B8  3000               	movlw	0
  6366  16B9  00F2               	movwf	___flge@ff1+2
  6367  16BA  3000               	movlw	0
  6368  16BB  00F1               	movwf	___flge@ff1+1
  6369  16BC  3000               	movlw	0
  6370  16BD  00F0               	movwf	___flge@ff1
  6371  16BE                     l479:
  6372  16BE  3000               	movlw	0
  6373  16BF  0574               	andwf	___flge@ff2,w
  6374  16C0  00F8               	movwf	??___flge
  6375  16C1  3000               	movlw	0
  6376  16C2  0575               	andwf	___flge@ff2+1,w
  6377  16C3  00F9               	movwf	??___flge+1
  6378  16C4  3080               	movlw	128
  6379  16C5  0576               	andwf	___flge@ff2+2,w
  6380  16C6  00FA               	movwf	??___flge+2
  6381  16C7  307F               	movlw	127
  6382  16C8  0577               	andwf	___flge@ff2+3,w
  6383  16C9  00FB               	movwf	??___flge+3
  6384  16CA  087B               	movf	??___flge+3,w
  6385  16CB  047A               	iorwf	??___flge+2,w
  6386  16CC  0479               	iorwf	??___flge+1,w
  6387  16CD  0478               	iorwf	??___flge,w
  6388  16CE  1D03               	skipz
  6389  16CF  2ED1               	goto	u2881
  6390  16D0  2ED2               	goto	u2880
  6391  16D1                     u2881:
  6392  16D1  2EDA               	goto	l2353
  6393  16D2                     u2880:
  6394  16D2                     l2351:
  6395  16D2  3000               	movlw	0
  6396  16D3  00F7               	movwf	___flge@ff2+3
  6397  16D4  3000               	movlw	0
  6398  16D5  00F6               	movwf	___flge@ff2+2
  6399  16D6  3000               	movlw	0
  6400  16D7  00F5               	movwf	___flge@ff2+1
  6401  16D8  3000               	movlw	0
  6402  16D9  00F4               	movwf	___flge@ff2
  6403  16DA                     l2353:
  6404  16DA  1FF3               	btfss	___flge@ff1+3,7
  6405  16DB  2EDD               	goto	u2891
  6406  16DC  2EDE               	goto	u2890
  6407  16DD                     u2891:
  6408  16DD  2F02               	goto	l2357
  6409  16DE                     u2890:
  6410  16DE                     l2355:
  6411  16DE  3000               	movlw	0
  6412  16DF  00F8               	movwf	??___flge
  6413  16E0  3000               	movlw	0
  6414  16E1  00F9               	movwf	??___flge+1
  6415  16E2  3000               	movlw	0
  6416  16E3  00FA               	movwf	??___flge+2
  6417  16E4  3080               	movlw	128
  6418  16E5  00FB               	movwf	??___flge+3
  6419  16E6  0870               	movf	___flge@ff1,w
  6420  16E7  02F8               	subwf	??___flge,f
  6421  16E8  0871               	movf	___flge@ff1+1,w
  6422  16E9  1C03               	skipc
  6423  16EA  0F71               	incfsz	___flge@ff1+1,w
  6424  16EB  2EED               	goto	u2901
  6425  16EC  2EEE               	goto	u2902
  6426  16ED                     u2901:
  6427  16ED  02F9               	subwf	??___flge+1,f
  6428  16EE                     u2902:
  6429  16EE  0872               	movf	___flge@ff1+2,w
  6430  16EF  1C03               	skipc
  6431  16F0  0F72               	incfsz	___flge@ff1+2,w
  6432  16F1  2EF3               	goto	u2903
  6433  16F2  2EF4               	goto	u2904
  6434  16F3                     u2903:
  6435  16F3  02FA               	subwf	??___flge+2,f
  6436  16F4                     u2904:
  6437  16F4  0873               	movf	___flge@ff1+3,w
  6438  16F5  1C03               	skipc
  6439  16F6  0F73               	incfsz	___flge@ff1+3,w
  6440  16F7  2EF9               	goto	u2905
  6441  16F8  2EFA               	goto	u2906
  6442  16F9                     u2905:
  6443  16F9  02FB               	subwf	??___flge+3,f
  6444  16FA                     u2906:
  6445  16FA  087B               	movf	??___flge+3,w
  6446  16FB  00F3               	movwf	___flge@ff1+3
  6447  16FC  087A               	movf	??___flge+2,w
  6448  16FD  00F2               	movwf	___flge@ff1+2
  6449  16FE  0879               	movf	??___flge+1,w
  6450  16FF  00F1               	movwf	___flge@ff1+1
  6451  1700  0878               	movf	??___flge,w
  6452  1701  00F0               	movwf	___flge@ff1
  6453  1702                     l2357:
  6454  1702  1FF7               	btfss	___flge@ff2+3,7
  6455  1703  2F05               	goto	u2911
  6456  1704  2F06               	goto	u2910
  6457  1705                     u2911:
  6458  1705  2F2A               	goto	l482
  6459  1706                     u2910:
  6460  1706                     l2359:
  6461  1706  3000               	movlw	0
  6462  1707  00F8               	movwf	??___flge
  6463  1708  3000               	movlw	0
  6464  1709  00F9               	movwf	??___flge+1
  6465  170A  3000               	movlw	0
  6466  170B  00FA               	movwf	??___flge+2
  6467  170C  3080               	movlw	128
  6468  170D  00FB               	movwf	??___flge+3
  6469  170E  0874               	movf	___flge@ff2,w
  6470  170F  02F8               	subwf	??___flge,f
  6471  1710  0875               	movf	___flge@ff2+1,w
  6472  1711  1C03               	skipc
  6473  1712  0F75               	incfsz	___flge@ff2+1,w
  6474  1713  2F15               	goto	u2921
  6475  1714  2F16               	goto	u2922
  6476  1715                     u2921:
  6477  1715  02F9               	subwf	??___flge+1,f
  6478  1716                     u2922:
  6479  1716  0876               	movf	___flge@ff2+2,w
  6480  1717  1C03               	skipc
  6481  1718  0F76               	incfsz	___flge@ff2+2,w
  6482  1719  2F1B               	goto	u2923
  6483  171A  2F1C               	goto	u2924
  6484  171B                     u2923:
  6485  171B  02FA               	subwf	??___flge+2,f
  6486  171C                     u2924:
  6487  171C  0877               	movf	___flge@ff2+3,w
  6488  171D  1C03               	skipc
  6489  171E  0F77               	incfsz	___flge@ff2+3,w
  6490  171F  2F21               	goto	u2925
  6491  1720  2F22               	goto	u2926
  6492  1721                     u2925:
  6493  1721  02FB               	subwf	??___flge+3,f
  6494  1722                     u2926:
  6495  1722  087B               	movf	??___flge+3,w
  6496  1723  00F7               	movwf	___flge@ff2+3
  6497  1724  087A               	movf	??___flge+2,w
  6498  1725  00F6               	movwf	___flge@ff2+2
  6499  1726  0879               	movf	??___flge+1,w
  6500  1727  00F5               	movwf	___flge@ff2+1
  6501  1728  0878               	movf	??___flge,w
  6502  1729  00F4               	movwf	___flge@ff2
  6503  172A                     l482:
  6504  172A  3080               	movlw	128
  6505  172B  06F3               	xorwf	___flge@ff1+3,f
  6506  172C  3080               	movlw	128
  6507  172D  06F7               	xorwf	___flge@ff2+3,f
  6508  172E  0877               	movf	___flge@ff2+3,w
  6509  172F  0273               	subwf	___flge@ff1+3,w
  6510  1730  1D03               	skipz
  6511  1731  2F3C               	goto	u2935
  6512  1732  0876               	movf	___flge@ff2+2,w
  6513  1733  0272               	subwf	___flge@ff1+2,w
  6514  1734  1D03               	skipz
  6515  1735  2F3C               	goto	u2935
  6516  1736  0875               	movf	___flge@ff2+1,w
  6517  1737  0271               	subwf	___flge@ff1+1,w
  6518  1738  1D03               	skipz
  6519  1739  2F3C               	goto	u2935
  6520  173A  0874               	movf	___flge@ff2,w
  6521  173B  0270               	subwf	___flge@ff1,w
  6522  173C                     u2935:
  6523  173C  1803               	skipnc
  6524  173D  2F3F               	goto	u2931
  6525  173E  2F40               	goto	u2930
  6526  173F                     u2931:
  6527  173F  2F42               	goto	l2363
  6528  1740                     u2930:
  6529  1740                     l2361:
  6530  1740  1003               	clrc
  6531  1741  2F43               	goto	l483
  6532  1742                     l2363:
  6533  1742  1403               	setc
  6534  1743                     l483:
  6535  1743  0008               	return
  6536  1744                     __end_of___flge:
  6537                           
  6538                           	psect	text17
  6539  0891                     __ptext17:	
  6540 ;; *************** function ___fldiv *****************
  6541 ;; Defined at:
  6542 ;;		line 8 in file "C:\Program Files\Microchip\xc8\v2.31\pic\sources\c90\common\sprcdiv.c"
  6543 ;; Parameters:    Size  Location     Type
  6544 ;;  a               4   18[BANK0 ] unsigned int 
  6545 ;;  b               4   22[BANK0 ] unsigned int 
  6546 ;; Auto vars:     Size  Location     Type
  6547 ;;  grs             4   38[BANK0 ] unsigned long 
  6548 ;;  rem             4   31[BANK0 ] unsigned long 
  6549 ;;  new_exp         2   36[BANK0 ] int 
  6550 ;;  aexp            1   43[BANK0 ] unsigned char 
  6551 ;;  bexp            1   42[BANK0 ] unsigned char 
  6552 ;;  sign            1   35[BANK0 ] unsigned char 
  6553 ;; Return value:  Size  Location     Type
  6554 ;;                  4   18[BANK0 ] unsigned char 
  6555 ;; Registers used:
  6556 ;;		wreg, status,2, status,0, btemp+1
  6557 ;; Tracked objects:
  6558 ;;		On entry : 0/0
  6559 ;;		On exit  : 0/0
  6560 ;;		Unchanged: 0/0
  6561 ;; Data sizes:     COMMON   BANK0   BANK1   BANK3   BANK2
  6562 ;;      Params:         0       8       0       0       0
  6563 ;;      Locals:         0      13       0       0       0
  6564 ;;      Temps:          0       5       0       0       0
  6565 ;;      Totals:         0      26       0       0       0
  6566 ;;Total ram usage:       26 bytes
  6567 ;; Hardware stack levels used:    1
  6568 ;; This function calls:
  6569 ;;		Nothing
  6570 ;; This function is called by:
  6571 ;;		_main
  6572 ;;		_convert
  6573 ;; This function uses a non-reentrant model
  6574 ;;
  6575                           
  6576                           
  6577                           ;psect for function ___fldiv
  6578  0891                     ___fldiv:
  6579  0891                     l2409:	
  6580                           ;incstack = 0
  6581                           ; Regs used in ___fldiv: [wreg+status,2+status,0+btemp+1]
  6582                           
  6583  0891  1283               	bcf	3,5	;RP0=0, select bank0
  6584  0892  1303               	bcf	3,6	;RP1=0, select bank0
  6585  0893  0839               	movf	___fldiv@b+3,w
  6586  0894  3980               	andlw	128
  6587  0895  00BA               	movwf	??___fldiv
  6588  0896  083A               	movf	??___fldiv,w
  6589  0897  00C3               	movwf	___fldiv@sign
  6590  0898                     l2411:
  6591  0898  0839               	movf	___fldiv@b+3,w
  6592  0899  00BA               	movwf	??___fldiv
  6593  089A  073A               	addwf	??___fldiv,w
  6594  089B  00BB               	movwf	??___fldiv+1
  6595  089C  083B               	movf	??___fldiv+1,w
  6596  089D  00CA               	movwf	___fldiv@bexp
  6597  089E                     l2413:
  6598  089E  1FB8               	btfss	___fldiv@b+2,7
  6599  089F  28A1               	goto	u3041
  6600  08A0  28A2               	goto	u3040
  6601  08A1                     u3041:
  6602  08A1  28A3               	goto	l2417
  6603  08A2                     u3040:
  6604  08A2                     l2415:
  6605  08A2  144A               	bsf	___fldiv@bexp,0
  6606  08A3                     l2417:
  6607  08A3  084A               	movf	___fldiv@bexp,w
  6608  08A4  1903               	btfsc	3,2
  6609  08A5  28A7               	goto	u3051
  6610  08A6  28A8               	goto	u3050
  6611  08A7                     u3051:
  6612  08A7  28B8               	goto	l2427
  6613  08A8                     u3050:
  6614  08A8                     l2419:
  6615  08A8  0A4A               	incf	___fldiv@bexp,w
  6616  08A9  1D03               	btfss	3,2
  6617  08AA  28AC               	goto	u3061
  6618  08AB  28AD               	goto	u3060
  6619  08AC                     u3061:
  6620  08AC  28B5               	goto	l2423
  6621  08AD                     u3060:
  6622  08AD                     l2421:
  6623  08AD  3000               	movlw	0
  6624  08AE  00B9               	movwf	___fldiv@b+3
  6625  08AF  3000               	movlw	0
  6626  08B0  00B8               	movwf	___fldiv@b+2
  6627  08B1  3000               	movlw	0
  6628  08B2  00B7               	movwf	___fldiv@b+1
  6629  08B3  3000               	movlw	0
  6630  08B4  00B6               	movwf	___fldiv@b
  6631  08B5                     l2423:
  6632  08B5  17B8               	bsf	___fldiv@b+2,7
  6633  08B6                     l2425:
  6634  08B6  01B9               	clrf	___fldiv@b+3
  6635  08B7  28C0               	goto	l2429
  6636  08B8                     l2427:
  6637  08B8  3000               	movlw	0
  6638  08B9  00B9               	movwf	___fldiv@b+3
  6639  08BA  3000               	movlw	0
  6640  08BB  00B8               	movwf	___fldiv@b+2
  6641  08BC  3000               	movlw	0
  6642  08BD  00B7               	movwf	___fldiv@b+1
  6643  08BE  3000               	movlw	0
  6644  08BF  00B6               	movwf	___fldiv@b
  6645  08C0                     l2429:
  6646  08C0  0835               	movf	___fldiv@a+3,w
  6647  08C1  3980               	andlw	128
  6648  08C2  00BA               	movwf	??___fldiv
  6649  08C3  083A               	movf	??___fldiv,w
  6650  08C4  06C3               	xorwf	___fldiv@sign,f
  6651  08C5                     l2431:
  6652  08C5  0835               	movf	___fldiv@a+3,w
  6653  08C6  00BA               	movwf	??___fldiv
  6654  08C7  073A               	addwf	??___fldiv,w
  6655  08C8  00BB               	movwf	??___fldiv+1
  6656  08C9  083B               	movf	??___fldiv+1,w
  6657  08CA  00CB               	movwf	___fldiv@aexp
  6658  08CB                     l2433:
  6659  08CB  1FB4               	btfss	___fldiv@a+2,7
  6660  08CC  28CE               	goto	u3071
  6661  08CD  28CF               	goto	u3070
  6662  08CE                     u3071:
  6663  08CE  28D0               	goto	l2437
  6664  08CF                     u3070:
  6665  08CF                     l2435:
  6666  08CF  144B               	bsf	___fldiv@aexp,0
  6667  08D0                     l2437:
  6668  08D0  084B               	movf	___fldiv@aexp,w
  6669  08D1  1903               	btfsc	3,2
  6670  08D2  28D4               	goto	u3081
  6671  08D3  28D5               	goto	u3080
  6672  08D4                     u3081:
  6673  08D4  28E5               	goto	l2447
  6674  08D5                     u3080:
  6675  08D5                     l2439:
  6676  08D5  0A4B               	incf	___fldiv@aexp,w
  6677  08D6  1D03               	btfss	3,2
  6678  08D7  28D9               	goto	u3091
  6679  08D8  28DA               	goto	u3090
  6680  08D9                     u3091:
  6681  08D9  28E2               	goto	l2443
  6682  08DA                     u3090:
  6683  08DA                     l2441:
  6684  08DA  3000               	movlw	0
  6685  08DB  00B5               	movwf	___fldiv@a+3
  6686  08DC  3000               	movlw	0
  6687  08DD  00B4               	movwf	___fldiv@a+2
  6688  08DE  3000               	movlw	0
  6689  08DF  00B3               	movwf	___fldiv@a+1
  6690  08E0  3000               	movlw	0
  6691  08E1  00B2               	movwf	___fldiv@a
  6692  08E2                     l2443:
  6693  08E2  17B4               	bsf	___fldiv@a+2,7
  6694  08E3                     l2445:
  6695  08E3  01B5               	clrf	___fldiv@a+3
  6696  08E4  28ED               	goto	l654
  6697  08E5                     l2447:
  6698  08E5  3000               	movlw	0
  6699  08E6  00B5               	movwf	___fldiv@a+3
  6700  08E7  3000               	movlw	0
  6701  08E8  00B4               	movwf	___fldiv@a+2
  6702  08E9  3000               	movlw	0
  6703  08EA  00B3               	movwf	___fldiv@a+1
  6704  08EB  3000               	movlw	0
  6705  08EC  00B2               	movwf	___fldiv@a
  6706  08ED                     l654:
  6707  08ED  0835               	movf	___fldiv@a+3,w
  6708  08EE  0434               	iorwf	___fldiv@a+2,w
  6709  08EF  0433               	iorwf	___fldiv@a+1,w
  6710  08F0  0432               	iorwf	___fldiv@a,w
  6711  08F1  1D03               	skipz
  6712  08F2  28F4               	goto	u3101
  6713  08F3  28F5               	goto	u3100
  6714  08F4                     u3101:
  6715  08F4  290E               	goto	l2457
  6716  08F5                     u3100:
  6717  08F5                     l2449:
  6718  08F5  3000               	movlw	0
  6719  08F6  00B9               	movwf	___fldiv@b+3
  6720  08F7  3000               	movlw	0
  6721  08F8  00B8               	movwf	___fldiv@b+2
  6722  08F9  3000               	movlw	0
  6723  08FA  00B7               	movwf	___fldiv@b+1
  6724  08FB  3000               	movlw	0
  6725  08FC  00B6               	movwf	___fldiv@b
  6726  08FD  3080               	movlw	128
  6727  08FE  04B8               	iorwf	___fldiv@b+2,f
  6728  08FF  307F               	movlw	127
  6729  0900  04B9               	iorwf	___fldiv@b+3,f
  6730  0901                     l2451:
  6731  0901  0843               	movf	___fldiv@sign,w
  6732  0902  00BA               	movwf	??___fldiv
  6733  0903  083A               	movf	??___fldiv,w
  6734  0904  04B9               	iorwf	___fldiv@b+3,f
  6735  0905                     l2453:
  6736  0905  0839               	movf	___fldiv@b+3,w
  6737  0906  00B5               	movwf	?___fldiv+3
  6738  0907  0838               	movf	___fldiv@b+2,w
  6739  0908  00B4               	movwf	?___fldiv+2
  6740  0909  0837               	movf	___fldiv@b+1,w
  6741  090A  00B3               	movwf	?___fldiv+1
  6742  090B  0836               	movf	___fldiv@b,w
  6743  090C  00B2               	movwf	?___fldiv
  6744  090D  2A6D               	goto	l656
  6745  090E                     l2457:
  6746  090E  084A               	movf	___fldiv@bexp,w
  6747  090F  1D03               	btfss	3,2
  6748  0910  2912               	goto	u3111
  6749  0911  2913               	goto	u3110
  6750  0912                     u3111:
  6751  0912  291C               	goto	l2463
  6752  0913                     u3110:
  6753  0913                     l2459:
  6754  0913  3000               	movlw	0
  6755  0914  00B5               	movwf	?___fldiv+3
  6756  0915  3000               	movlw	0
  6757  0916  00B4               	movwf	?___fldiv+2
  6758  0917  3000               	movlw	0
  6759  0918  00B3               	movwf	?___fldiv+1
  6760  0919  3000               	movlw	0
  6761  091A  00B2               	movwf	?___fldiv
  6762  091B  2A6D               	goto	l656
  6763  091C                     l2463:
  6764  091C  084A               	movf	___fldiv@bexp,w
  6765  091D  00BA               	movwf	??___fldiv
  6766  091E  01BB               	clrf	??___fldiv+1
  6767  091F  083B               	movf	??___fldiv+1,w
  6768  0920  00BD               	movwf	??___fldiv+3
  6769  0921  084B               	movf	___fldiv@aexp,w
  6770  0922  023A               	subwf	??___fldiv,w
  6771  0923  00BC               	movwf	??___fldiv+2
  6772  0924  1C03               	skipc
  6773  0925  03BD               	decf	??___fldiv+3,f
  6774  0926  083C               	movf	??___fldiv+2,w
  6775  0927  3E7F               	addlw	127
  6776  0928  00C4               	movwf	___fldiv@new_exp
  6777  0929  083D               	movf	??___fldiv+3,w
  6778  092A  1803               	skipnc
  6779  092B  3E01               	addlw	1
  6780  092C  3E00               	addlw	0
  6781  092D  00C5               	movwf	___fldiv@new_exp+1
  6782  092E                     l2465:
  6783  092E  0839               	movf	___fldiv@b+3,w
  6784  092F  00C2               	movwf	___fldiv@rem+3
  6785  0930  0838               	movf	___fldiv@b+2,w
  6786  0931  00C1               	movwf	___fldiv@rem+2
  6787  0932  0837               	movf	___fldiv@b+1,w
  6788  0933  00C0               	movwf	___fldiv@rem+1
  6789  0934  0836               	movf	___fldiv@b,w
  6790  0935  00BF               	movwf	___fldiv@rem
  6791  0936                     l2467:
  6792  0936  3000               	movlw	0
  6793  0937  00B9               	movwf	___fldiv@b+3
  6794  0938  3000               	movlw	0
  6795  0939  00B8               	movwf	___fldiv@b+2
  6796  093A  3000               	movlw	0
  6797  093B  00B7               	movwf	___fldiv@b+1
  6798  093C  3000               	movlw	0
  6799  093D  00B6               	movwf	___fldiv@b
  6800  093E                     l2469:
  6801  093E  3000               	movlw	0
  6802  093F  00C9               	movwf	___fldiv@grs+3
  6803  0940  3000               	movlw	0
  6804  0941  00C8               	movwf	___fldiv@grs+2
  6805  0942  3000               	movlw	0
  6806  0943  00C7               	movwf	___fldiv@grs+1
  6807  0944  3000               	movlw	0
  6808  0945  00C6               	movwf	___fldiv@grs
  6809  0946                     l2471:
  6810  0946  01CB               	clrf	___fldiv@aexp
  6811  0947  2992               	goto	l2491
  6812  0948                     l2473:
  6813  0948  084B               	movf	___fldiv@aexp,w
  6814  0949  1903               	btfsc	3,2
  6815  094A  294C               	goto	u3121
  6816  094B  294D               	goto	u3120
  6817  094C                     u3121:
  6818  094C  296D               	goto	l2483
  6819  094D                     u3120:
  6820  094D                     l2475:
  6821  094D  3001               	movlw	1
  6822  094E  00BA               	movwf	??___fldiv
  6823  094F                     u3135:
  6824  094F  1003               	clrc
  6825  0950  0DBF               	rlf	___fldiv@rem,f
  6826  0951  0DC0               	rlf	___fldiv@rem+1,f
  6827  0952  0DC1               	rlf	___fldiv@rem+2,f
  6828  0953  0DC2               	rlf	___fldiv@rem+3,f
  6829  0954  0BBA               	decfsz	??___fldiv,f
  6830  0955  294F               	goto	u3135
  6831  0956  3001               	movlw	1
  6832  0957  00BA               	movwf	??___fldiv
  6833  0958                     u3145:
  6834  0958  1003               	clrc
  6835  0959  0DB6               	rlf	___fldiv@b,f
  6836  095A  0DB7               	rlf	___fldiv@b+1,f
  6837  095B  0DB8               	rlf	___fldiv@b+2,f
  6838  095C  0DB9               	rlf	___fldiv@b+3,f
  6839  095D  0BBA               	decfsz	??___fldiv,f
  6840  095E  2958               	goto	u3145
  6841  095F                     l2477:
  6842  095F  1FC9               	btfss	___fldiv@grs+3,7
  6843  0960  2962               	goto	u3151
  6844  0961  2963               	goto	u3150
  6845  0962                     u3151:
  6846  0962  2964               	goto	l2481
  6847  0963                     u3150:
  6848  0963                     l2479:
  6849  0963  1436               	bsf	___fldiv@b,0
  6850  0964                     l2481:
  6851  0964  3001               	movlw	1
  6852  0965  00BA               	movwf	??___fldiv
  6853  0966                     u3165:
  6854  0966  1003               	clrc
  6855  0967  0DC6               	rlf	___fldiv@grs,f
  6856  0968  0DC7               	rlf	___fldiv@grs+1,f
  6857  0969  0DC8               	rlf	___fldiv@grs+2,f
  6858  096A  0DC9               	rlf	___fldiv@grs+3,f
  6859  096B  0BBA               	decfsz	??___fldiv,f
  6860  096C  2966               	goto	u3165
  6861  096D                     l2483:
  6862  096D  0835               	movf	___fldiv@a+3,w
  6863  096E  0242               	subwf	___fldiv@rem+3,w
  6864  096F  1D03               	skipz
  6865  0970  297B               	goto	u3175
  6866  0971  0834               	movf	___fldiv@a+2,w
  6867  0972  0241               	subwf	___fldiv@rem+2,w
  6868  0973  1D03               	skipz
  6869  0974  297B               	goto	u3175
  6870  0975  0833               	movf	___fldiv@a+1,w
  6871  0976  0240               	subwf	___fldiv@rem+1,w
  6872  0977  1D03               	skipz
  6873  0978  297B               	goto	u3175
  6874  0979  0832               	movf	___fldiv@a,w
  6875  097A  023F               	subwf	___fldiv@rem,w
  6876  097B                     u3175:
  6877  097B  1C03               	skipc
  6878  097C  297E               	goto	u3171
  6879  097D  297F               	goto	u3170
  6880  097E                     u3171:
  6881  097E  298E               	goto	l2489
  6882  097F                     u3170:
  6883  097F                     l2485:
  6884  097F  1749               	bsf	___fldiv@grs+3,6
  6885  0980                     l2487:
  6886  0980  0832               	movf	___fldiv@a,w
  6887  0981  02BF               	subwf	___fldiv@rem,f
  6888  0982  0833               	movf	___fldiv@a+1,w
  6889  0983  1C03               	skipc
  6890  0984  0F33               	incfsz	___fldiv@a+1,w
  6891  0985  02C0               	subwf	___fldiv@rem+1,f
  6892  0986  0834               	movf	___fldiv@a+2,w
  6893  0987  1C03               	skipc
  6894  0988  0F34               	incfsz	___fldiv@a+2,w
  6895  0989  02C1               	subwf	___fldiv@rem+2,f
  6896  098A  0835               	movf	___fldiv@a+3,w
  6897  098B  1C03               	skipc
  6898  098C  0F35               	incfsz	___fldiv@a+3,w
  6899  098D  02C2               	subwf	___fldiv@rem+3,f
  6900  098E                     l2489:
  6901  098E  3001               	movlw	1
  6902  098F  00BA               	movwf	??___fldiv
  6903  0990  083A               	movf	??___fldiv,w
  6904  0991  07CB               	addwf	___fldiv@aexp,f
  6905  0992                     l2491:
  6906  0992  301A               	movlw	26
  6907  0993  024B               	subwf	___fldiv@aexp,w
  6908  0994  1C03               	skipc
  6909  0995  2997               	goto	u3181
  6910  0996  2998               	goto	u3180
  6911  0997                     u3181:
  6912  0997  2948               	goto	l2473
  6913  0998                     u3180:
  6914  0998                     l2493:
  6915  0998  0842               	movf	___fldiv@rem+3,w
  6916  0999  0441               	iorwf	___fldiv@rem+2,w
  6917  099A  0440               	iorwf	___fldiv@rem+1,w
  6918  099B  043F               	iorwf	___fldiv@rem,w
  6919  099C  1903               	skipnz
  6920  099D  299F               	goto	u3191
  6921  099E  29A0               	goto	u3190
  6922  099F                     u3191:
  6923  099F  29BF               	goto	l2507
  6924  09A0                     u3190:
  6925  09A0                     l2495:
  6926  09A0  1446               	bsf	___fldiv@grs,0
  6927  09A1  29BF               	goto	l2507
  6928  09A2                     l2497:
  6929  09A2  3001               	movlw	1
  6930  09A3  00BA               	movwf	??___fldiv
  6931  09A4                     u3205:
  6932  09A4  1003               	clrc
  6933  09A5  0DB6               	rlf	___fldiv@b,f
  6934  09A6  0DB7               	rlf	___fldiv@b+1,f
  6935  09A7  0DB8               	rlf	___fldiv@b+2,f
  6936  09A8  0DB9               	rlf	___fldiv@b+3,f
  6937  09A9  0BBA               	decfsz	??___fldiv,f
  6938  09AA  29A4               	goto	u3205
  6939  09AB                     l2499:
  6940  09AB  1FC9               	btfss	___fldiv@grs+3,7
  6941  09AC  29AE               	goto	u3211
  6942  09AD  29AF               	goto	u3210
  6943  09AE                     u3211:
  6944  09AE  29B0               	goto	l2503
  6945  09AF                     u3210:
  6946  09AF                     l2501:
  6947  09AF  1436               	bsf	___fldiv@b,0
  6948  09B0                     l2503:
  6949  09B0  3001               	movlw	1
  6950  09B1  00BA               	movwf	??___fldiv
  6951  09B2                     u3225:
  6952  09B2  1003               	clrc
  6953  09B3  0DC6               	rlf	___fldiv@grs,f
  6954  09B4  0DC7               	rlf	___fldiv@grs+1,f
  6955  09B5  0DC8               	rlf	___fldiv@grs+2,f
  6956  09B6  0DC9               	rlf	___fldiv@grs+3,f
  6957  09B7  0BBA               	decfsz	??___fldiv,f
  6958  09B8  29B2               	goto	u3225
  6959  09B9                     l2505:
  6960  09B9  30FF               	movlw	255
  6961  09BA  07C4               	addwf	___fldiv@new_exp,f
  6962  09BB  1803               	skipnc
  6963  09BC  0AC5               	incf	___fldiv@new_exp+1,f
  6964  09BD  30FF               	movlw	255
  6965  09BE  07C5               	addwf	___fldiv@new_exp+1,f
  6966  09BF                     l2507:
  6967  09BF  1FB8               	btfss	___fldiv@b+2,7
  6968  09C0  29C2               	goto	u3231
  6969  09C1  29C3               	goto	u3230
  6970  09C2                     u3231:
  6971  09C2  29A2               	goto	l2497
  6972  09C3                     u3230:
  6973  09C3                     l2509:
  6974  09C3  01CB               	clrf	___fldiv@aexp
  6975  09C4                     l2511:
  6976  09C4  1FC9               	btfss	___fldiv@grs+3,7
  6977  09C5  29C7               	goto	u3241
  6978  09C6  29C8               	goto	u3240
  6979  09C7                     u3241:
  6980  09C7  29E4               	goto	l2519
  6981  09C8                     u3240:
  6982  09C8                     l2513:
  6983  09C8  30FF               	movlw	255
  6984  09C9  0546               	andwf	___fldiv@grs,w
  6985  09CA  00BA               	movwf	??___fldiv
  6986  09CB  30FF               	movlw	255
  6987  09CC  0547               	andwf	___fldiv@grs+1,w
  6988  09CD  00BB               	movwf	??___fldiv+1
  6989  09CE  30FF               	movlw	255
  6990  09CF  0548               	andwf	___fldiv@grs+2,w
  6991  09D0  00BC               	movwf	??___fldiv+2
  6992  09D1  307F               	movlw	127
  6993  09D2  0549               	andwf	___fldiv@grs+3,w
  6994  09D3  00BD               	movwf	??___fldiv+3
  6995  09D4  083D               	movf	??___fldiv+3,w
  6996  09D5  043C               	iorwf	??___fldiv+2,w
  6997  09D6  043B               	iorwf	??___fldiv+1,w
  6998  09D7  043A               	iorwf	??___fldiv,w
  6999  09D8  1903               	skipnz
  7000  09D9  29DB               	goto	u3251
  7001  09DA  29DC               	goto	u3250
  7002  09DB                     u3251:
  7003  09DB  29DF               	goto	l670
  7004  09DC                     u3250:
  7005  09DC                     l2515:
  7006  09DC  01CB               	clrf	___fldiv@aexp
  7007  09DD  0ACB               	incf	___fldiv@aexp,f
  7008  09DE  29E4               	goto	l2519
  7009  09DF                     l670:
  7010  09DF  1C36               	btfss	___fldiv@b,0
  7011  09E0  29E2               	goto	u3261
  7012  09E1  29E3               	goto	u3260
  7013  09E2                     u3261:
  7014  09E2  29E4               	goto	l2519
  7015  09E3                     u3260:
  7016  09E3  29DC               	goto	l2515
  7017  09E4                     l2519:
  7018  09E4  084B               	movf	___fldiv@aexp,w
  7019  09E5  1903               	btfsc	3,2
  7020  09E6  29E8               	goto	u3271
  7021  09E7  29E9               	goto	u3270
  7022  09E8                     u3271:
  7023  09E8  2A1A               	goto	l2529
  7024  09E9                     u3270:
  7025  09E9                     l2521:
  7026  09E9  3001               	movlw	1
  7027  09EA  07B6               	addwf	___fldiv@b,f
  7028  09EB  3000               	movlw	0
  7029  09EC  1803               	skipnc
  7030  09ED  3001               	movlw	1
  7031  09EE  07B7               	addwf	___fldiv@b+1,f
  7032  09EF  3000               	movlw	0
  7033  09F0  1803               	skipnc
  7034  09F1  3001               	movlw	1
  7035  09F2  07B8               	addwf	___fldiv@b+2,f
  7036  09F3  3000               	movlw	0
  7037  09F4  1803               	skipnc
  7038  09F5  3001               	movlw	1
  7039  09F6  07B9               	addwf	___fldiv@b+3,f
  7040  09F7                     l2523:
  7041  09F7  1C39               	btfss	___fldiv@b+3,0
  7042  09F8  29FA               	goto	u3281
  7043  09F9  29FB               	goto	u3280
  7044  09FA                     u3281:
  7045  09FA  2A1A               	goto	l2529
  7046  09FB                     u3280:
  7047  09FB                     l2525:
  7048  09FB  0836               	movf	___fldiv@b,w
  7049  09FC  00BA               	movwf	??___fldiv
  7050  09FD  0837               	movf	___fldiv@b+1,w
  7051  09FE  00BB               	movwf	??___fldiv+1
  7052  09FF  0838               	movf	___fldiv@b+2,w
  7053  0A00  00BC               	movwf	??___fldiv+2
  7054  0A01  0839               	movf	___fldiv@b+3,w
  7055  0A02  00BD               	movwf	??___fldiv+3
  7056  0A03  3001               	movlw	1
  7057  0A04  00BE               	movwf	??___fldiv+4
  7058  0A05                     u3295:
  7059  0A05  0D3D               	rlf	??___fldiv+3,w
  7060  0A06  0CBD               	rrf	??___fldiv+3,f
  7061  0A07  0CBC               	rrf	??___fldiv+2,f
  7062  0A08  0CBB               	rrf	??___fldiv+1,f
  7063  0A09  0CBA               	rrf	??___fldiv,f
  7064  0A0A                     u3290:
  7065  0A0A  0BBE               	decfsz	??___fldiv+4,f
  7066  0A0B  2A05               	goto	u3295
  7067  0A0C  083D               	movf	??___fldiv+3,w
  7068  0A0D  00B9               	movwf	___fldiv@b+3
  7069  0A0E  083C               	movf	??___fldiv+2,w
  7070  0A0F  00B8               	movwf	___fldiv@b+2
  7071  0A10  083B               	movf	??___fldiv+1,w
  7072  0A11  00B7               	movwf	___fldiv@b+1
  7073  0A12  083A               	movf	??___fldiv,w
  7074  0A13  00B6               	movwf	___fldiv@b
  7075  0A14                     l2527:
  7076  0A14  3001               	movlw	1
  7077  0A15  07C4               	addwf	___fldiv@new_exp,f
  7078  0A16  1803               	skipnc
  7079  0A17  0AC5               	incf	___fldiv@new_exp+1,f
  7080  0A18  3000               	movlw	0
  7081  0A19  07C5               	addwf	___fldiv@new_exp+1,f
  7082  0A1A                     l2529:
  7083  0A1A  0845               	movf	___fldiv@new_exp+1,w
  7084  0A1B  3A80               	xorlw	128
  7085  0A1C  00FF               	movwf	btemp+1
  7086  0A1D  3080               	movlw	128
  7087  0A1E  027F               	subwf	btemp+1,w
  7088  0A1F  1D03               	skipz
  7089  0A20  2A23               	goto	u3305
  7090  0A21  30FF               	movlw	255
  7091  0A22  0244               	subwf	___fldiv@new_exp,w
  7092  0A23                     u3305:
  7093  0A23  1C03               	skipc
  7094  0A24  2A26               	goto	u3301
  7095  0A25  2A27               	goto	u3300
  7096  0A26                     u3301:
  7097  0A26  2A35               	goto	l2533
  7098  0A27                     u3300:
  7099  0A27                     l2531:
  7100  0A27  30FF               	movlw	255
  7101  0A28  1283               	bcf	3,5	;RP0=0, select bank0
  7102  0A29  1303               	bcf	3,6	;RP1=0, select bank0
  7103  0A2A  00C4               	movwf	___fldiv@new_exp
  7104  0A2B  3000               	movlw	0
  7105  0A2C  00C5               	movwf	___fldiv@new_exp+1
  7106  0A2D  3000               	movlw	0
  7107  0A2E  00B9               	movwf	___fldiv@b+3
  7108  0A2F  3000               	movlw	0
  7109  0A30  00B8               	movwf	___fldiv@b+2
  7110  0A31  3000               	movlw	0
  7111  0A32  00B7               	movwf	___fldiv@b+1
  7112  0A33  3000               	movlw	0
  7113  0A34  00B6               	movwf	___fldiv@b
  7114  0A35                     l2533:
  7115  0A35  1283               	bcf	3,5	;RP0=0, select bank0
  7116  0A36  1303               	bcf	3,6	;RP1=0, select bank0
  7117  0A37  0845               	movf	___fldiv@new_exp+1,w
  7118  0A38  3A80               	xorlw	128
  7119  0A39  00FF               	movwf	btemp+1
  7120  0A3A  3080               	movlw	128
  7121  0A3B  027F               	subwf	btemp+1,w
  7122  0A3C  1D03               	skipz
  7123  0A3D  2A40               	goto	u3315
  7124  0A3E  3001               	movlw	1
  7125  0A3F  0244               	subwf	___fldiv@new_exp,w
  7126  0A40                     u3315:
  7127  0A40  1803               	skipnc
  7128  0A41  2A43               	goto	u3311
  7129  0A42  2A44               	goto	u3310
  7130  0A43                     u3311:
  7131  0A43  2A51               	goto	l676
  7132  0A44                     u3310:
  7133  0A44                     l2535:
  7134  0A44  1283               	bcf	3,5	;RP0=0, select bank0
  7135  0A45  1303               	bcf	3,6	;RP1=0, select bank0
  7136  0A46  01C4               	clrf	___fldiv@new_exp
  7137  0A47  01C5               	clrf	___fldiv@new_exp+1
  7138  0A48                     l2537:
  7139  0A48  3000               	movlw	0
  7140  0A49  00B9               	movwf	___fldiv@b+3
  7141  0A4A  3000               	movlw	0
  7142  0A4B  00B8               	movwf	___fldiv@b+2
  7143  0A4C  3000               	movlw	0
  7144  0A4D  00B7               	movwf	___fldiv@b+1
  7145  0A4E  3000               	movlw	0
  7146  0A4F  00B6               	movwf	___fldiv@b
  7147  0A50                     l2539:
  7148  0A50  01C3               	clrf	___fldiv@sign
  7149  0A51                     l676:
  7150  0A51  1283               	bcf	3,5	;RP0=0, select bank0
  7151  0A52  1303               	bcf	3,6	;RP1=0, select bank0
  7152  0A53  0844               	movf	___fldiv@new_exp,w
  7153  0A54  00BA               	movwf	??___fldiv
  7154  0A55  083A               	movf	??___fldiv,w
  7155  0A56  00CA               	movwf	___fldiv@bexp
  7156  0A57                     l2541:
  7157  0A57  1C4A               	btfss	___fldiv@bexp,0
  7158  0A58  2A5A               	goto	u3321
  7159  0A59  2A5B               	goto	u3320
  7160  0A5A                     u3321:
  7161  0A5A  2A5D               	goto	l2545
  7162  0A5B                     u3320:
  7163  0A5B                     l2543:
  7164  0A5B  17B8               	bsf	___fldiv@b+2,7
  7165  0A5C  2A61               	goto	l678
  7166  0A5D                     l2545:
  7167  0A5D  307F               	movlw	127
  7168  0A5E  00BA               	movwf	??___fldiv
  7169  0A5F  083A               	movf	??___fldiv,w
  7170  0A60  05B8               	andwf	___fldiv@b+2,f
  7171  0A61                     l678:
  7172  0A61  084A               	movf	___fldiv@bexp,w
  7173  0A62  00BA               	movwf	??___fldiv
  7174  0A63  1003               	clrc
  7175  0A64  0C3A               	rrf	??___fldiv,w
  7176  0A65  00BB               	movwf	??___fldiv+1
  7177  0A66  083B               	movf	??___fldiv+1,w
  7178  0A67  00B9               	movwf	___fldiv@b+3
  7179  0A68  0843               	movf	___fldiv@sign,w
  7180  0A69  00BA               	movwf	??___fldiv
  7181  0A6A  083A               	movf	??___fldiv,w
  7182  0A6B  04B9               	iorwf	___fldiv@b+3,f
  7183  0A6C  2905               	goto	l2453
  7184  0A6D                     l656:
  7185  0A6D  0008               	return
  7186  0A6E                     __end_of___fldiv:
  7187                           
  7188                           	psect	text18
  7189  163B                     __ptext18:	
  7190 ;; *************** function ___awdiv *****************
  7191 ;; Defined at:
  7192 ;;		line 5 in file "C:\Program Files\Microchip\xc8\v2.31\pic\sources\c90\common\awdiv.c"
  7193 ;; Parameters:    Size  Location     Type
  7194 ;;  divisor         2    0[COMMON] int 
  7195 ;;  dividend        2    2[COMMON] int 
  7196 ;; Auto vars:     Size  Location     Type
  7197 ;;  quotient        2    7[COMMON] int 
  7198 ;;  sign            1    6[COMMON] unsigned char 
  7199 ;;  counter         1    5[COMMON] unsigned char 
  7200 ;; Return value:  Size  Location     Type
  7201 ;;                  2    0[COMMON] int 
  7202 ;; Registers used:
  7203 ;;		wreg, status,2, status,0
  7204 ;; Tracked objects:
  7205 ;;		On entry : 0/0
  7206 ;;		On exit  : 0/0
  7207 ;;		Unchanged: 0/0
  7208 ;; Data sizes:     COMMON   BANK0   BANK1   BANK3   BANK2
  7209 ;;      Params:         4       0       0       0       0
  7210 ;;      Locals:         4       0       0       0       0
  7211 ;;      Temps:          1       0       0       0       0
  7212 ;;      Totals:         9       0       0       0       0
  7213 ;;Total ram usage:        9 bytes
  7214 ;; Hardware stack levels used:    1
  7215 ;; This function calls:
  7216 ;;		Nothing
  7217 ;; This function is called by:
  7218 ;;		_int2String
  7219 ;;		_convert
  7220 ;; This function uses a non-reentrant model
  7221 ;;
  7222                           
  7223                           
  7224                           ;psect for function ___awdiv
  7225  163B                     ___awdiv:
  7226  163B                     l2265:	
  7227                           ;incstack = 0
  7228                           ; Regs used in ___awdiv: [wreg+status,2+status,0]
  7229                           
  7230  163B  01F6               	clrf	___awdiv@sign
  7231  163C                     l2267:
  7232  163C  1FF1               	btfss	___awdiv@divisor+1,7
  7233  163D  2E3F               	goto	u2681
  7234  163E  2E40               	goto	u2680
  7235  163F                     u2681:
  7236  163F  2E47               	goto	l2273
  7237  1640                     u2680:
  7238  1640                     l2269:
  7239  1640  09F0               	comf	___awdiv@divisor,f
  7240  1641  09F1               	comf	___awdiv@divisor+1,f
  7241  1642  0AF0               	incf	___awdiv@divisor,f
  7242  1643  1903               	skipnz
  7243  1644  0AF1               	incf	___awdiv@divisor+1,f
  7244  1645                     l2271:
  7245  1645  01F6               	clrf	___awdiv@sign
  7246  1646  0AF6               	incf	___awdiv@sign,f
  7247  1647                     l2273:
  7248  1647  1FF3               	btfss	___awdiv@dividend+1,7
  7249  1648  2E4A               	goto	u2691
  7250  1649  2E4B               	goto	u2690
  7251  164A                     u2691:
  7252  164A  2E54               	goto	l2279
  7253  164B                     u2690:
  7254  164B                     l2275:
  7255  164B  09F2               	comf	___awdiv@dividend,f
  7256  164C  09F3               	comf	___awdiv@dividend+1,f
  7257  164D  0AF2               	incf	___awdiv@dividend,f
  7258  164E  1903               	skipnz
  7259  164F  0AF3               	incf	___awdiv@dividend+1,f
  7260  1650                     l2277:
  7261  1650  3001               	movlw	1
  7262  1651  00F4               	movwf	??___awdiv
  7263  1652  0874               	movf	??___awdiv,w
  7264  1653  06F6               	xorwf	___awdiv@sign,f
  7265  1654                     l2279:
  7266  1654  01F7               	clrf	___awdiv@quotient
  7267  1655  01F8               	clrf	___awdiv@quotient+1
  7268  1656                     l2281:
  7269  1656  0870               	movf	___awdiv@divisor,w
  7270  1657  0471               	iorwf	___awdiv@divisor+1,w
  7271  1658  1903               	btfsc	3,2
  7272  1659  2E5B               	goto	u2701
  7273  165A  2E5C               	goto	u2700
  7274  165B                     u2701:
  7275  165B  2E93               	goto	l2301
  7276  165C                     u2700:
  7277  165C                     l2283:
  7278  165C  01F5               	clrf	___awdiv@counter
  7279  165D  0AF5               	incf	___awdiv@counter,f
  7280  165E  2E6A               	goto	l2289
  7281  165F                     l2285:
  7282  165F  3001               	movlw	1
  7283  1660                     u2715:
  7284  1660  1003               	clrc
  7285  1661  0DF0               	rlf	___awdiv@divisor,f
  7286  1662  0DF1               	rlf	___awdiv@divisor+1,f
  7287  1663  3EFF               	addlw	-1
  7288  1664  1D03               	skipz
  7289  1665  2E60               	goto	u2715
  7290  1666                     l2287:
  7291  1666  3001               	movlw	1
  7292  1667  00F4               	movwf	??___awdiv
  7293  1668  0874               	movf	??___awdiv,w
  7294  1669  07F5               	addwf	___awdiv@counter,f
  7295  166A                     l2289:
  7296  166A  1FF1               	btfss	___awdiv@divisor+1,7
  7297  166B  2E6D               	goto	u2721
  7298  166C  2E6E               	goto	u2720
  7299  166D                     u2721:
  7300  166D  2E5F               	goto	l2285
  7301  166E                     u2720:
  7302  166E                     l2291:
  7303  166E  3001               	movlw	1
  7304  166F                     u2735:
  7305  166F  1003               	clrc
  7306  1670  0DF7               	rlf	___awdiv@quotient,f
  7307  1671  0DF8               	rlf	___awdiv@quotient+1,f
  7308  1672  3EFF               	addlw	-1
  7309  1673  1D03               	skipz
  7310  1674  2E6F               	goto	u2735
  7311  1675  0871               	movf	___awdiv@divisor+1,w
  7312  1676  0273               	subwf	___awdiv@dividend+1,w
  7313  1677  1D03               	skipz
  7314  1678  2E7B               	goto	u2745
  7315  1679  0870               	movf	___awdiv@divisor,w
  7316  167A  0272               	subwf	___awdiv@dividend,w
  7317  167B                     u2745:
  7318  167B  1C03               	skipc
  7319  167C  2E7E               	goto	u2741
  7320  167D  2E7F               	goto	u2740
  7321  167E                     u2741:
  7322  167E  2E86               	goto	l2297
  7323  167F                     u2740:
  7324  167F                     l2293:
  7325  167F  0870               	movf	___awdiv@divisor,w
  7326  1680  02F2               	subwf	___awdiv@dividend,f
  7327  1681  0871               	movf	___awdiv@divisor+1,w
  7328  1682  1C03               	skipc
  7329  1683  03F3               	decf	___awdiv@dividend+1,f
  7330  1684  02F3               	subwf	___awdiv@dividend+1,f
  7331  1685                     l2295:
  7332  1685  1477               	bsf	___awdiv@quotient,0
  7333  1686                     l2297:
  7334  1686  3001               	movlw	1
  7335  1687                     u2755:
  7336  1687  1003               	clrc
  7337  1688  0CF1               	rrf	___awdiv@divisor+1,f
  7338  1689  0CF0               	rrf	___awdiv@divisor,f
  7339  168A  3EFF               	addlw	-1
  7340  168B  1D03               	skipz
  7341  168C  2E87               	goto	u2755
  7342  168D                     l2299:
  7343  168D  3001               	movlw	1
  7344  168E  02F5               	subwf	___awdiv@counter,f
  7345  168F  1D03               	btfss	3,2
  7346  1690  2E92               	goto	u2761
  7347  1691  2E93               	goto	u2760
  7348  1692                     u2761:
  7349  1692  2E6E               	goto	l2291
  7350  1693                     u2760:
  7351  1693                     l2301:
  7352  1693  0876               	movf	___awdiv@sign,w
  7353  1694  1903               	btfsc	3,2
  7354  1695  2E97               	goto	u2771
  7355  1696  2E98               	goto	u2770
  7356  1697                     u2771:
  7357  1697  2E9D               	goto	l2305
  7358  1698                     u2770:
  7359  1698                     l2303:
  7360  1698  09F7               	comf	___awdiv@quotient,f
  7361  1699  09F8               	comf	___awdiv@quotient+1,f
  7362  169A  0AF7               	incf	___awdiv@quotient,f
  7363  169B  1903               	skipnz
  7364  169C  0AF8               	incf	___awdiv@quotient+1,f
  7365  169D                     l2305:
  7366  169D  0878               	movf	___awdiv@quotient+1,w
  7367  169E  00F1               	movwf	?___awdiv+1
  7368  169F  0877               	movf	___awdiv@quotient,w
  7369  16A0  00F0               	movwf	?___awdiv
  7370  16A1                     l458:
  7371  16A1  0008               	return
  7372  16A2                     __end_of___awdiv:
  7373                           
  7374                           	psect	text19
  7375  149A                     __ptext19:	
  7376 ;; *************** function _UARTSendString *****************
  7377 ;; Defined at:
  7378 ;;		line 54 in file "UART.c"
  7379 ;; Parameters:    Size  Location     Type
  7380 ;;  str             2    1[COMMON] PTR const unsigned char 
  7381 ;;		 -> NULL(0), STR_8(3), string_temperature(5), STR_6(3), 
  7382 ;;		 -> RAM(512), STR_5(3), string_voltageADC(5), 
  7383 ;;  max_length      1    3[COMMON] const unsigned char 
  7384 ;; Auto vars:     Size  Location     Type
  7385 ;;  i               2    5[COMMON] int 
  7386 ;; Return value:  Size  Location     Type
  7387 ;;                  1    wreg      void 
  7388 ;; Registers used:
  7389 ;;		wreg, fsr0l, fsr0h, status,2, status,0, btemp+1, pclath, cstack
  7390 ;; Tracked objects:
  7391 ;;		On entry : 0/0
  7392 ;;		On exit  : 0/0
  7393 ;;		Unchanged: 0/0
  7394 ;; Data sizes:     COMMON   BANK0   BANK1   BANK3   BANK2
  7395 ;;      Params:         3       0       0       0       0
  7396 ;;      Locals:         2       0       0       0       0
  7397 ;;      Temps:          1       0       0       0       0
  7398 ;;      Totals:         6       0       0       0       0
  7399 ;;Total ram usage:        6 bytes
  7400 ;; Hardware stack levels used:    1
  7401 ;; Hardware stack levels required when called:    1
  7402 ;; This function calls:
  7403 ;;		_UARTSendChar
  7404 ;; This function is called by:
  7405 ;;		_main
  7406 ;; This function uses a non-reentrant model
  7407 ;;
  7408                           
  7409                           
  7410                           ;psect for function _UARTSendString
  7411  149A                     _UARTSendString:
  7412  149A                     l2917:	
  7413                           ;incstack = 0
  7414                           ; Regs used in _UARTSendString: [wreg-fsr0h+status,2+status,0+btemp+1+pclath+cstack]
  7415                           
  7416                           
  7417                           ;UART.c: 55:     int i = 0;
  7418  149A  01F5               	clrf	UARTSendString@i
  7419  149B  01F6               	clrf	UARTSendString@i+1
  7420                           
  7421                           ;UART.c: 56:     for (i = 0; i < max_length && str[i] != '\0'; i++) {
  7422  149C  01F5               	clrf	UARTSendString@i
  7423  149D  01F6               	clrf	UARTSendString@i+1
  7424  149E  2CB7               	goto	l2923
  7425  149F                     l2919:
  7426                           
  7427                           ;UART.c: 57:         UARTSendChar(str[i]);
  7428  149F  0875               	movf	UARTSendString@i,w
  7429  14A0  0771               	addwf	UARTSendString@str,w
  7430  14A1  0084               	movwf	4
  7431  14A2  0876               	movf	UARTSendString@i+1,w
  7432  14A3  1803               	skipnc
  7433  14A4  0A76               	incf	UARTSendString@i+1,w
  7434  14A5  0772               	addwf	UARTSendString@str+1,w
  7435  14A6  00FF               	movwf	btemp+1
  7436  14A7  160A  118A  2000  160A  118A  	fcall	stringtab
  7437  14AC  120A  158A  2000  160A  118A  	fcall	_UARTSendChar
  7438  14B1                     l2921:
  7439                           
  7440                           ;UART.c: 58:     }
  7441  14B1  3001               	movlw	1
  7442  14B2  07F5               	addwf	UARTSendString@i,f
  7443  14B3  1803               	skipnc
  7444  14B4  0AF6               	incf	UARTSendString@i+1,f
  7445  14B5  3000               	movlw	0
  7446  14B6  07F6               	addwf	UARTSendString@i+1,f
  7447  14B7                     l2923:
  7448  14B7  0876               	movf	UARTSendString@i+1,w
  7449  14B8  3A80               	xorlw	128
  7450  14B9  00F4               	movwf	??_UARTSendString
  7451  14BA  3080               	movlw	128
  7452  14BB  0274               	subwf	??_UARTSendString,w
  7453  14BC  1D03               	skipz
  7454  14BD  2CC0               	goto	u4005
  7455  14BE  0873               	movf	UARTSendString@max_length,w
  7456  14BF  0275               	subwf	UARTSendString@i,w
  7457  14C0                     u4005:
  7458  14C0  1803               	skipnc
  7459  14C1  2CC3               	goto	u4001
  7460  14C2  2CC4               	goto	u4000
  7461  14C3                     u4001:
  7462  14C3  2CD8               	goto	l201
  7463  14C4                     u4000:
  7464  14C4                     l2925:
  7465  14C4  0875               	movf	UARTSendString@i,w
  7466  14C5  0771               	addwf	UARTSendString@str,w
  7467  14C6  0084               	movwf	4
  7468  14C7  0876               	movf	UARTSendString@i+1,w
  7469  14C8  1803               	skipnc
  7470  14C9  0A76               	incf	UARTSendString@i+1,w
  7471  14CA  0772               	addwf	UARTSendString@str+1,w
  7472  14CB  1283               	bcf	3,5	;RP0=0, select bank0
  7473  14CC  1303               	bcf	3,6	;RP1=0, select bank0
  7474  14CD  00FF               	movwf	btemp+1
  7475  14CE  160A  118A  2000  160A  118A  	fcall	stringtab
  7476  14D3  3A00               	xorlw	0
  7477  14D4  1D03               	skipz
  7478  14D5  2CD7               	goto	u4011
  7479  14D6  2CD8               	goto	u4010
  7480  14D7                     u4011:
  7481  14D7  2C9F               	goto	l2919
  7482  14D8                     u4010:
  7483  14D8                     l201:
  7484  14D8  0008               	return
  7485  14D9                     __end_of_UARTSendString:
  7486                           
  7487                           	psect	text20
  7488  0800                     __ptext20:	
  7489 ;; *************** function _UARTSendChar *****************
  7490 ;; Defined at:
  7491 ;;		line 44 in file "UART.c"
  7492 ;; Parameters:    Size  Location     Type
  7493 ;;  c               1    wreg     const unsigned char 
  7494 ;; Auto vars:     Size  Location     Type
  7495 ;;  c               1    0[COMMON] const unsigned char 
  7496 ;; Return value:  Size  Location     Type
  7497 ;;                  1    wreg      void 
  7498 ;; Registers used:
  7499 ;;		wreg
  7500 ;; Tracked objects:
  7501 ;;		On entry : 0/0
  7502 ;;		On exit  : 0/0
  7503 ;;		Unchanged: 0/0
  7504 ;; Data sizes:     COMMON   BANK0   BANK1   BANK3   BANK2
  7505 ;;      Params:         0       0       0       0       0
  7506 ;;      Locals:         1       0       0       0       0
  7507 ;;      Temps:          0       0       0       0       0
  7508 ;;      Totals:         1       0       0       0       0
  7509 ;;Total ram usage:        1 bytes
  7510 ;; Hardware stack levels used:    1
  7511 ;; This function calls:
  7512 ;;		Nothing
  7513 ;; This function is called by:
  7514 ;;		_main
  7515 ;;		_UARTSendString
  7516 ;; This function uses a non-reentrant model
  7517 ;;
  7518                           
  7519                           
  7520                           ;psect for function _UARTSendChar
  7521  0800                     _UARTSendChar:
  7522                           
  7523                           ;incstack = 0
  7524                           ; Regs used in _UARTSendChar: [wreg]
  7525                           ;UARTSendChar@c stored from wreg
  7526  0800  00F0               	movwf	UARTSendChar@c
  7527  0801                     l2187:
  7528  0801                     l190:	
  7529                           ;UART.c: 45:     while (TXSTAbits.TRMT == 0);
  7530                           
  7531  0801  1683               	bsf	3,5	;RP0=1, select bank1
  7532  0802  1303               	bcf	3,6	;RP1=0, select bank1
  7533  0803  1C98               	btfss	24,1	;volatile
  7534  0804  2806               	goto	u2531
  7535  0805  2807               	goto	u2530
  7536  0806                     u2531:
  7537  0806  2801               	goto	l190
  7538  0807                     u2530:
  7539  0807                     l2189:
  7540                           
  7541                           ;UART.c: 46:     TXREG = c;
  7542  0807  0870               	movf	UARTSendChar@c,w
  7543  0808  1283               	bcf	3,5	;RP0=0, select bank0
  7544  0809  1303               	bcf	3,6	;RP1=0, select bank0
  7545  080A  0099               	movwf	25	;volatile
  7546  080B                     l193:
  7547  080B  0008               	return
  7548  080C                     __end_of_UARTSendChar:
  7549                           
  7550                           	psect	text21
  7551  0822                     __ptext21:	
  7552 ;; *************** function _UARTInit *****************
  7553 ;; Defined at:
  7554 ;;		line 13 in file "UART.c"
  7555 ;; Parameters:    Size  Location     Type
  7556 ;;  baud_rate       4    0[BANK0 ] const unsigned long 
  7557 ;;  BRGH            1    4[BANK0 ] const unsigned char 
  7558 ;; Auto vars:     Size  Location     Type
  7559 ;;		None
  7560 ;; Return value:  Size  Location     Type
  7561 ;;                  1    wreg      void 
  7562 ;; Registers used:
  7563 ;;		wreg, status,2, status,0, pclath, cstack
  7564 ;; Tracked objects:
  7565 ;;		On entry : 0/0
  7566 ;;		On exit  : 0/0
  7567 ;;		Unchanged: 0/0
  7568 ;; Data sizes:     COMMON   BANK0   BANK1   BANK3   BANK2
  7569 ;;      Params:         0       5       0       0       0
  7570 ;;      Locals:         0       0       0       0       0
  7571 ;;      Temps:          0       4       0       0       0
  7572 ;;      Totals:         0       9       0       0       0
  7573 ;;Total ram usage:        9 bytes
  7574 ;; Hardware stack levels used:    1
  7575 ;; Hardware stack levels required when called:    1
  7576 ;; This function calls:
  7577 ;;		___lldiv
  7578 ;; This function is called by:
  7579 ;;		_main
  7580 ;; This function uses a non-reentrant model
  7581 ;;
  7582                           
  7583                           
  7584                           ;psect for function _UARTInit
  7585  0822                     _UARTInit:
  7586  0822                     l2735:	
  7587                           ;incstack = 0
  7588                           ; Regs used in _UARTInit: [wreg+status,2+status,0+pclath+cstack]
  7589                           
  7590                           
  7591                           ;UART.c: 15:     if (BRGH == 0) {
  7592  0822  1283               	bcf	3,5	;RP0=0, select bank0
  7593  0823  1303               	bcf	3,6	;RP1=0, select bank0
  7594  0824  0824               	movf	UARTInit@BRGH,w
  7595  0825  1D03               	btfss	3,2
  7596  0826  2828               	goto	u3841
  7597  0827  2829               	goto	u3840
  7598  0828                     u3841:
  7599  0828  2856               	goto	l2741
  7600  0829                     u3840:
  7601  0829                     l2737:
  7602                           
  7603                           ;UART.c: 16:         SPBRG = 4000000 / (64 * baud_rate) - 1;
  7604  0829  0820               	movf	UARTInit@baud_rate,w
  7605  082A  00A5               	movwf	??_UARTInit
  7606  082B  0821               	movf	UARTInit@baud_rate+1,w
  7607  082C  00A6               	movwf	??_UARTInit+1
  7608  082D  0822               	movf	UARTInit@baud_rate+2,w
  7609  082E  00A7               	movwf	??_UARTInit+2
  7610  082F  0823               	movf	UARTInit@baud_rate+3,w
  7611  0830  00A8               	movwf	??_UARTInit+3
  7612  0831  3006               	movlw	6
  7613  0832                     u3855:
  7614  0832  1003               	clrc
  7615  0833  0DA5               	rlf	??_UARTInit,f
  7616  0834  0DA6               	rlf	??_UARTInit+1,f
  7617  0835  0DA7               	rlf	??_UARTInit+2,f
  7618  0836  0DA8               	rlf	??_UARTInit+3,f
  7619  0837                     u3850:
  7620  0837  3EFF               	addlw	-1
  7621  0838  1D03               	skipz
  7622  0839  2832               	goto	u3855
  7623  083A  0828               	movf	??_UARTInit+3,w
  7624  083B  00F3               	movwf	___lldiv@divisor+3
  7625  083C  0827               	movf	??_UARTInit+2,w
  7626  083D  00F2               	movwf	___lldiv@divisor+2
  7627  083E  0826               	movf	??_UARTInit+1,w
  7628  083F  00F1               	movwf	___lldiv@divisor+1
  7629  0840  0825               	movf	??_UARTInit,w
  7630  0841  00F0               	movwf	___lldiv@divisor
  7631  0842  3000               	movlw	0
  7632  0843  00F7               	movwf	___lldiv@dividend+3
  7633  0844  303D               	movlw	61
  7634  0845  00F6               	movwf	___lldiv@dividend+2
  7635  0846  3009               	movlw	9
  7636  0847  00F5               	movwf	___lldiv@dividend+1
  7637  0848  3000               	movlw	0
  7638  0849  00F4               	movwf	___lldiv@dividend
  7639  084A  160A  118A  25D5  120A  158A  	fcall	___lldiv
  7640  084F  0870               	movf	?___lldiv,w
  7641  0850  3EFF               	addlw	255
  7642  0851  1683               	bsf	3,5	;RP0=1, select bank1
  7643  0852  1303               	bcf	3,6	;RP1=0, select bank1
  7644  0853  0099               	movwf	25	;volatile
  7645  0854                     l2739:
  7646                           
  7647                           ;UART.c: 17:         TXSTAbits.BRGH = 0;
  7648  0854  1118               	bcf	24,2	;volatile
  7649                           
  7650                           ;UART.c: 18:     } else {
  7651  0855  2882               	goto	l2745
  7652  0856                     l2741:
  7653                           
  7654                           ;UART.c: 19:         SPBRG = 4000000 / (16 * baud_rate) - 1;
  7655  0856  0820               	movf	UARTInit@baud_rate,w
  7656  0857  00A5               	movwf	??_UARTInit
  7657  0858  0821               	movf	UARTInit@baud_rate+1,w
  7658  0859  00A6               	movwf	??_UARTInit+1
  7659  085A  0822               	movf	UARTInit@baud_rate+2,w
  7660  085B  00A7               	movwf	??_UARTInit+2
  7661  085C  0823               	movf	UARTInit@baud_rate+3,w
  7662  085D  00A8               	movwf	??_UARTInit+3
  7663  085E  3004               	movlw	4
  7664  085F                     u3865:
  7665  085F  1003               	clrc
  7666  0860  0DA5               	rlf	??_UARTInit,f
  7667  0861  0DA6               	rlf	??_UARTInit+1,f
  7668  0862  0DA7               	rlf	??_UARTInit+2,f
  7669  0863  0DA8               	rlf	??_UARTInit+3,f
  7670  0864                     u3860:
  7671  0864  3EFF               	addlw	-1
  7672  0865  1D03               	skipz
  7673  0866  285F               	goto	u3865
  7674  0867  0828               	movf	??_UARTInit+3,w
  7675  0868  00F3               	movwf	___lldiv@divisor+3
  7676  0869  0827               	movf	??_UARTInit+2,w
  7677  086A  00F2               	movwf	___lldiv@divisor+2
  7678  086B  0826               	movf	??_UARTInit+1,w
  7679  086C  00F1               	movwf	___lldiv@divisor+1
  7680  086D  0825               	movf	??_UARTInit,w
  7681  086E  00F0               	movwf	___lldiv@divisor
  7682  086F  3000               	movlw	0
  7683  0870  00F7               	movwf	___lldiv@dividend+3
  7684  0871  303D               	movlw	61
  7685  0872  00F6               	movwf	___lldiv@dividend+2
  7686  0873  3009               	movlw	9
  7687  0874  00F5               	movwf	___lldiv@dividend+1
  7688  0875  3000               	movlw	0
  7689  0876  00F4               	movwf	___lldiv@dividend
  7690  0877  160A  118A  25D5  120A  158A  	fcall	___lldiv
  7691  087C  0870               	movf	?___lldiv,w
  7692  087D  3EFF               	addlw	255
  7693  087E  1683               	bsf	3,5	;RP0=1, select bank1
  7694  087F  1303               	bcf	3,6	;RP1=0, select bank1
  7695  0880  0099               	movwf	25	;volatile
  7696  0881                     l2743:
  7697                           
  7698                           ;UART.c: 20:         TXSTAbits.BRGH = 1;
  7699  0881  1518               	bsf	24,2	;volatile
  7700  0882                     l2745:
  7701                           
  7702                           ;UART.c: 24:     TXSTAbits.TX9 = 0;
  7703  0882  1318               	bcf	24,6	;volatile
  7704  0883                     l2747:
  7705                           
  7706                           ;UART.c: 25:     TXSTAbits.TXEN = 1;
  7707  0883  1698               	bsf	24,5	;volatile
  7708  0884                     l2749:
  7709                           
  7710                           ;UART.c: 26:     TXSTAbits.SYNC = 0;
  7711  0884  1218               	bcf	24,4	;volatile
  7712  0885                     l2751:
  7713                           
  7714                           ;UART.c: 29:     RCSTAbits.SPEN = 1;
  7715  0885  1283               	bcf	3,5	;RP0=0, select bank0
  7716  0886  1303               	bcf	3,6	;RP1=0, select bank0
  7717  0887  1798               	bsf	24,7	;volatile
  7718  0888                     l2753:
  7719                           
  7720                           ;UART.c: 30:     RCSTAbits.RX9 = 0;
  7721  0888  1318               	bcf	24,6	;volatile
  7722  0889                     l2755:
  7723                           
  7724                           ;UART.c: 31:     RCSTAbits.CREN = 1;
  7725  0889  1618               	bsf	24,4	;volatile
  7726  088A                     l2757:
  7727                           
  7728                           ;UART.c: 32:     RCSTAbits.FERR = 0;
  7729  088A  1118               	bcf	24,2	;volatile
  7730  088B                     l2759:
  7731                           
  7732                           ;UART.c: 33:     RCSTAbits.OERR = 0;
  7733  088B  1098               	bcf	24,1	;volatile
  7734  088C                     l2761:
  7735                           
  7736                           ;UART.c: 36:     TRISCbits.TRISC7 = 1;
  7737  088C  1683               	bsf	3,5	;RP0=1, select bank1
  7738  088D  1303               	bcf	3,6	;RP1=0, select bank1
  7739  088E  1787               	bsf	7,7	;volatile
  7740  088F                     l2763:
  7741                           
  7742                           ;UART.c: 37:     TRISCbits.TRISC6 = 0;
  7743  088F  1307               	bcf	7,6	;volatile
  7744  0890                     l187:
  7745  0890  0008               	return
  7746  0891                     __end_of_UARTInit:
  7747                           
  7748                           	psect	text22
  7749  15D5                     __ptext22:	
  7750 ;; *************** function ___lldiv *****************
  7751 ;; Defined at:
  7752 ;;		line 5 in file "C:\Program Files\Microchip\xc8\v2.31\pic\sources\c90\common\__lldiv.c"
  7753 ;; Parameters:    Size  Location     Type
  7754 ;;  divisor         4    0[COMMON] unsigned long 
  7755 ;;  dividend        4    4[COMMON] unsigned long 
  7756 ;; Auto vars:     Size  Location     Type
  7757 ;;  quotient        4    9[COMMON] unsigned long 
  7758 ;;  counter         1   13[COMMON] unsigned char 
  7759 ;; Return value:  Size  Location     Type
  7760 ;;                  4    0[COMMON] unsigned long 
  7761 ;; Registers used:
  7762 ;;		wreg, status,2, status,0
  7763 ;; Tracked objects:
  7764 ;;		On entry : 0/0
  7765 ;;		On exit  : 0/0
  7766 ;;		Unchanged: 0/0
  7767 ;; Data sizes:     COMMON   BANK0   BANK1   BANK3   BANK2
  7768 ;;      Params:         8       0       0       0       0
  7769 ;;      Locals:         5       0       0       0       0
  7770 ;;      Temps:          1       0       0       0       0
  7771 ;;      Totals:        14       0       0       0       0
  7772 ;;Total ram usage:       14 bytes
  7773 ;; Hardware stack levels used:    1
  7774 ;; This function calls:
  7775 ;;		Nothing
  7776 ;; This function is called by:
  7777 ;;		_UARTInit
  7778 ;; This function uses a non-reentrant model
  7779 ;;
  7780                           
  7781                           
  7782                           ;psect for function ___lldiv
  7783  15D5                     ___lldiv:
  7784  15D5                     l2241:	
  7785                           ;incstack = 0
  7786                           ; Regs used in ___lldiv: [wreg+status,2+status,0]
  7787                           
  7788  15D5  3000               	movlw	0
  7789  15D6  00FC               	movwf	___lldiv@quotient+3
  7790  15D7  3000               	movlw	0
  7791  15D8  00FB               	movwf	___lldiv@quotient+2
  7792  15D9  3000               	movlw	0
  7793  15DA  00FA               	movwf	___lldiv@quotient+1
  7794  15DB  3000               	movlw	0
  7795  15DC  00F9               	movwf	___lldiv@quotient
  7796  15DD  0873               	movf	___lldiv@divisor+3,w
  7797  15DE  0472               	iorwf	___lldiv@divisor+2,w
  7798  15DF  0471               	iorwf	___lldiv@divisor+1,w
  7799  15E0  0470               	iorwf	___lldiv@divisor,w
  7800  15E1  1903               	skipnz
  7801  15E2  2DE4               	goto	u2611
  7802  15E3  2DE5               	goto	u2610
  7803  15E4                     u2611:
  7804  15E4  2E32               	goto	l2261
  7805  15E5                     u2610:
  7806  15E5                     l2243:
  7807  15E5  01FD               	clrf	___lldiv@counter
  7808  15E6  0AFD               	incf	___lldiv@counter,f
  7809  15E7  2DF5               	goto	l2247
  7810  15E8                     l2245:
  7811  15E8  3001               	movlw	1
  7812  15E9  00F8               	movwf	??___lldiv
  7813  15EA                     u2625:
  7814  15EA  1003               	clrc
  7815  15EB  0DF0               	rlf	___lldiv@divisor,f
  7816  15EC  0DF1               	rlf	___lldiv@divisor+1,f
  7817  15ED  0DF2               	rlf	___lldiv@divisor+2,f
  7818  15EE  0DF3               	rlf	___lldiv@divisor+3,f
  7819  15EF  0BF8               	decfsz	??___lldiv,f
  7820  15F0  2DEA               	goto	u2625
  7821  15F1  3001               	movlw	1
  7822  15F2  00F8               	movwf	??___lldiv
  7823  15F3  0878               	movf	??___lldiv,w
  7824  15F4  07FD               	addwf	___lldiv@counter,f
  7825  15F5                     l2247:
  7826  15F5  1FF3               	btfss	___lldiv@divisor+3,7
  7827  15F6  2DF8               	goto	u2631
  7828  15F7  2DF9               	goto	u2630
  7829  15F8                     u2631:
  7830  15F8  2DE8               	goto	l2245
  7831  15F9                     u2630:
  7832  15F9                     l2249:
  7833  15F9  3001               	movlw	1
  7834  15FA  00F8               	movwf	??___lldiv
  7835  15FB                     u2645:
  7836  15FB  1003               	clrc
  7837  15FC  0DF9               	rlf	___lldiv@quotient,f
  7838  15FD  0DFA               	rlf	___lldiv@quotient+1,f
  7839  15FE  0DFB               	rlf	___lldiv@quotient+2,f
  7840  15FF  0DFC               	rlf	___lldiv@quotient+3,f
  7841  1600  0BF8               	decfsz	??___lldiv,f
  7842  1601  2DFB               	goto	u2645
  7843  1602                     l2251:
  7844  1602  0873               	movf	___lldiv@divisor+3,w
  7845  1603  0277               	subwf	___lldiv@dividend+3,w
  7846  1604  1D03               	skipz
  7847  1605  2E10               	goto	u2655
  7848  1606  0872               	movf	___lldiv@divisor+2,w
  7849  1607  0276               	subwf	___lldiv@dividend+2,w
  7850  1608  1D03               	skipz
  7851  1609  2E10               	goto	u2655
  7852  160A  0871               	movf	___lldiv@divisor+1,w
  7853  160B  0275               	subwf	___lldiv@dividend+1,w
  7854  160C  1D03               	skipz
  7855  160D  2E10               	goto	u2655
  7856  160E  0870               	movf	___lldiv@divisor,w
  7857  160F  0274               	subwf	___lldiv@dividend,w
  7858  1610                     u2655:
  7859  1610  1C03               	skipc
  7860  1611  2E13               	goto	u2651
  7861  1612  2E14               	goto	u2650
  7862  1613                     u2651:
  7863  1613  2E23               	goto	l2257
  7864  1614                     u2650:
  7865  1614                     l2253:
  7866  1614  0870               	movf	___lldiv@divisor,w
  7867  1615  02F4               	subwf	___lldiv@dividend,f
  7868  1616  0871               	movf	___lldiv@divisor+1,w
  7869  1617  1C03               	skipc
  7870  1618  0F71               	incfsz	___lldiv@divisor+1,w
  7871  1619  02F5               	subwf	___lldiv@dividend+1,f
  7872  161A  0872               	movf	___lldiv@divisor+2,w
  7873  161B  1C03               	skipc
  7874  161C  0F72               	incfsz	___lldiv@divisor+2,w
  7875  161D  02F6               	subwf	___lldiv@dividend+2,f
  7876  161E  0873               	movf	___lldiv@divisor+3,w
  7877  161F  1C03               	skipc
  7878  1620  0F73               	incfsz	___lldiv@divisor+3,w
  7879  1621  02F7               	subwf	___lldiv@dividend+3,f
  7880  1622                     l2255:
  7881  1622  1479               	bsf	___lldiv@quotient,0
  7882  1623                     l2257:
  7883  1623  3001               	movlw	1
  7884  1624                     u2665:
  7885  1624  1003               	clrc
  7886  1625  0CF3               	rrf	___lldiv@divisor+3,f
  7887  1626  0CF2               	rrf	___lldiv@divisor+2,f
  7888  1627  0CF1               	rrf	___lldiv@divisor+1,f
  7889  1628  0CF0               	rrf	___lldiv@divisor,f
  7890  1629  3EFF               	addlw	-1
  7891  162A  1D03               	skipz
  7892  162B  2E24               	goto	u2665
  7893  162C                     l2259:
  7894  162C  3001               	movlw	1
  7895  162D  02FD               	subwf	___lldiv@counter,f
  7896  162E  1D03               	btfss	3,2
  7897  162F  2E31               	goto	u2671
  7898  1630  2E32               	goto	u2670
  7899  1631                     u2671:
  7900  1631  2DF9               	goto	l2249
  7901  1632                     u2670:
  7902  1632                     l2261:
  7903  1632  087C               	movf	___lldiv@quotient+3,w
  7904  1633  00F3               	movwf	?___lldiv+3
  7905  1634  087B               	movf	___lldiv@quotient+2,w
  7906  1635  00F2               	movwf	?___lldiv+2
  7907  1636  087A               	movf	___lldiv@quotient+1,w
  7908  1637  00F1               	movwf	?___lldiv+1
  7909  1638  0879               	movf	___lldiv@quotient,w
  7910  1639  00F0               	movwf	?___lldiv
  7911  163A                     l341:
  7912  163A  0008               	return
  7913  163B                     __end_of___lldiv:
  7914                           
  7915                           	psect	text23
  7916  146A                     __ptext23:	
  7917 ;; *************** function _Lcd_Write_String *****************
  7918 ;; Defined at:
  7919 ;;		line 61 in file "LCD.c"
  7920 ;; Parameters:    Size  Location     Type
  7921 ;;  a               2    3[COMMON] PTR unsigned char 
  7922 ;;		 -> NULL(0), STR_7(2), string_temperature(5), RAM(512), 
  7923 ;;		 -> STR_4(2), string_voltageADC(5), STR_3(4), STR_2(4), 
  7924 ;;		 -> STR_1(4), 
  7925 ;; Auto vars:     Size  Location     Type
  7926 ;;  i               2    5[COMMON] int 
  7927 ;; Return value:  Size  Location     Type
  7928 ;;                  1    wreg      void 
  7929 ;; Registers used:
  7930 ;;		wreg, fsr0l, fsr0h, status,2, status,0, btemp+1, pclath, cstack
  7931 ;; Tracked objects:
  7932 ;;		On entry : 0/0
  7933 ;;		On exit  : 0/0
  7934 ;;		Unchanged: 0/0
  7935 ;; Data sizes:     COMMON   BANK0   BANK1   BANK3   BANK2
  7936 ;;      Params:         2       0       0       0       0
  7937 ;;      Locals:         2       0       0       0       0
  7938 ;;      Temps:          0       0       0       0       0
  7939 ;;      Totals:         4       0       0       0       0
  7940 ;;Total ram usage:        4 bytes
  7941 ;; Hardware stack levels used:    1
  7942 ;; Hardware stack levels required when called:    2
  7943 ;; This function calls:
  7944 ;;		_Lcd_Write_Char
  7945 ;; This function is called by:
  7946 ;;		_main
  7947 ;; This function uses a non-reentrant model
  7948 ;;
  7949                           
  7950                           
  7951                           ;psect for function _Lcd_Write_String
  7952  146A                     _Lcd_Write_String:
  7953  146A                     l2799:	
  7954                           ;incstack = 0
  7955                           ; Regs used in _Lcd_Write_String: [wreg-fsr0h+status,2+status,0+btemp+1+pclath+cstack]
  7956                           
  7957                           
  7958                           ;LCD.c: 62:     int i;;LCD.c: 63:     for (i = 0; a[i] != '\0'; i++)
  7959  146A  01F5               	clrf	Lcd_Write_String@i
  7960  146B  01F6               	clrf	Lcd_Write_String@i+1
  7961  146C  2C85               	goto	l2805
  7962  146D                     l2801:
  7963                           
  7964                           ;LCD.c: 64:         Lcd_Write_Char(a[i]);
  7965  146D  0875               	movf	Lcd_Write_String@i,w
  7966  146E  0773               	addwf	Lcd_Write_String@a,w
  7967  146F  0084               	movwf	4
  7968  1470  0876               	movf	Lcd_Write_String@i+1,w
  7969  1471  1803               	skipnc
  7970  1472  0A76               	incf	Lcd_Write_String@i+1,w
  7971  1473  0774               	addwf	Lcd_Write_String@a+1,w
  7972  1474  00FF               	movwf	btemp+1
  7973  1475  160A  118A  2000  160A  118A  	fcall	stringtab
  7974  147A  160A  118A  23AA  160A  118A  	fcall	_Lcd_Write_Char
  7975  147F                     l2803:
  7976  147F  3001               	movlw	1
  7977  1480  07F5               	addwf	Lcd_Write_String@i,f
  7978  1481  1803               	skipnc
  7979  1482  0AF6               	incf	Lcd_Write_String@i+1,f
  7980  1483  3000               	movlw	0
  7981  1484  07F6               	addwf	Lcd_Write_String@i+1,f
  7982  1485                     l2805:
  7983  1485  0875               	movf	Lcd_Write_String@i,w
  7984  1486  0773               	addwf	Lcd_Write_String@a,w
  7985  1487  0084               	movwf	4
  7986  1488  0876               	movf	Lcd_Write_String@i+1,w
  7987  1489  1803               	skipnc
  7988  148A  0A76               	incf	Lcd_Write_String@i+1,w
  7989  148B  0774               	addwf	Lcd_Write_String@a+1,w
  7990  148C  1283               	bcf	3,5	;RP0=0, select bank0
  7991  148D  1303               	bcf	3,6	;RP1=0, select bank0
  7992  148E  00FF               	movwf	btemp+1
  7993  148F  160A  118A  2000  160A  118A  	fcall	stringtab
  7994  1494  3A00               	xorlw	0
  7995  1495  1D03               	skipz
  7996  1496  2C98               	goto	u3901
  7997  1497  2C99               	goto	u3900
  7998  1498                     u3901:
  7999  1498  2C6D               	goto	l2801
  8000  1499                     u3900:
  8001  1499                     l136:
  8002  1499  0008               	return
  8003  149A                     __end_of_Lcd_Write_String:
  8004                           
  8005                           	psect	text24
  8006  13AA                     __ptext24:	
  8007 ;; *************** function _Lcd_Write_Char *****************
  8008 ;; Defined at:
  8009 ;;		line 53 in file "LCD.c"
  8010 ;; Parameters:    Size  Location     Type
  8011 ;;  a               1    wreg     unsigned char 
  8012 ;; Auto vars:     Size  Location     Type
  8013 ;;  a               1    2[COMMON] unsigned char 
  8014 ;; Return value:  Size  Location     Type
  8015 ;;                  1    wreg      void 
  8016 ;; Registers used:
  8017 ;;		wreg, status,2, status,0, pclath, cstack
  8018 ;; Tracked objects:
  8019 ;;		On entry : 0/0
  8020 ;;		On exit  : 0/0
  8021 ;;		Unchanged: 0/0
  8022 ;; Data sizes:     COMMON   BANK0   BANK1   BANK3   BANK2
  8023 ;;      Params:         0       0       0       0       0
  8024 ;;      Locals:         1       0       0       0       0
  8025 ;;      Temps:          1       0       0       0       0
  8026 ;;      Totals:         2       0       0       0       0
  8027 ;;Total ram usage:        2 bytes
  8028 ;; Hardware stack levels used:    1
  8029 ;; Hardware stack levels required when called:    1
  8030 ;; This function calls:
  8031 ;;		_Lcd_Port
  8032 ;; This function is called by:
  8033 ;;		_Lcd_Write_String
  8034 ;; This function uses a non-reentrant model
  8035 ;;
  8036                           
  8037                           
  8038                           ;psect for function _Lcd_Write_Char
  8039  13AA                     _Lcd_Write_Char:
  8040                           
  8041                           ;incstack = 0
  8042                           ; Regs used in _Lcd_Write_Char: [wreg+status,2+status,0+pclath+cstack]
  8043                           ;Lcd_Write_Char@a stored from wreg
  8044  13AA  00F2               	movwf	Lcd_Write_Char@a
  8045  13AB                     l2203:
  8046                           
  8047                           ;LCD.c: 54:     PORTEbits.RE0 = 1;
  8048  13AB  1283               	bcf	3,5	;RP0=0, select bank0
  8049  13AC  1303               	bcf	3,6	;RP1=0, select bank0
  8050  13AD  1409               	bsf	9,0	;volatile
  8051  13AE                     l2205:
  8052                           
  8053                           ;LCD.c: 55:     Lcd_Port(a);
  8054  13AE  0872               	movf	Lcd_Write_Char@a,w
  8055  13AF  160A  118A  2380  160A  118A  	fcall	_Lcd_Port
  8056  13B4                     l2207:
  8057                           
  8058                           ;LCD.c: 56:     PORTEbits.RE1 = 1;
  8059  13B4  1283               	bcf	3,5	;RP0=0, select bank0
  8060  13B5  1303               	bcf	3,6	;RP1=0, select bank0
  8061  13B6  1489               	bsf	9,1	;volatile
  8062  13B7                     l2209:
  8063                           
  8064                           ;LCD.c: 57:     _delay((unsigned long)((40)*(4000000/4000000.0)));
  8065  13B7  300D               	movlw	13
  8066  13B8  00F1               	movwf	??_Lcd_Write_Char
  8067  13B9                     u4087:
  8068  13B9  0BF1               	decfsz	??_Lcd_Write_Char,f
  8069  13BA  2BB9               	goto	u4087
  8070  13BB                     l2211:
  8071                           
  8072                           ;LCD.c: 58:     PORTEbits.RE1 = 0;
  8073  13BB  1283               	bcf	3,5	;RP0=0, select bank0
  8074  13BC  1303               	bcf	3,6	;RP1=0, select bank0
  8075  13BD  1089               	bcf	9,1	;volatile
  8076  13BE                     l130:
  8077  13BE  0008               	return
  8078  13BF                     __end_of_Lcd_Write_Char:
  8079                           
  8080                           	psect	text25
  8081  13D4                     __ptext25:	
  8082 ;; *************** function _Lcd_Set_Cursor *****************
  8083 ;; Defined at:
  8084 ;;		line 28 in file "LCD.c"
  8085 ;; Parameters:    Size  Location     Type
  8086 ;;  a               1    wreg     unsigned char 
  8087 ;;  b               1    4[COMMON] unsigned char 
  8088 ;; Auto vars:     Size  Location     Type
  8089 ;;  a               1    6[COMMON] unsigned char 
  8090 ;;  temp            1    7[COMMON] unsigned char 
  8091 ;; Return value:  Size  Location     Type
  8092 ;;                  1    wreg      void 
  8093 ;; Registers used:
  8094 ;;		wreg, status,2, status,0, pclath, cstack
  8095 ;; Tracked objects:
  8096 ;;		On entry : 0/0
  8097 ;;		On exit  : 0/0
  8098 ;;		Unchanged: 0/0
  8099 ;; Data sizes:     COMMON   BANK0   BANK1   BANK3   BANK2
  8100 ;;      Params:         1       0       0       0       0
  8101 ;;      Locals:         2       0       0       0       0
  8102 ;;      Temps:          1       0       0       0       0
  8103 ;;      Totals:         4       0       0       0       0
  8104 ;;Total ram usage:        4 bytes
  8105 ;; Hardware stack levels used:    1
  8106 ;; Hardware stack levels required when called:    2
  8107 ;; This function calls:
  8108 ;;		_Lcd_Cmd
  8109 ;; This function is called by:
  8110 ;;		_main
  8111 ;; This function uses a non-reentrant model
  8112 ;;
  8113                           
  8114                           
  8115                           ;psect for function _Lcd_Set_Cursor
  8116  13D4                     _Lcd_Set_Cursor:
  8117                           
  8118                           ;incstack = 0
  8119                           ; Regs used in _Lcd_Set_Cursor: [wreg+status,2+status,0+pclath+cstack]
  8120                           ;Lcd_Set_Cursor@a stored from wreg
  8121  13D4  00F6               	movwf	Lcd_Set_Cursor@a
  8122  13D5                     l2787:
  8123                           
  8124                           ;LCD.c: 29:     char temp;;LCD.c: 30:     if (a == 1) {
  8125  13D5  0376               	decf	Lcd_Set_Cursor@a,w
  8126  13D6  1D03               	btfss	3,2
  8127  13D7  2BD9               	goto	u3881
  8128  13D8  2BDA               	goto	u3880
  8129  13D9                     u3881:
  8130  13D9  2BE6               	goto	l2793
  8131  13DA                     u3880:
  8132  13DA                     l2789:
  8133                           
  8134                           ;LCD.c: 31:         temp = 0x80 + b - 1;
  8135  13DA  0874               	movf	Lcd_Set_Cursor@b,w
  8136  13DB  3E7F               	addlw	127
  8137  13DC  00F5               	movwf	??_Lcd_Set_Cursor
  8138  13DD  0875               	movf	??_Lcd_Set_Cursor,w
  8139  13DE  00F7               	movwf	Lcd_Set_Cursor@temp
  8140  13DF                     l2791:
  8141                           
  8142                           ;LCD.c: 32:         Lcd_Cmd(temp);
  8143  13DF  0877               	movf	Lcd_Set_Cursor@temp,w
  8144  13E0  120A  118A  200A  160A  118A  	fcall	_Lcd_Cmd
  8145                           
  8146                           ;LCD.c: 33:     } else if (a == 2) {
  8147  13E5  2BF7               	goto	l124
  8148  13E6                     l2793:
  8149  13E6  3002               	movlw	2
  8150  13E7  0676               	xorwf	Lcd_Set_Cursor@a,w
  8151  13E8  1D03               	btfss	3,2
  8152  13E9  2BEB               	goto	u3891
  8153  13EA  2BEC               	goto	u3890
  8154  13EB                     u3891:
  8155  13EB  2BF7               	goto	l124
  8156  13EC                     u3890:
  8157  13EC                     l2795:
  8158                           
  8159                           ;LCD.c: 34:         temp = 0xC0 + b - 1;
  8160  13EC  0874               	movf	Lcd_Set_Cursor@b,w
  8161  13ED  3EBF               	addlw	191
  8162  13EE  00F5               	movwf	??_Lcd_Set_Cursor
  8163  13EF  0875               	movf	??_Lcd_Set_Cursor,w
  8164  13F0  00F7               	movwf	Lcd_Set_Cursor@temp
  8165  13F1                     l2797:
  8166                           
  8167                           ;LCD.c: 35:         Lcd_Cmd(temp);
  8168  13F1  0877               	movf	Lcd_Set_Cursor@temp,w
  8169  13F2  120A  118A  200A  160A  118A  	fcall	_Lcd_Cmd
  8170  13F7                     l124:
  8171  13F7  0008               	return
  8172  13F8                     __end_of_Lcd_Set_Cursor:
  8173                           
  8174                           	psect	text26
  8175  14D9                     __ptext26:	
  8176 ;; *************** function _Lcd_Init *****************
  8177 ;; Defined at:
  8178 ;;		line 39 in file "LCD.c"
  8179 ;; Parameters:    Size  Location     Type
  8180 ;;		None
  8181 ;; Auto vars:     Size  Location     Type
  8182 ;;		None
  8183 ;; Return value:  Size  Location     Type
  8184 ;;                  1    wreg      void 
  8185 ;; Registers used:
  8186 ;;		wreg, status,2, status,0, pclath, cstack
  8187 ;; Tracked objects:
  8188 ;;		On entry : 0/0
  8189 ;;		On exit  : 0/0
  8190 ;;		Unchanged: 0/0
  8191 ;; Data sizes:     COMMON   BANK0   BANK1   BANK3   BANK2
  8192 ;;      Params:         0       0       0       0       0
  8193 ;;      Locals:         0       0       0       0       0
  8194 ;;      Temps:          2       0       0       0       0
  8195 ;;      Totals:         2       0       0       0       0
  8196 ;;Total ram usage:        2 bytes
  8197 ;; Hardware stack levels used:    1
  8198 ;; Hardware stack levels required when called:    2
  8199 ;; This function calls:
  8200 ;;		_Lcd_Cmd
  8201 ;;		_Lcd_Port
  8202 ;; This function is called by:
  8203 ;;		_main
  8204 ;; This function uses a non-reentrant model
  8205 ;;
  8206                           
  8207                           
  8208                           ;psect for function _Lcd_Init
  8209  14D9                     _Lcd_Init:
  8210  14D9                     l2775:	
  8211                           ;incstack = 0
  8212                           ; Regs used in _Lcd_Init: [wreg+status,2+status,0+pclath+cstack]
  8213                           
  8214                           
  8215                           ;LCD.c: 40:     Lcd_Port(0x00);
  8216  14D9  3000               	movlw	0
  8217  14DA  160A  118A  2380  160A  118A  	fcall	_Lcd_Port
  8218  14DF                     l2777:
  8219                           
  8220                           ;LCD.c: 41:     _delay((unsigned long)((20)*(4000000/4000.0)));
  8221  14DF  301A               	movlw	26
  8222  14E0  00F5               	movwf	??_Lcd_Init+1
  8223  14E1  30F8               	movlw	248
  8224  14E2  00F4               	movwf	??_Lcd_Init
  8225  14E3                     u4097:
  8226  14E3  0BF4               	decfsz	??_Lcd_Init,f
  8227  14E4  2CE3               	goto	u4097
  8228  14E5  0BF5               	decfsz	??_Lcd_Init+1,f
  8229  14E6  2CE3               	goto	u4097
  8230  14E7  0000               	nop
  8231  14E8                     l2779:
  8232                           
  8233                           ;LCD.c: 42:     Lcd_Cmd(0x30);
  8234  14E8  3030               	movlw	48
  8235  14E9  120A  118A  200A  160A  118A  	fcall	_Lcd_Cmd
  8236                           
  8237                           ;LCD.c: 43:     _delay((unsigned long)((5)*(4000000/4000.0)));
  8238  14EE  3007               	movlw	7
  8239  14EF  00F5               	movwf	??_Lcd_Init+1
  8240  14F0  307D               	movlw	125
  8241  14F1  00F4               	movwf	??_Lcd_Init
  8242  14F2                     u4107:
  8243  14F2  0BF4               	decfsz	??_Lcd_Init,f
  8244  14F3  2CF2               	goto	u4107
  8245  14F4  0BF5               	decfsz	??_Lcd_Init+1,f
  8246  14F5  2CF2               	goto	u4107
  8247  14F6                     l2781:
  8248                           
  8249                           ;LCD.c: 44:     Lcd_Cmd(0x30);
  8250  14F6  3030               	movlw	48
  8251  14F7  120A  118A  200A  160A  118A  	fcall	_Lcd_Cmd
  8252  14FC                     l2783:
  8253                           
  8254                           ;LCD.c: 45:     _delay((unsigned long)((11)*(4000000/4000.0)));
  8255  14FC  300F               	movlw	15
  8256  14FD  00F5               	movwf	??_Lcd_Init+1
  8257  14FE  3047               	movlw	71
  8258  14FF  00F4               	movwf	??_Lcd_Init
  8259  1500                     u4117:
  8260  1500  0BF4               	decfsz	??_Lcd_Init,f
  8261  1501  2D00               	goto	u4117
  8262  1502  0BF5               	decfsz	??_Lcd_Init+1,f
  8263  1503  2D00               	goto	u4117
  8264  1504  2D05               	nop2
  8265                           
  8266                           ;LCD.c: 46:     Lcd_Cmd(0x30);
  8267  1505  3030               	movlw	48
  8268  1506  120A  118A  200A  160A  118A  	fcall	_Lcd_Cmd
  8269                           
  8270                           ;LCD.c: 48:     Lcd_Cmd(0x38);
  8271  150B  3038               	movlw	56
  8272  150C  120A  118A  200A  160A  118A  	fcall	_Lcd_Cmd
  8273                           
  8274                           ;LCD.c: 49:     Lcd_Cmd(0x0C);
  8275  1511  300C               	movlw	12
  8276  1512  120A  118A  200A  160A  118A  	fcall	_Lcd_Cmd
  8277                           
  8278                           ;LCD.c: 50:     Lcd_Cmd(0x6);
  8279  1517  3006               	movlw	6
  8280  1518  120A  118A  200A  160A  118A  	fcall	_Lcd_Cmd
  8281  151D                     l127:
  8282  151D  0008               	return
  8283  151E                     __end_of_Lcd_Init:
  8284                           
  8285                           	psect	text27
  8286  139D                     __ptext27:	
  8287 ;; *************** function _Lcd_Clear *****************
  8288 ;; Defined at:
  8289 ;;		line 23 in file "LCD.c"
  8290 ;; Parameters:    Size  Location     Type
  8291 ;;		None
  8292 ;; Auto vars:     Size  Location     Type
  8293 ;;		None
  8294 ;; Return value:  Size  Location     Type
  8295 ;;                  1    wreg      void 
  8296 ;; Registers used:
  8297 ;;		wreg, status,2, status,0, pclath, cstack
  8298 ;; Tracked objects:
  8299 ;;		On entry : 0/0
  8300 ;;		On exit  : 0/0
  8301 ;;		Unchanged: 0/0
  8302 ;; Data sizes:     COMMON   BANK0   BANK1   BANK3   BANK2
  8303 ;;      Params:         0       0       0       0       0
  8304 ;;      Locals:         0       0       0       0       0
  8305 ;;      Temps:          0       0       0       0       0
  8306 ;;      Totals:         0       0       0       0       0
  8307 ;;Total ram usage:        0 bytes
  8308 ;; Hardware stack levels used:    1
  8309 ;; Hardware stack levels required when called:    2
  8310 ;; This function calls:
  8311 ;;		_Lcd_Cmd
  8312 ;; This function is called by:
  8313 ;;		_main
  8314 ;; This function uses a non-reentrant model
  8315 ;;
  8316                           
  8317                           
  8318                           ;psect for function _Lcd_Clear
  8319  139D                     _Lcd_Clear:
  8320  139D                     l2785:	
  8321                           ;incstack = 0
  8322                           ; Regs used in _Lcd_Clear: [wreg+status,2+status,0+pclath+cstack]
  8323                           
  8324                           
  8325                           ;LCD.c: 24:     Lcd_Cmd(0);
  8326  139D  3000               	movlw	0
  8327  139E  120A  118A  200A  160A  118A  	fcall	_Lcd_Cmd
  8328                           
  8329                           ;LCD.c: 25:     Lcd_Cmd(1);
  8330  13A3  3001               	movlw	1
  8331  13A4  120A  118A  200A  160A  118A  	fcall	_Lcd_Cmd
  8332  13A9                     l118:
  8333  13A9  0008               	return
  8334  13AA                     __end_of_Lcd_Clear:
  8335                           
  8336                           	psect	text28
  8337  000A                     __ptext28:	
  8338 ;; *************** function _Lcd_Cmd *****************
  8339 ;; Defined at:
  8340 ;;		line 15 in file "LCD.c"
  8341 ;; Parameters:    Size  Location     Type
  8342 ;;  a               1    wreg     unsigned char 
  8343 ;; Auto vars:     Size  Location     Type
  8344 ;;  a               1    3[COMMON] unsigned char 
  8345 ;; Return value:  Size  Location     Type
  8346 ;;                  1    wreg      void 
  8347 ;; Registers used:
  8348 ;;		wreg, status,2, status,0, pclath, cstack
  8349 ;; Tracked objects:
  8350 ;;		On entry : 0/0
  8351 ;;		On exit  : 0/0
  8352 ;;		Unchanged: 0/0
  8353 ;; Data sizes:     COMMON   BANK0   BANK1   BANK3   BANK2
  8354 ;;      Params:         0       0       0       0       0
  8355 ;;      Locals:         1       0       0       0       0
  8356 ;;      Temps:          2       0       0       0       0
  8357 ;;      Totals:         3       0       0       0       0
  8358 ;;Total ram usage:        3 bytes
  8359 ;; Hardware stack levels used:    1
  8360 ;; Hardware stack levels required when called:    1
  8361 ;; This function calls:
  8362 ;;		_Lcd_Port
  8363 ;; This function is called by:
  8364 ;;		_Lcd_Clear
  8365 ;;		_Lcd_Set_Cursor
  8366 ;;		_Lcd_Init
  8367 ;;		_Lcd_Shift_Right
  8368 ;;		_Lcd_Shift_Left
  8369 ;; This function uses a non-reentrant model
  8370 ;;
  8371                           
  8372                           
  8373                           ;psect for function _Lcd_Cmd
  8374  000A                     _Lcd_Cmd:
  8375                           
  8376                           ;incstack = 0
  8377                           ; Regs used in _Lcd_Cmd: [wreg+status,2+status,0+pclath+cstack]
  8378                           ;Lcd_Cmd@a stored from wreg
  8379  000A  00F3               	movwf	Lcd_Cmd@a
  8380  000B                     l2193:
  8381                           
  8382                           ;LCD.c: 16:     PORTEbits.RE0 = 0;
  8383  000B  1283               	bcf	3,5	;RP0=0, select bank0
  8384  000C  1303               	bcf	3,6	;RP1=0, select bank0
  8385  000D  1009               	bcf	9,0	;volatile
  8386  000E                     l2195:
  8387                           
  8388                           ;LCD.c: 17:     Lcd_Port(a);
  8389  000E  0873               	movf	Lcd_Cmd@a,w
  8390  000F  160A  118A  2380  120A  118A  	fcall	_Lcd_Port
  8391  0014                     l2197:
  8392                           
  8393                           ;LCD.c: 18:     PORTEbits.RE1 = 1;
  8394  0014  1283               	bcf	3,5	;RP0=0, select bank0
  8395  0015  1303               	bcf	3,6	;RP1=0, select bank0
  8396  0016  1489               	bsf	9,1	;volatile
  8397  0017                     l2199:
  8398                           
  8399                           ;LCD.c: 19:     _delay((unsigned long)((4)*(4000000/4000.0)));
  8400  0017  3006               	movlw	6
  8401  0018  00F2               	movwf	??_Lcd_Cmd+1
  8402  0019  3030               	movlw	48
  8403  001A  00F1               	movwf	??_Lcd_Cmd
  8404  001B                     u4127:
  8405  001B  0BF1               	decfsz	??_Lcd_Cmd,f
  8406  001C  281B               	goto	u4127
  8407  001D  0BF2               	decfsz	??_Lcd_Cmd+1,f
  8408  001E  281B               	goto	u4127
  8409  001F  0000               	nop
  8410  0020                     l2201:
  8411                           
  8412                           ;LCD.c: 20:     PORTEbits.RE1 = 0;
  8413  0020  1283               	bcf	3,5	;RP0=0, select bank0
  8414  0021  1303               	bcf	3,6	;RP1=0, select bank0
  8415  0022  1089               	bcf	9,1	;volatile
  8416  0023                     l115:
  8417  0023  0008               	return
  8418  0024                     __end_of_Lcd_Cmd:
  8419                           
  8420                           	psect	text29
  8421  1380                     __ptext29:	
  8422 ;; *************** function _Lcd_Port *****************
  8423 ;; Defined at:
  8424 ;;		line 11 in file "LCD.c"
  8425 ;; Parameters:    Size  Location     Type
  8426 ;;  a               1    wreg     unsigned char 
  8427 ;; Auto vars:     Size  Location     Type
  8428 ;;  a               1    0[COMMON] unsigned char 
  8429 ;; Return value:  Size  Location     Type
  8430 ;;                  1    wreg      void 
  8431 ;; Registers used:
  8432 ;;		wreg
  8433 ;; Tracked objects:
  8434 ;;		On entry : 0/0
  8435 ;;		On exit  : 0/0
  8436 ;;		Unchanged: 0/0
  8437 ;; Data sizes:     COMMON   BANK0   BANK1   BANK3   BANK2
  8438 ;;      Params:         0       0       0       0       0
  8439 ;;      Locals:         1       0       0       0       0
  8440 ;;      Temps:          0       0       0       0       0
  8441 ;;      Totals:         1       0       0       0       0
  8442 ;;Total ram usage:        1 bytes
  8443 ;; Hardware stack levels used:    1
  8444 ;; This function calls:
  8445 ;;		Nothing
  8446 ;; This function is called by:
  8447 ;;		_Lcd_Cmd
  8448 ;;		_Lcd_Init
  8449 ;;		_Lcd_Write_Char
  8450 ;; This function uses a non-reentrant model
  8451 ;;
  8452                           
  8453                           
  8454                           ;psect for function _Lcd_Port
  8455  1380                     _Lcd_Port:
  8456                           
  8457                           ;incstack = 0
  8458                           ; Regs used in _Lcd_Port: [wreg]
  8459                           ;Lcd_Port@a stored from wreg
  8460  1380  00F0               	movwf	Lcd_Port@a
  8461  1381                     l1977:
  8462                           
  8463                           ;LCD.c: 12:     PORTD = a;
  8464  1381  0870               	movf	Lcd_Port@a,w
  8465  1382  1283               	bcf	3,5	;RP0=0, select bank0
  8466  1383  1303               	bcf	3,6	;RP1=0, select bank0
  8467  1384  0088               	movwf	8	;volatile
  8468  1385                     l112:
  8469  1385  0008               	return
  8470  1386                     __end_of_Lcd_Port:
  8471  007E                     btemp	set	126	;btemp
  8472  007E                     wtemp0	set	126
  8473                           
  8474                           	psect	config
  8475                           
  8476                           ;Config register CONFIG1 @ 0x2007
  8477                           ;	Oscillator Selection bits
  8478                           ;	FOSC = INTRC_NOCLKOUT, INTOSCIO oscillator: I/O function on RA6/OSC2/CLKOUT pin, I/O f
      +                          unction on RA7/OSC1/CLKIN
  8479                           ;	Watchdog Timer Enable bit
  8480                           ;	WDTE = OFF, WDT disabled and can be enabled by SWDTEN bit of the WDTCON register
  8481                           ;	Power-up Timer Enable bit
  8482                           ;	PWRTE = OFF, PWRT disabled
  8483                           ;	RE3/MCLR pin function select bit
  8484                           ;	MCLRE = OFF, RE3/MCLR pin function is digital input, MCLR internally tied to VDD
  8485                           ;	Code Protection bit
  8486                           ;	CP = OFF, Program memory code protection is disabled
  8487                           ;	Data Code Protection bit
  8488                           ;	CPD = OFF, Data memory code protection is disabled
  8489                           ;	Brown Out Reset Selection bits
  8490                           ;	BOREN = OFF, BOR disabled
  8491                           ;	Internal External Switchover bit
  8492                           ;	IESO = OFF, Internal/External Switchover mode is disabled
  8493                           ;	Fail-Safe Clock Monitor Enabled bit
  8494                           ;	FCMEN = OFF, Fail-Safe Clock Monitor is disabled
  8495                           ;	Low Voltage Programming Enable bit
  8496                           ;	LVP = OFF, RB3 pin has digital I/O, HV on MCLR must be used for programming
  8497                           ;	In-Circuit Debugger Mode bit
  8498                           ;	DEBUG = 0x1, unprogrammed default
  8499  2007                     	org	8199
  8500  2007  20D4               	dw	8404
  8501                           
  8502                           ;Config register CONFIG2 @ 0x2008
  8503                           ;	Brown-out Reset Selection bit
  8504                           ;	BOR4V = BOR40V, Brown-out Reset set to 4.0V
  8505                           ;	Flash Program Memory Self Write Enable bits
  8506                           ;	WRT = OFF, Write protection off
  8507  2008                     	org	8200
  8508  2008  3FFF               	dw	16383

Data Sizes:
    Strings     25
    Constant    0
    Data        0
    BSS         19
    Persistent  0
    Stack       0

Auto Spaces:
    Space          Size  Autos    Used
    COMMON           14     14      14
    BANK0            80     78      78
    BANK1            80     23      42
    BANK3            96      0       0
    BANK2            96      0       0

Pointer List with Targets:

    UARTSendString@str	PTR const unsigned char  size(2) Largest target is 512
		 -> NULL(NULL[0]), STR_8(CODE[3]), string_temperature(BANK1[5]), STR_6(CODE[3]), 
		 -> RAM(DATA[512]), STR_5(CODE[3]), string_voltageADC(BANK1[5]), 

    convert@data	PTR unsigned char  size(1) Largest target is 5
		 -> string_temperature(BANK1[5]), string_voltageADC(BANK1[5]), 

    Lcd_Write_String@a	PTR unsigned char  size(2) Largest target is 512
		 -> NULL(NULL[0]), STR_7(CODE[2]), string_temperature(BANK1[5]), RAM(DATA[512]), 
		 -> STR_4(CODE[2]), string_voltageADC(BANK1[5]), STR_3(CODE[4]), STR_2(CODE[4]), 
		 -> STR_1(CODE[4]), 

    string_cont8bits	PTR unsigned char  size(2) Largest target is 512
		 -> NULL(NULL[0]), RAM(DATA[512]), 


Critical Paths under _main in COMMON

    _int2String->___awdiv
    _convert->___wmul
    ___xxtofl->___wmul
    ___wmul->___fltol
    ___flsub->___wmul
    _UARTSendString->_UARTSendChar
    _UARTInit->___lldiv
    _Lcd_Write_String->_Lcd_Write_Char
    _Lcd_Write_Char->_Lcd_Port
    _Lcd_Set_Cursor->_Lcd_Cmd
    _Lcd_Init->_Lcd_Cmd
    _Lcd_Clear->_Lcd_Cmd
    _Lcd_Cmd->_Lcd_Port

Critical Paths under _main in BANK0

    _main->_convert
    _convert->___flmul
    ___xxtofl->___wmul
    ___flsub->___xxtofl
    ___flmul->___fldiv
    ___fldiv->___xxtofl

Critical Paths under _main in BANK1

    _main->_convert

Critical Paths under _main in BANK3

    None.

Critical Paths under _main in BANK2

    None.

Call Graph Tables:

 ---------------------------------------------------------------------------------
 (Depth) Function   	        Calls       Base Space   Used Autos Params    Refs
 ---------------------------------------------------------------------------------
 (0) _main                                                 8     8      0   22614
                                             15 BANK1      8     8      0
                          _Lcd_Clear
                           _Lcd_Init
                     _Lcd_Set_Cursor
                   _Lcd_Write_String
                           _UARTInit
                       _UARTSendChar
                     _UARTSendString
                            ___fldiv
                            ___flmul
                           ___xxtofl
                            _convert
                         _int2String
                            _spiInit
                            _spiRead
                           _spiWrite
 ---------------------------------------------------------------------------------
 (1) _spiWrite                                             1     1      0      22
                                              0 COMMON     1     1      0
 ---------------------------------------------------------------------------------
 (1) _spiRead                                              0     0      0       0
                     _spiReceiveWait
 ---------------------------------------------------------------------------------
 (2) _spiReceiveWait                                       0     0      0       0
 ---------------------------------------------------------------------------------
 (1) _spiInit                                              4     1      3     360
                                              0 COMMON     4     1      3
 ---------------------------------------------------------------------------------
 (1) _int2String                                           9     9      0    1579
                                              9 COMMON     3     3      0
                                              0 BANK0      6     6      0
                            ___awdiv
                            ___awmod
                             ___bmul
 ---------------------------------------------------------------------------------
 (2) ___bmul                                               4     3      1     168
                                              0 COMMON     4     3      1
 ---------------------------------------------------------------------------------
 (2) ___awmod                                              7     3      4     448
                                              0 COMMON     7     3      4
 ---------------------------------------------------------------------------------
 (1) _convert                                             23    17      6   11989
                                             70 BANK0      8     2      6
                                              0 BANK1     15    15      0
                            ___awdiv
                            ___fldiv
                             ___flge
                            ___flmul
                            ___flsub
                            ___fltol
                             ___wmul
                           ___xxtofl
 ---------------------------------------------------------------------------------
 (2) ___xxtofl                                            14    10      4     930
                                              4 BANK0     14    10      4
                            ___fltol (ARG)
                             ___wmul (ARG)
 ---------------------------------------------------------------------------------
 (2) ___wmul                                               6     2      4     852
                                             11 COMMON     2     2      0
                                              0 BANK0      4     0      4
                            ___fltol (ARG)
 ---------------------------------------------------------------------------------
 (2) ___fltol                                             11     7      4     761
                                              0 COMMON    11     7      4
 ---------------------------------------------------------------------------------
 (2) ___flsub                                              8     0      8    2637
                                             18 BANK0      8     0      8
                            ___fladd
                            ___fltol (ARG)
                             ___wmul (ARG)
                           ___xxtofl (ARG)
 ---------------------------------------------------------------------------------
 (3) ___fladd                                             20    12      8    2136
                                              0 COMMON    12     4      8
                                              0 BANK0      8     8      0
 ---------------------------------------------------------------------------------
 (2) ___flmul                                             26    18      8    2721
                                             44 BANK0     26    18      8
                          __Umul8_16
                            ___fldiv (ARG)
                            ___flsub (ARG)
                            ___fltol (ARG)
                           ___xxtofl (ARG)
 ---------------------------------------------------------------------------------
 (3) __Umul8_16                                            9     7      2     799
                                              0 COMMON     9     7      2
 ---------------------------------------------------------------------------------
 (2) ___flge                                              12     4      8     334
                                              0 COMMON    12     4      8
 ---------------------------------------------------------------------------------
 (2) ___fldiv                                             26    18      8    1577
                                             18 BANK0     26    18      8
                           ___xxtofl (ARG)
 ---------------------------------------------------------------------------------
 (2) ___awdiv                                              9     5      4     756
                                              0 COMMON     9     5      4
 ---------------------------------------------------------------------------------
 (1) _UARTSendString                                       6     3      3    1069
                                              1 COMMON     6     3      3
                       _UARTSendChar
 ---------------------------------------------------------------------------------
 (2) _UARTSendChar                                         1     1      0      22
                                              0 COMMON     1     1      0
 ---------------------------------------------------------------------------------
 (1) _UARTInit                                             9     4      5     684
                                              0 BANK0      9     4      5
                            ___lldiv
 ---------------------------------------------------------------------------------
 (2) ___lldiv                                             14     6      8     466
                                              0 COMMON    14     6      8
 ---------------------------------------------------------------------------------
 (1) _Lcd_Write_String                                     4     2      2     742
                                              3 COMMON     4     2      2
                     _Lcd_Write_Char
 ---------------------------------------------------------------------------------
 (2) _Lcd_Write_Char                                       2     2      0      44
                                              1 COMMON     2     2      0
                           _Lcd_Port
 ---------------------------------------------------------------------------------
 (1) _Lcd_Set_Cursor                                       4     3      1     786
                                              4 COMMON     4     3      1
                            _Lcd_Cmd
 ---------------------------------------------------------------------------------
 (1) _Lcd_Init                                             2     2      0      66
                                              4 COMMON     2     2      0
                            _Lcd_Cmd
                           _Lcd_Port
 ---------------------------------------------------------------------------------
 (1) _Lcd_Clear                                            0     0      0      44
                            _Lcd_Cmd
 ---------------------------------------------------------------------------------
 (2) _Lcd_Cmd                                              3     3      0      44
                                              1 COMMON     3     3      0
                           _Lcd_Port
 ---------------------------------------------------------------------------------
 (3) _Lcd_Port                                             1     1      0      22
                                              0 COMMON     1     1      0
 ---------------------------------------------------------------------------------
 Estimated maximum stack depth 3
 ---------------------------------------------------------------------------------

 Call Graph Graphs:

 _main (ROOT)
   _Lcd_Clear
     _Lcd_Cmd
       _Lcd_Port
   _Lcd_Init
     _Lcd_Cmd
       _Lcd_Port
     _Lcd_Port
   _Lcd_Set_Cursor
     _Lcd_Cmd
       _Lcd_Port
   _Lcd_Write_String
     _Lcd_Write_Char
       _Lcd_Port
   _UARTInit
     ___lldiv
   _UARTSendChar
   _UARTSendString
     _UARTSendChar
   ___fldiv
     ___xxtofl (ARG)
       ___fltol (ARG)
       ___wmul (ARG)
         ___fltol (ARG)
   ___flmul
     __Umul8_16
     ___fldiv (ARG)
       ___xxtofl (ARG)
         ___fltol (ARG)
         ___wmul (ARG)
           ___fltol (ARG)
     ___flsub (ARG)
       ___fladd
       ___fltol (ARG)
       ___wmul (ARG)
         ___fltol (ARG)
       ___xxtofl (ARG)
         ___fltol (ARG)
         ___wmul (ARG)
           ___fltol (ARG)
     ___fltol (ARG)
     ___xxtofl (ARG)
       ___fltol (ARG)
       ___wmul (ARG)
         ___fltol (ARG)
   ___xxtofl
     ___fltol (ARG)
     ___wmul (ARG)
       ___fltol (ARG)
   _convert
     ___awdiv
     ___fldiv
       ___xxtofl (ARG)
         ___fltol (ARG)
         ___wmul (ARG)
           ___fltol (ARG)
     ___flge
     ___flmul
       __Umul8_16
       ___fldiv (ARG)
         ___xxtofl (ARG)
           ___fltol (ARG)
           ___wmul (ARG)
             ___fltol (ARG)
       ___flsub (ARG)
         ___fladd
         ___fltol (ARG)
         ___wmul (ARG)
           ___fltol (ARG)
         ___xxtofl (ARG)
           ___fltol (ARG)
           ___wmul (ARG)
             ___fltol (ARG)
       ___fltol (ARG)
       ___xxtofl (ARG)
         ___fltol (ARG)
         ___wmul (ARG)
           ___fltol (ARG)
     ___flsub
       ___fladd
       ___fltol (ARG)
       ___wmul (ARG)
         ___fltol (ARG)
       ___xxtofl (ARG)
         ___fltol (ARG)
         ___wmul (ARG)
           ___fltol (ARG)
     ___fltol
     ___wmul
       ___fltol (ARG)
     ___xxtofl
       ___fltol (ARG)
       ___wmul (ARG)
         ___fltol (ARG)
   _int2String
     ___awdiv
     ___awmod
     ___bmul
   _spiInit
   _spiRead
     _spiReceiveWait
   _spiWrite

 Address spaces:
Name               Size   Autos  Total    Cost      Usage
BITCOMMON            E      0       0       0        0.0%
EEDATA             100      0       0       0        0.0%
NULL                 0      0       0       0        0.0%
CODE                 0      0       0       0        0.0%
COMMON               E      E       E       1      100.0%
BITSFR0              0      0       0       1        0.0%
SFR0                 0      0       0       1        0.0%
BITSFR1              0      0       0       2        0.0%
SFR1                 0      0       0       2        0.0%
STACK                0      0       0       2        0.0%
ABS                  0      0      86       3        0.0%
BITBANK0            50      0       0       4        0.0%
BITSFR3              0      0       0       4        0.0%
SFR3                 0      0       0       4        0.0%
BANK0               50     4E      4E       5       97.5%
BITSFR2              0      0       0       5        0.0%
SFR2                 0      0       0       5        0.0%
BITBANK1            50      0       0       6        0.0%
BANK1               50     17      2A       7       52.5%
BITBANK3            60      0       0       8        0.0%
BANK3               60      0       0       9        0.0%
BITBANK2            60      0       0      10        0.0%
BANK2               60      0       0      11        0.0%
DATA                 0      0      86      12        0.0%


Microchip Technology PIC Macro Assembler V2.31 build 20201012212115 
Symbol Table                                                                                   Sat Feb 20 19:52:39 2021

        UARTInit@baud_rate 0020               ___fldiv@aexp 004B               ___fldiv@bexp 004A  
                        pc 0002               ___fldiv@sign 0043             ___bmul@product 0072  
              _SSPSTATbits 0094                         l92 0009                         l69 15D4  
                       l85 081C                         l86 0821                         l95 138B  
                       l89 0003               ___awdiv@sign 0076                         fsr 0004  
      ___wmul@multiplicand 0022        __Umul8_16@word_mpld 0076                        l103 139C  
                      l112 1385                        l201 14D8                        l130 13BE  
                      l115 0023                        l124 13F7                        l118 13A9  
                      l127 151D                        l136 1499                        l305 1451  
                      l307 1469                        l331 13D3                        l341 163A  
                      l501 009D                        l190 0801                        l168 07F2  
                      l193 080B                        l602 0B7A                        l187 0890  
                      l611 0D05                        l700 036A                        l604 0B4F  
                      l623 0C71                        l471 1576                        l640 0CF7  
                      l632 0CD3                        l713 1430                        l641 0D05  
                      l458 16A1                        l482 172A                        l706 03F2  
                      l483 1743                        l715 1442                        l619 0C4B  
                      l491 009D                        l644 141B                        l740 17FF  
                      l629 0C93                        l670 09DF                        l654 08ED  
                      l479 16BE                        l751 17C9                        l656 0A6D  
                      l752 17D5                        l744 17AD                        l498 0088  
                      l738 1768                        l676 0A51                        l678 0A61  
                      l694 03FE                        l598 0AD1                int2String@x 0024  
                      fsr0 0004                        indf 0000               ___awmod@sign 0076  
             ___flmul@aexp 005E               ___flmul@bexp 005F               ___flmul@sign 0059  
             ___flmul@temp 0064               ___flmul@prod 0060               ___fltol@exp1 007A  
                     l2001 0AA2                       l2011 0AB4                       l2003 0AA8  
                     l2101 0BCD                       l2013 0AB9                       l2021 0AC9  
                     l2005 0AA9                       l2103 0BE3                       l2111 0C3D  
                     l2031 0AE7                       l2023 0AD7                       l2015 0ABE  
                     l2007 0AAF                       l2201 0020                       l2121 0C6C  
                     l2113 0C53                       l2105 0C23                       l2041 0AFB  
                     l2033 0AEB                       l2025 0ADB                       l2017 0AC6  
                     l2009 0AB3                       l3001 0DB4                       l2211 13BB  
                     l2203 13AB                       l2131 0C7F                       l2123 0C70  
                     l2115 0C58                       l2107 0C29                       l2051 0B0F  
                     l2043 0AFF                       l2035 0AEF                       l2027 0ADF  
                     l2019 0AC7                       l3011 0DD2                       l3003 0DBE  
                     l2205 13AE                       l2301 1693                       l2141 0C90  
                     l2125 0C75                       l2133 0C81                       l2109 0C2E  
                     l2061 0B33                       l2053 0B13                       l2045 0B03  
                     l2037 0AF3                       l2029 0AE3                       l2221 145F  
                     l2213 1443                       l3021 0E75                       l3013 0DD8  
                     l3005 0DC6                       l2207 13B4                       l2303 1698  
                     l2151 0CAF                       l2127 0C78                       l2119 0C61  
                     l2135 0C85                       l2071 0B65                       l2063 0B53  
                     l2055 0B17                       l2047 0B07                       l2039 0AF7  
                     l2223 1465                       l2215 1445                       l2311 151F  
                     l2231 13C5                       l3031 0EA8                       l3023 0E7E  
                     l3015 0DE2                       l3007 0DC9                       l2209 13B7  
                     l2241 15D5                       l2305 169D                       l2161 0CEA  
                     l2153 0CCF                       l2145 0C98                       l2137 0C86  
                     l2129 0C7A                       l2073 0B70                       l2065 0B5E  
                     l2049 0B0B                       l2057 0B1B                       l2401 0092  
                     l2217 144B                       l2321 1533                       l2313 1523  
                     l2233 13C9                       l3041 0ECF                       l3033 0EAE  
                     l3025 0E8A                       l3017 0E4D                       l3009 0DCA  
                     l2251 1602                       l2243 15E5                       l2411 0898  
                     l2171 0D04                       l2163 0CEB                       l2155 0CD8  
                     l2147 0C9D                       l2139 0C8A                       l2091 0BB6  
                     l2083 0B8C                       l2067 0B60                       l2075 0B74  
                     l2059 0B1C                       l2403 13F8                       l2219 1458  
                     l2331 154B                       l2323 1539                       l2315 1528  
                     l2235 13CB                       l2227 13C0                       l3051 0F09  
                     l3043 0ED5                       l3035 0EB4                       l3027 0E93  
                     l3019 0E6D                       l2253 1614                       l2245 15E8  
                     l2261 1632                       l2501 09AF                       l2421 08AD  
                     l2413 089E                       l2181 1439                       l2173 141D  
                     l2165 0CEF                       l2157 0CDD                       l2149 0CAB  
                     l2093 0BB8                       l2085 0BA3                       l2077 0B7E  
                     l2069 0B64                       l2405 13FC                       l2341 156D  
                     l2333 1555                       l2325 153C                       l2317 152A  
                     l2309 151E                       l2237 13D2                       l2229 13C1  
                     l3061 0F30                       l3053 0F0F                       l3045 0EE5  
                     l3037 0EC3                       l3029 0E99                       l2255 1622  
                     l2247 15F5                       l2271 1645                       l2511 09C4  
                     l2503 09B0                       l2431 08C5                       l2423 08B5  
                     l2415 08A2                       l2351 16D2                       l2183 143E  
                     l2175 141F                       l2167 0CF1                       l2159 0CE5  
                     l2095 0BBC                       l2087 0BA7                       l2079 0B83  
                     l2343 1572                       l2335 155B                       l2327 1543  
                     l2319 152E                       l2191 0003                       l3071 0FAC  
                     l3063 0F6B                       l3055 0F15                       l3047 0EEF  
                     l3039 0EC9                       l2193 000B                       l2257 1623  
                     l2249 15F9                       l2281 1656                       l2273 1647  
                     l2265 163B                       l2521 09E9                       l2513 09C8  
                     l2505 09B9                       l2441 08DA                       l2433 08CB  
                     l2425 08B6                       l2417 08A3                       l2409 0891  
                     l2361 1740                       l2353 16DA                       l2177 1426  
                     l2601 0145                       l2169 0D00                       l2097 0BBD  
                     l2089 0BAB                       l2337 1562                       l2329 1547  
                     l3081 0FDB                       l3073 0FB5                       l3065 0F8B  
                     l3057 0F24                       l3049 0EFA                       l2195 000E  
                     l2259 162C                       l2187 0801                       l2291 166E  
                     l2283 165C                       l2275 164B                       l2267 163C  
                     l2531 0A27                       l2523 09F7                       l2515 09DC  
                     l2507 09BF                       l2451 0901                       l2443 08E2  
                     l2435 08CF                       l2419 08A8                       l2427 08B8  
                     l2363 1742                       l2355 16DE                       l2347 16A2  
                     l2179 142A                       l2611 01CE                       l2603 0161  
                     l2099 0BC8                       l2339 1568                       l3083 0FEA  
                     l3075 0FC0                       l3067 0F97                       l3059 0F2A  
                     l2197 0014                       l2189 0807                       l2293 167F  
                     l2285 165F                       l2277 1650                       l2269 1640  
                     l2541 0A57                       l2533 0A35                       l2525 09FB  
                     l2509 09C3                       l2453 0905                       l2445 08E3  
                     l2437 08D0                       l2429 08C0                       l2357 1702  
                     l2349 16B6                       l2621 0241                       l2613 01DE  
                     l2605 018D                       l2381 0058                       l2373 0038  
                     l3085 0FF0                       l3077 0FCF                       l3069 0FA0  
                     l2199 0017                       l2295 1685                       l2287 1666  
                     l2279 1654                       l2543 0A5B                       l2535 0A44  
                     l2527 0A14                       l2519 09E4                       l2471 0946  
                     l2463 091C                       l2439 08D5                       l2447 08E5  
                     l2359 1706                       l2631 02EE                       l2623 025E  
                     l2615 01FB                       l2607 01A9                       l2551 009E  
                     l2383 005C                       l2391 0076                       l2375 004D  
                     l2367 0024                       l2711 1796                       l2703 1779  
                     l3087 0FF6                       l3079 0FD5                       l2801 146D  
                     l2297 1686                       l2289 166A                       l2545 0A5D  
                     l2537 0A48                       l2529 0A1A                       l2481 0964  
                     l2473 0948                       l2465 092E                       l2449 08F5  
                     l2457 090E                       l2641 033A                       l2633 0316  
                     l2625 028B                       l2617 020B                       l2609 01C5  
                     l2561 00B5                       l2553 00A5                       l2377 004E  
                     l2369 002F                       l2721 17CD                       l2713 17A4  
                     l2705 177E                       l2803 147F                       l2299 168D  
                     l2539 0A50                       l2475 094D                       l2483 096D  
                     l2491 0992                       l2467 0936                       l2459 0913  
                     l2651 034F                       l2643 033B                       l2635 031F  
                     l2627 029B                       l2619 0228                       l2571 00D1  
                     l2563 00BA                       l2555 00AB                       l2379 0056  
                     l2731 17F7                       l2723 17D7                       l2715 17B4  
                     l2707 178B                       l2811 1399                       l2805 1485  
                     l2741 0856                       l2493 0998                       l2485 097F  
                     l2477 095F                       l2469 093E                       l2661 0374  
                     l2653 0353                       l2645 0344                       l2637 032D  
                     l2629 02C8                       l2581 00E6                       l2573 00D7  
                     l2565 00C2                       l2557 00AF                       l2397 007D  
                     l2389 0064                       l2725 17ED                       l2717 17BF  
                     l2709 1792                       l2901 06F8                       l2821 0419  
                     l2751 0885                       l2743 0881                       l2735 0822  
                     l2495 09A0                       l2487 0980                       l2479 0963  
                     l2671 03B2                       l2663 0382                       l2655 0367  
                     l2639 0336                       l2647 034A                       l2591 0102  
                     l2583 00EE                       l2575 00DB                       l2567 00C4  
                     l2559 00B0                       l2399 008D                       l2727 17F2  
                     l2719 17C3                       l2911 07D8                       l2903 070E  
                     l2831 045B                       l2823 041B                       l2815 0402  
                     l2807 1387                       l2761 088C                       l2753 0888  
                     l2745 0882                       l2737 0829                       l2921 14B1  
                     l2497 09A2                       l2489 098E                       l2681 03E6  
                     l2673 03BD                       l2665 0386                       l2649 034E  
                     l2585 00F0                       l2577 00DC                       l2569 00CC  
                     l2729 17F6                       l2905 07AA                       l2913 07DC  
                     l2841 0491                       l2833 0466                       l2825 041F  
                     l2817 0417                       l2809 1394                       l2763 088F  
                     l2755 0889                       l2747 0883                       l2739 0854  
                     l2923 14B7                       l2499 09AB                       l2683 03EA  
                     l2675 03CC                       l2667 039F                       l2659 036F  
                     l2595 010B                       l2587 00F8                       l2579 00E1  
                     l2691 1747                       l2915 07E2                       l2907 07CA  
                     l2851 04C8                       l2843 0497                       l2835 046F  
                     l2827 041F                       l2819 0417                       l2931 1595  
                     l2771 0818                       l2781 14F6                       l2757 088A  
                     l2749 0884                       l2925 14C4                       l2917 149A  
                     l2685 03EB                       l2677 03D6                       l2669 03A5  
                     l2597 011B                       l2589 00FD                       l1981 0A75  
                     l2693 174C                       l2909 07D2                       l2861 05A8  
                     l2853 04DE                       l2845 049C                       l2837 0482  
                     l2829 043A                       l2933 15A4                       l2773 081B  
                     l2765 080D                       l2783 14FC                       l2775 14D9  
                     l2791 13DF                       l2759 088B                       l2919 149F  
                     l2687 03F6                       l2679 03D8                       l2599 0128  
                     l1991 0A8A                       l1983 0A7B                       l2695 1750  
                     l2871 05CA                       l2855 057A                       l2847 04A1  
                     l2863 05AC                       l2839 0488                       l2935 15BB  
                     l2927 157A                       l2767 0814                       l2951 0D1F  
                     l2943 0D06                       l1977 1381                       l2785 139D  
                     l2777 14DF                       l2793 13E6                       l1993 0A92  
                     l1985 0A7F                       l2697 1760                       l2881 068B  
                     l2873 05CF                       l2865 05B2                       l2857 059A  
                     l2849 04C2                       l2937 15D2                       l2929 1590  
                     l2769 0816                       l2961 0D26                       l2953 0D20  
                     l2945 0D0A                       l2779 14E8                       l2795 13EC  
                     l2787 13D5                       l1995 0A93                       l1987 0A80  
                     l1979 0A6E                       l2699 1770                       l2891 06C1  
                     l2883 06A1                       l2875 05F0                       l2867 05C2  
                     l2859 05A2                       l2939 15D3                       l2971 0D4B  
                     l2963 0D27                       l2955 0D21                       l2947 0D1B  
                     l2797 13F1                       l2789 13DA                       l1989 0A85  
                     l1997 0A95                       l2893 06C7                       l2885 06AE  
                     l2877 05F6                       l2869 05CA                       l2981 0D7E  
                     l2973 0D54                       l2965 0D39                       l2957 0D22  
                     l2949 0D1E                       l2799 146A                       l1999 0A9D  
                     l2895 06CC                       l2887 06AE                       l2879 060E  
                     l2991 0D9A                       l2983 0D81                       l2975 0D60  
                     l2967 0D3E                       l2959 0D25                       l2897 06D1  
                     l2889 06B4                       l2993 0DA2                       l2985 0D82  
                     l2977 0D69                       l2969 0D43                       l2899 06F2  
                     l2995 0DA5                       l2987 0D8A                       l2979 0D75  
                     l2997 0DA6                       l2989 0D90                       l2999 0DAE  
                     STR_1 1010                       STR_2 1014                       STR_3 1018  
                     STR_4 1027                       STR_5 101C                       STR_6 101F  
                     STR_7 1025                       STR_8 1022                       u2100 0ABE  
                     u2101 0ABD                       u2110 0AD7                       u2111 0AD6  
                     u2200 0B7E                       u2120 0ADB                       u2040 0A7F  
                     u3000 007C                       u2201 0B7D                       u2121 0ADA  
                     u2041 0A7E                       u3001 007B                       u2210 0B83  
                     u2130 0B33                       u2050 0A85                       u2211 0B82  
                     u2131 0B32                       u2051 0A84                       u3100 08F5  
                     u2300 0C2E                       u2140 0B3C                       u2060 0A8A  
                     u3020 008D                       u3101 08F4                       u2301 0C2D  
                     u2221 0B95                       u2141 0B3A                       u2061 0A89  
                     u3021 008C                       u3110 0913                       u2310 0C53  
                     u2230 0BA7                       u2222 0B9C                       u2150 0B3D  
                     u2070 0AA8                       u3030 0092                       u3111 0912  
                     u2311 0C52                       u2231 0BA6                       u2223 0BA3  
                     u2135 0B2F                       u2071 0AA7                       u3031 0091  
                     u3015 007F                       u4000 14C4                       u3120 094D  
                     u3040 08A2                       u2400 0C97                       u2320 0C58  
                     u2240 0BAB                       u2160 0B53                       u2080 0AB3  
                     u4001 14C3                       u3121 094C                       u3041 08A1  
                     u2401 0C96                       u2321 0C57                       u2241 0BAA  
                     u2161 0B52                       u2081 0AB2                       u4010 14D8  
                     u3210 09AF                       u3050 08A8                       u2410 0C9D  
                     u2250 0BBC                       u2170 0B64                       u2090 0AB9  
                     u4011 14D7                       u3211 09AE                       u3051 08A7  
                     u2411 0C9C                       u2251 0BBB                       u2171 0B63  
                     u2091 0AB8                       u3300 0A27                       u3060 08AD  
                     u2500 142A                       u2420 0CAF                       u2340 0C70  
                     u4005 14C0                       u3301 0A26                       u3205 09A4  
                     u3061 08AC                       u2501 1429                       u2421 0CAE  
                     u2341 0C6F                       u3310 0A44                       u3230 09C3  
                     u3150 0963                       u3070 08CF                       u2430 0CC0  
                     u2350 0C75                       u2270 0BE3                       u2190 0B7A  
                     u3311 0A43                       u3231 09C2                       u3151 0962  
                     u3135 094F                       u3071 08CE                       u2351 0C74  
                     u2335 0C65                       u2271 0BE2                       u2191 0B79  
                     u3320 0A5B                       u3240 09C8                       u3080 08D5  
                     u2520 143E                       u3400 0102                       u2440 0CCF  
                     u2360 0C7F                       u2600 13D2                       u3321 0A5A  
                     u3305 0A23                       u3241 09C7                       u3225 09B2  
                     u3145 0958                       u3081 08D4                       u2521 143D  
                     u3401 0101                       u2441 0CCE                       u2361 0C7E  
                     u2281 0BFC                       u2273 0BDF                       u2265 0BC1  
                     u2185 0B69                       u2601 13D1                       u2610 15E5  
                     u2530 0807                       u3250 09DC                       u3170 097F  
                     u3090 08DA                       u3330 00AF                       u2450 0CD8  
                     u2370 0C85                       u2290 0C10                       u2282 0BFD  
                     u4107 14F2                       u2611 15E4                       u2531 0806  
                     u3315 0A40                       u3251 09DB                       u3171 097E  
                     u3091 08D9                       u2515 1431                       u3411 0153  
                     u3331 00AE                       u2451 0CD7                       u2435 0CBB  
                     u2371 0C84                       u2291 0C11                       u2283 0C02  
                     u4027 0D86                       u2700 165C                       u3260 09E3  
                     u3180 0998                       u3412 015A                       u3340 00B5  
                     u2460 0CDD                       u2380 0C8A                       u2292 0C16  
                     u2284 0C03                       u2540 0009                       u4117 1500  
                     u2701 165B                       u3261 09E2                       u3181 0997  
                     u3165 0966                       u3501 027D                       u3421 016F  
                     u3413 0161                       u3341 00B4                       u2461 0CDC  
                     u2381 0C89                       u2293 0C17                       u2285 0C08  
                     u2541 0008                       u4037 0D9E                       u2630 15F9  
                     u3270 09E9                       u3190 09A0                       u3502 0284  
                     u3422 0176                       u3350 00BA                       u2470 0CEA  
                     u2390 0C90                       u2286 0C09                       u2550 144B  
                     u4127 001B                       u2631 15F8                       u3271 09E8  
                     u3191 099F                       u3175 097B                       u3511 02AA  
                     u3503 028B                       u3431 019B                       u3423 017D  
                     u3351 00B9                       u2471 0CE9                       u2391 0C8F  
                     u2551 144A                       u4047 0DAA                       u2720 166E  
                     u3280 09FB                       u3600 034E                       u3520 02D4  
                     u3512 02B1                       u3432 01A2                       u3360 00DB  
                     u2480 0CEF                       u2800 1539                       u2625 15EA  
                     u2721 166D                       u3281 09FA                       u3601 034D  
                     u3513 02B8                       u3441 01B7                       u3433 01A9  
                     u3361 00DA                       u2481 0CEE                       u2801 1538  
                     u4057 0DC2                       u2650 1614                       u3290 0A0A  
                     u3610 0353                       u3442 01BE                       u3370 00E1  
                     u2490 0D04                       u2651 1613                       u2715 1660  
                     u3611 0352                       u3531 02E0                       u3443 01C5  
                     u3371 00E0                       u2491 0D03                       u4067 0DCE  
                     u2740 167F                       u3620 0367                       u3540 02FC  
                     u3532 02E7                       u3380 00E6                       u2580 1465  
                     u3700 174C                       u2820 154B                       u2645 15FB  
                     u2741 167E                       u2901 16ED                       u3621 0366  
                     u3533 02EE                       u3525 02CF                       u3461 01ED  
                     u3381 00E5                       u2581 1464                       u2565 1452  
                     u3701 174B                       u2821 154A                       u4077 0FBB  
                     u2670 1632                       u2910 1706                       u2902 16EE  
                     u3630 036E                       u3462 01F4                       u3390 00FD  
                     u3710 1750                       u2830 1555                       u2590 13C5  
                     u4087 13B9                       u2671 1631                       u2655 1610  
                     u2735 166F                       u3295 0A05                       u2911 1705  
                     u2903 16F3                       u3631 036D                       u3551 0308  
                     u3471 021A                       u3463 01FB                       u3455 01C7  
                     u3391 00FC                       u2575 1459                       u3711 174F  
                     u2831 1554                       u2815 153D                       u2591 13C4  
                     u2760 1693                       u2680 1640                       u2904 16F4  
                     u3640 0374                       u3552 030F                       u3472 0221  
                     u3800 17CD                       u3720 1770                       u4097 14E3  
                     u2665 1624                       u2761 1692                       u2745 167B  
                     u2681 163F                       u2921 1715                       u2905 16F9  
                     u3641 0373                       u3553 0316                       u3545 02F7  
                     u3473 0228                       u3801 17CC                       u3721 176F  
                     u2770 1698                       u2690 164B                       u2930 1740  
                     u2922 1716                       u2906 16FA                       u3650 0386  
                     u3810 17E2                       u2850 1568                       u2771 1697  
                     u2755 1687                       u2691 164A                       u2931 173F  
                     u2923 171B                       u3651 0385                       u3491 0250  
                     u2851 1567                       u2835 1551                       u3900 1499  
                     u2924 171C                       u3660 0395                       u3580 033A  
                     u3492 0257                       u2940 002F                       u3820 17F2  
                     u3740 1791                       u2860 156D                       u2780 1523  
                     u3901 1498                       u2925 1721                       u3581 0339  
                     u3565 0318                       u3493 025E                       u3485 022A  
                     u2941 002E                       u3821 17F1                       u3741 1790  
                     u2861 156C                       u2845 155C                       u2781 1522  
                     u2926 1722                       u2870 16B6                       u3670 03B2  
                     u2950 0046                       u3830 17F6                       u3910 043A  
                     u2790 152E                       u2935 173C                       u2871 16B5  
                     u3671 03B1                       u3575 032F                       u3831 17F5  
                     u3815 17DD                       u3735 1783                       u3911 0439  
                     u2791 152D                       u3840 0829                       u2880 16D2  
                     u3680 03CC                       u2960 005C                       u3760 17B3  
                     u3920 0490                       u3841 0828                       u2881 16D1  
                     u3681 03CB                       u3665 0390                       u2961 005B  
                     u3761 17B2                       u3921 048F                       u3850 0837  
                     u2890 16DE                       u3690 03EA                       u2970 0063  
                     u3930 0497                       u2891 16DD                       u3691 03E9  
                     u3675 03AE                       u3595 033D                       u2971 0062  
                     u2955 0041                       u3755 17A5                       u3931 0496  
                     u3860 0864                       u3780 17C3                       u3940 04DE  
                     u3685 03C8                       u3781 17C2                       u3941 04DD  
                     u2990 0075                       u3790 17C9                       u3950 05B2  
                     u3870 0814                       u3855 0832                       u2991 0074  
                     u3791 17C8                       u3775 17B8                       u3951 05B1  
                     u3871 0813                       u3880 13DA                       u3960 060E  
                     u3881 13D9                       u3865 085F                       u2985 0065  
                     u3961 060D                       u3945 04DA                       u3890 13EC  
                     u3970 06C7                       u3891 13EB                       u3971 06C6  
                     u3980 070E                       u3981 070D                       u3965 060A  
                     u3990 07E2                       u3991 07E1                       u3985 070A  
        ?_Lcd_Write_String 0073                       _main 0D06                       btemp 007E  
                     start 0000         ??_Lcd_Write_String 0075            ___fldiv@new_exp 0044  
          __end_of_Lcd_Cmd 0024          ___bmul@multiplier 0073              ___fltol@sign1 0079  
          __end_of___fladd 0D06                      ?_main 0070            __end_of___fldiv 0A6E  
          __end_of___awdiv 16A2            __end_of___awmod 1577            __end_of___flmul 03FF  
          __end_of___flsub 141C            __end_of___fltol 009E                      _ANSEL 0188  
          __end_of___lldiv 163B            ___awdiv@divisor 0070            ___awdiv@counter 0075  
                    _RCREG 001A                      _SPBRG 0099                      _PORTD 0008  
                    _PORTE 0009    __size_of_Lcd_Set_Cursor 0024                      _TRISB 0086  
                    _TRISD 0088                      _TRISE 0089                      _TXREG 0019  
              convert@data 00A4           __end_of_UARTInit 0891                convert@temp 00A0  
          __end_of_convert 07F3                      pclath 000A            __end_of_spiInit 0822  
          __end_of_spiRead 139D                      status 0003                      wtemp0 007E  
         __end_of_Lcd_Init 151E           __end_of_Lcd_Port 1386            __initialization 07F3  
             __end_of_main 1000                     ??_main 00AF         __size_of_Lcd_Clear 000D  
         ___awdiv@dividend 0072                     _ANSELH 0189                  ??_Lcd_Cmd 0071  
  __size_of_Lcd_Write_Char 0015                     _TRISC3 043B                     _TRISC5 043D  
                   _SSPCON 0014                     _SSPBUF 0013           __end_of___xxtofl 1800  
                   ___flge 16A2                     ___bmul 13BF               convert@place 006A  
                ??___fladd 0020                     ___wmul 1443                  ??___fldiv 003A  
                ??___awdiv 0074                  ??___awmod 0074                  ??___flmul 0054  
                ??___flsub 007D                  ??___fltol 0074                  ??___lldiv 0078  
  __size_of_UARTSendString 003F           ___awdiv@quotient 0077            ___awmod@divisor 0070  
          ___awmod@counter 0075                  ??_convert 006C         __size_of__Umul8_16 0027  
         __end_of_spiWrite 138C                  ??_spiInit 0073                  ??_spiRead 0070  
          Lcd_Set_Cursor@a 0076            Lcd_Set_Cursor@b 0074                 ___flge@ff1 0070  
               ___flge@ff2 0074               ___xxtofl@arg 002E               ___xxtofl@exp 002D  
             ___xxtofl@val 0024    __end_of__initialization 07FC          __end_of_Lcd_Clear 13AA  
               ___fltol@f1 0070        ___bmul@multiplicand 0070             __pcstackCOMMON 0070  
                ?_UARTInit 0020             _Lcd_Set_Cursor 13D4   UARTSendString@max_length 0073  
                ?_Lcd_Init 0070                  ?_Lcd_Port 0070                 __pbssBANK1 00B7  
         _string_cont8bits 00BB          __end_of__Umul8_16 1443                 __pmaintext 0D06  
                  ?___flge 0070                    ?___bmul 0070                    ?___wmul 0020  
               ??_UARTInit 0025    __size_of_spiReceiveWait 0007  __size_of_Lcd_Write_String 0030  
   __end_of_Lcd_Set_Cursor 13F8                  ?___xxtofl 0024                 _int2String 1577  
               ??_Lcd_Init 0074                 ??_Lcd_Port 0070                    _SSPSTAT 0094  
               __stringtab 1000            int2String@value 0025              ?_UARTSendChar 0070  
           _Lcd_Write_Char 13AA                    _Lcd_Cmd 000A              convert@digits 00AB  
                ?_spiWrite 0070            __size_of___flge 00A2            __size_of___bmul 0015  
                  ___fladd 0A6E                    ___fldiv 0891                    ___awdiv 163B  
                  ___awmod 151E                    ___flmul 009E                    ___flsub 13F8  
                  ___fltol 0024                    ___lldiv 15D5            __size_of___wmul 0027  
           _UARTSendString 149A            ?_Lcd_Set_Cursor 0074                    __ptext1 1386  
                  __ptext2 1394                    __ptext3 0003                    __ptext4 080C  
                  __ptext5 1577                    __ptext6 13BF                    __ptext7 151E  
                  __ptext8 03FF                    __ptext9 1744                    _convert 03FF  
               ??___xxtofl 0028           ___awmod@dividend 0072                    _spiInit 080C  
                  _spiRead 1394                    clrloop0 138D     __end_of_Lcd_Write_Char 13BF  
     end_of_initialization 07FC             ??_UARTSendChar 0070            ___lldiv@divisor 0070  
          ___lldiv@counter 007D                  _RCSTAbits 0018     __end_of_UARTSendString 14D9  
               ??_spiWrite 0070                  Lcd_Port@a 0070                  _PORTCbits 0007  
                _PORTEbits 0009                ___fladd@grs 007B                ?_int2String 0070  
            ___xxtofl@sign 002C                  _TRISCbits 0087                ___fldiv@grs 0046  
              ___fldiv@rem 003F                spiWrite@dat 0070            ?_Lcd_Write_Char 0070  
        Lcd_Write_String@a 0073          Lcd_Write_String@i 0075                ___flmul@grs 005A  
                _TXSTAbits 0098                 _voltageADC 00BF                  _Lcd_Clear 139D  
          ?_UARTSendString 0071         _string_temperature 00C0             _spiReceiveWait 0003  
           __end_of___flge 1744             __end_of___bmul 13D4             __end_of___wmul 146A  
         _Lcd_Write_String 146A          __size_of_UARTInit 006F        start_initialization 07F3  
        __size_of_Lcd_Init 0045          __size_of_Lcd_Port 0006     __end_of_spiReceiveWait 000A  
      __size_of_int2String 005E                 ?_Lcd_Clear 0070                   ??___flge 0078  
                 ??___bmul 0071                   ??___wmul 007B                  __Umul8_16 141C  
          Lcd_Write_Char@a 0072       __end_of_UARTSendChar 080C                  ___fladd@a 0074  
                ___fladd@b 0070                  ___fldiv@a 0032                  ___fldiv@b 0036  
                ___flmul@a 0050                  ___flmul@b 004C                  ___flsub@a 0032  
                ___flsub@b 0036                  ___latbits 0002              __pcstackBANK0 0020  
            __pcstackBANK1 00A0          __size_of___xxtofl 00BC                   ?_Lcd_Cmd 0070  
                _main$1159 00B3              UARTSendChar@c 0070            ?_spiReceiveWait 0070  
         ??_Lcd_Set_Cursor 0075                   ?___fladd 0070                   ?___fldiv 0032  
                 ?___awdiv 0070                   ?___awmod 0070                   ?___flmul 004C  
                 ?___flsub 0032                   ?___fltol 0070                   ?___lldiv 0070  
               ?__Umul8_16 0070                  _cont8bits 00BE          __size_of_spiWrite 0006  
                __pstrings 1000                   ?_convert 0066                   ?_spiInit 0070  
                 ?_spiRead 0070       spiInit@sTransmitEdge 0072             ___wmul@product 007B  
                clear_ram0 138C            UARTSendString@i 0075         spiInit@sDataSample 0070  
                 Lcd_Cmd@a 0073                   _PIR1bits 000C                ??_Lcd_Clear 0074  
                 _UARTInit 0822           int2String@cifras 0020                __stringbase 100F  
        ___wmul@multiplier 0020           ??_Lcd_Write_Char 0071               ??_int2String 0079  
                 _Lcd_Init 14D9                   _Lcd_Port 1380                  convert@mu 00AD  
 __end_of_Lcd_Write_String 149A           __size_of_Lcd_Cmd 001A           ??_UARTSendString 0074  
    __size_of_UARTSendChar 000C               UARTInit@BRGH 0024         __end_of_int2String 15D5  
              ??__Umul8_16 0072           __size_of___fladd 0298           __size_of___fldiv 01DD  
         __size_of___awdiv 0067           __size_of___awmod 0059           __size_of___flmul 0361  
         __size_of___flsub 0024           __size_of___fltol 007A           __size_of___lldiv 0066  
       __end_of__stringtab 1010          _string_voltageADC 00C5           __size_of_convert 03F4  
                 ___xxtofl 1744                   __ptext10 1443                   __ptext11 0024  
                 __ptext20 0800                   __ptext12 13F8                   __ptext21 0822  
                 __ptext13 0A6E                   __ptext22 15D5                   __ptext14 009E  
                 __ptext23 146A                   __ptext15 141C                   __ptext24 13AA  
                 __ptext16 16A2                   __ptext25 13D4                   __ptext17 0891  
                 __ptext26 14D9                   __ptext18 163B                   __ptext27 139D  
                 __ptext19 149A                   __ptext28 000A                   __ptext29 1380  
         __size_of_spiInit 0016           __size_of_spiRead 0009                   _conv_ADC 00B7  
             _UARTSendChar 0800              __size_of_main 02FA                   _spiWrite 1386  
             spiInit@sType 0073          spiInit@sClockIdle 0071                   convert@a 0066  
                 convert@i 00A9                   convert@j 00A2                   convert@x 00A5  
        UARTSendString@str 0071           ___lldiv@dividend 0074           ??_spiReceiveWait 0070  
                stringcode 100A         Lcd_Set_Cursor@temp 0077     __Umul8_16@multiplicand 0070  
              _temperature 00BD           ___lldiv@quotient 0079                   stringdir 100A  
                 stringtab 1000              ___fladd@signs 0078               ___fladd@aexp 0079  
             ___fladd@bexp 007A       __Umul8_16@multiplier 0078          __Umul8_16@product 0074  
