

Microchip MPLAB XC8 Assembler V2.31 build 20201012212115 
                                                                                               Tue Feb 16 00:01:23 2021

Microchip MPLAB XC8 C Compiler v2.31 (Free license) build 20201012212115 Og1 
     1                           	processor	16F887
     2                           	pagewidth 120
     3                           	opt	flic
     4                           	psect	cinit,global,class=CODE,merge=1,delta=2
     5                           	psect	bssBANK0,global,class=BANK0,space=1,delta=1,noexec
     6                           	psect	cstackCOMMON,global,class=COMMON,space=1,delta=1,noexec
     7                           	psect	cstackBANK0,global,class=BANK0,space=1,delta=1,noexec
     8                           	psect	maintext,global,class=CODE,split=1,delta=2
     9                           	psect	text1,local,class=CODE,merge=1,delta=2
    10                           	psect	text2,local,class=CODE,merge=1,delta=2
    11                           	psect	text3,local,class=CODE,merge=1,delta=2,group=1
    12                           	psect	text4,local,class=CODE,merge=1,delta=2,group=1
    13                           	psect	text5,local,class=CODE,merge=1,delta=2,group=1
    14                           	psect	text6,local,class=CODE,merge=1,delta=2,group=1
    15                           	psect	text7,local,class=CODE,merge=1,delta=2,group=1
    16                           	psect	text8,local,class=CODE,merge=1,delta=2
    17                           	psect	config,global,abs,ovrld,class=CONFIG,space=4,delta=2,noexec
    18                           	dabs	1,0x7E,2
    19  0000                     
    20                           ; Version 2.31
    21                           ; Generated 13/10/2020 GMT
    22                           ; 
    23                           ; Copyright © 2020, Microchip Technology Inc. and its subsidiaries ("Microchip")
    24                           ; All rights reserved.
    25                           ; 
    26                           ; This software is developed by Microchip Technology Inc. and its subsidiaries ("Microch
      +                          ip").
    27                           ; 
    28                           ; Redistribution and use in source and binary forms, with or without modification, are
    29                           ; permitted provided that the following conditions are met:
    30                           ; 
    31                           ;     1. Redistributions of source code must retain the above copyright notice, this lis
      +                          t of
    32                           ;        conditions and the following disclaimer.
    33                           ; 
    34                           ;     2. Redistributions in binary form must reproduce the above copyright notice, this 
      +                          list
    35                           ;        of conditions and the following disclaimer in the documentation and/or other
    36                           ;        materials provided with the distribution. Publication is not required when
    37                           ;        this file is used in an embedded application.
    38                           ; 
    39                           ;     3. Microchip's name may not be used to endorse or promote products derived from th
      +                          is
    40                           ;        software without specific prior written permission.
    41                           ; 
    42                           ; THIS SOFTWARE IS PROVIDED BY MICROCHIP "AS IS" AND ANY EXPRESS OR IMPLIED WARRANTIES,
    43                           ; INCLUDING, BUT NOT LIMITED TO, THE IMPLIED WARRANTIES OF MERCHANTABILITY AND FITNESS F
      +                          OR
    44                           ; PURPOSE ARE DISCLAIMED.  IN NO EVENT SHALL MICROCHIP BE LIABLE FOR ANY DIRECT, INDIREC
      +                          T,
    45                           ; INCIDENTAL, SPECIAL, EXEMPLARY, OR CONSEQUENTIAL DAMAGES (INCLUDING BUT NOT LIMITED TO
    46                           ; PROCUREMENT OF SUBSTITUTE GOODS OR SERVICES; LOSS OF USE, DATA OR PROFITS; OR BUSINESS
    47                           ; INTERRUPTION) HOWSOEVER CAUSED AND ON ANY THEORY OF LIABILITY, WHETHER IN CONTRACT, ST
      +                          RICT
    48                           ; LIABILITY, OR TORT (INCLUDING NEGLIGENCE OR OTHERWISE) ARISING IN ANY WAY OUT OF THE U
      +                          SE OF
    49                           ; THIS SOFTWARE, EVEN IF ADVISED OF THE POSSIBILITY OF SUCH DAMAGE.
    50                           ; 
    51                           ; 
    52                           ; Code-generator required, PIC16F887 Definitions
    53                           ; 
    54                           ; SFR Addresses
    55  0000                     	;# 
    56  0001                     	;# 
    57  0002                     	;# 
    58  0003                     	;# 
    59  0004                     	;# 
    60  0005                     	;# 
    61  0006                     	;# 
    62  0007                     	;# 
    63  0008                     	;# 
    64  0009                     	;# 
    65  000A                     	;# 
    66  000B                     	;# 
    67  000C                     	;# 
    68  000D                     	;# 
    69  000E                     	;# 
    70  000E                     	;# 
    71  000F                     	;# 
    72  0010                     	;# 
    73  0011                     	;# 
    74  0012                     	;# 
    75  0013                     	;# 
    76  0014                     	;# 
    77  0015                     	;# 
    78  0015                     	;# 
    79  0016                     	;# 
    80  0017                     	;# 
    81  0018                     	;# 
    82  0019                     	;# 
    83  001A                     	;# 
    84  001B                     	;# 
    85  001B                     	;# 
    86  001C                     	;# 
    87  001D                     	;# 
    88  001E                     	;# 
    89  001F                     	;# 
    90  0081                     	;# 
    91  0085                     	;# 
    92  0086                     	;# 
    93  0087                     	;# 
    94  0088                     	;# 
    95  0089                     	;# 
    96  008C                     	;# 
    97  008D                     	;# 
    98  008E                     	;# 
    99  008F                     	;# 
   100  0090                     	;# 
   101  0091                     	;# 
   102  0092                     	;# 
   103  0093                     	;# 
   104  0093                     	;# 
   105  0093                     	;# 
   106  0094                     	;# 
   107  0095                     	;# 
   108  0096                     	;# 
   109  0097                     	;# 
   110  0098                     	;# 
   111  0099                     	;# 
   112  009A                     	;# 
   113  009B                     	;# 
   114  009C                     	;# 
   115  009D                     	;# 
   116  009E                     	;# 
   117  009F                     	;# 
   118  0105                     	;# 
   119  0107                     	;# 
   120  0108                     	;# 
   121  0109                     	;# 
   122  010C                     	;# 
   123  010C                     	;# 
   124  010D                     	;# 
   125  010E                     	;# 
   126  010F                     	;# 
   127  0185                     	;# 
   128  0187                     	;# 
   129  0188                     	;# 
   130  0189                     	;# 
   131  018C                     	;# 
   132  018D                     	;# 
   133  0000                     	;# 
   134  0001                     	;# 
   135  0002                     	;# 
   136  0003                     	;# 
   137  0004                     	;# 
   138  0005                     	;# 
   139  0006                     	;# 
   140  0007                     	;# 
   141  0008                     	;# 
   142  0009                     	;# 
   143  000A                     	;# 
   144  000B                     	;# 
   145  000C                     	;# 
   146  000D                     	;# 
   147  000E                     	;# 
   148  000E                     	;# 
   149  000F                     	;# 
   150  0010                     	;# 
   151  0011                     	;# 
   152  0012                     	;# 
   153  0013                     	;# 
   154  0014                     	;# 
   155  0015                     	;# 
   156  0015                     	;# 
   157  0016                     	;# 
   158  0017                     	;# 
   159  0018                     	;# 
   160  0019                     	;# 
   161  001A                     	;# 
   162  001B                     	;# 
   163  001B                     	;# 
   164  001C                     	;# 
   165  001D                     	;# 
   166  001E                     	;# 
   167  001F                     	;# 
   168  0081                     	;# 
   169  0085                     	;# 
   170  0086                     	;# 
   171  0087                     	;# 
   172  0088                     	;# 
   173  0089                     	;# 
   174  008C                     	;# 
   175  008D                     	;# 
   176  008E                     	;# 
   177  008F                     	;# 
   178  0090                     	;# 
   179  0091                     	;# 
   180  0092                     	;# 
   181  0093                     	;# 
   182  0093                     	;# 
   183  0093                     	;# 
   184  0094                     	;# 
   185  0095                     	;# 
   186  0096                     	;# 
   187  0097                     	;# 
   188  0098                     	;# 
   189  0099                     	;# 
   190  009A                     	;# 
   191  009B                     	;# 
   192  009C                     	;# 
   193  009D                     	;# 
   194  009E                     	;# 
   195  009F                     	;# 
   196  0105                     	;# 
   197  0107                     	;# 
   198  0108                     	;# 
   199  0109                     	;# 
   200  010C                     	;# 
   201  010C                     	;# 
   202  010D                     	;# 
   203  010E                     	;# 
   204  010F                     	;# 
   205  0185                     	;# 
   206  0187                     	;# 
   207  0188                     	;# 
   208  0189                     	;# 
   209  018C                     	;# 
   210  018D                     	;# 
   211  0000                     	;# 
   212  0001                     	;# 
   213  0002                     	;# 
   214  0003                     	;# 
   215  0004                     	;# 
   216  0005                     	;# 
   217  0006                     	;# 
   218  0007                     	;# 
   219  0008                     	;# 
   220  0009                     	;# 
   221  000A                     	;# 
   222  000B                     	;# 
   223  000C                     	;# 
   224  000D                     	;# 
   225  000E                     	;# 
   226  000E                     	;# 
   227  000F                     	;# 
   228  0010                     	;# 
   229  0011                     	;# 
   230  0012                     	;# 
   231  0013                     	;# 
   232  0014                     	;# 
   233  0015                     	;# 
   234  0015                     	;# 
   235  0016                     	;# 
   236  0017                     	;# 
   237  0018                     	;# 
   238  0019                     	;# 
   239  001A                     	;# 
   240  001B                     	;# 
   241  001B                     	;# 
   242  001C                     	;# 
   243  001D                     	;# 
   244  001E                     	;# 
   245  001F                     	;# 
   246  0081                     	;# 
   247  0085                     	;# 
   248  0086                     	;# 
   249  0087                     	;# 
   250  0088                     	;# 
   251  0089                     	;# 
   252  008C                     	;# 
   253  008D                     	;# 
   254  008E                     	;# 
   255  008F                     	;# 
   256  0090                     	;# 
   257  0091                     	;# 
   258  0092                     	;# 
   259  0093                     	;# 
   260  0093                     	;# 
   261  0093                     	;# 
   262  0094                     	;# 
   263  0095                     	;# 
   264  0096                     	;# 
   265  0097                     	;# 
   266  0098                     	;# 
   267  0099                     	;# 
   268  009A                     	;# 
   269  009B                     	;# 
   270  009C                     	;# 
   271  009D                     	;# 
   272  009E                     	;# 
   273  009F                     	;# 
   274  0105                     	;# 
   275  0107                     	;# 
   276  0108                     	;# 
   277  0109                     	;# 
   278  010C                     	;# 
   279  010C                     	;# 
   280  010D                     	;# 
   281  010E                     	;# 
   282  010F                     	;# 
   283  0185                     	;# 
   284  0187                     	;# 
   285  0188                     	;# 
   286  0189                     	;# 
   287  018C                     	;# 
   288  018D                     	;# 
   289  0008                     _PORTDbits	set	8
   290  001F                     _ADCON0bits	set	31
   291  001E                     _ADRESH	set	30
   292  000C                     _PIR1bits	set	12
   293  0008                     _PORTD	set	8
   294  0006                     _PORTB	set	6
   295  0005                     _PORTA	set	5
   296  009F                     _ADCON1bits	set	159
   297  008C                     _PIE1bits	set	140
   298  009E                     _ADRESL	set	158
   299  0086                     _TRISB	set	134
   300  0088                     _TRISD	set	136
   301  0189                     _ANSELHbits	set	393
   302  0188                     _ANSELbits	set	392
   303  0189                     _ANSELH	set	393
   304  0188                     _ANSEL	set	392
   305                           
   306                           	psect	cinit
   307  07F5                     start_initialization:	
   308                           ; #config settings
   309                           
   310  07F5                     __initialization:
   311                           
   312                           ; Clear objects allocated to BANK0
   313  07F5  1283               	bcf	3,5	;RP0=0, select bank0
   314  07F6  1303               	bcf	3,6	;RP1=0, select bank0
   315  07F7  01D8               	clrf	__pbssBANK0& (0+127)
   316  07F8  01D9               	clrf	(__pbssBANK0+1)& (0+127)
   317  07F9  01DA               	clrf	(__pbssBANK0+2)& (0+127)
   318  07FA  01DB               	clrf	(__pbssBANK0+3)& (0+127)
   319  07FB  01DC               	clrf	(__pbssBANK0+4)& (0+127)
   320  07FC                     end_of_initialization:	
   321                           ;End of C runtime variable initialization code
   322                           
   323  07FC                     __end_of__initialization:
   324  07FC  0183               	clrf	3
   325  07FD  120A  118A  29E3   	ljmp	_main	;jump to C main() function
   326                           
   327                           	psect	bssBANK0
   328  0058                     __pbssBANK0:
   329  0058                     _tempLM35:
   330  0058                     	ds	4
   331  005C                     _volLM35:
   332  005C                     	ds	1
   333                           
   334                           	psect	cstackCOMMON
   335  0070                     __pcstackCOMMON:
   336  0070                     ?___flge:
   337  0070                     ?_start_adc:	
   338                           ; 1 bit 
   339                           
   340  0070                     ?_start_ch:	
   341                           ; 1 bytes @ 0x0
   342                           
   343  0070                     ??_start_ch:	
   344                           ; 1 bytes @ 0x0
   345                           
   346  0070                     ?_Select_ch:	
   347                           ; 1 bytes @ 0x0
   348                           
   349  0070                     ??_Select_ch:	
   350                           ; 1 bytes @ 0x0
   351                           
   352  0070                     ?_main:	
   353                           ; 1 bytes @ 0x0
   354                           
   355  0070                     ?__Umul8_16:	
   356                           ; 1 bytes @ 0x0
   357                           
   358  0070                     ?___xxtofl:	
   359                           ; 2 bytes @ 0x0
   360                           
   361  0070                     start_adc@isr:	
   362                           ; 4 bytes @ 0x0
   363                           
   364  0070                     __Umul8_16@multiplicand:	
   365                           ; 1 bytes @ 0x0
   366                           
   367  0070                     ___flge@ff1:	
   368                           ; 1 bytes @ 0x0
   369                           
   370  0070                     ___xxtofl@val:	
   371                           ; 4 bytes @ 0x0
   372                           
   373                           
   374                           ; 4 bytes @ 0x0
   375  0070                     	ds	1
   376  0071                     start_adc@Vref:
   377                           
   378                           ; 1 bytes @ 0x1
   379  0071                     	ds	1
   380  0072                     ??__Umul8_16:
   381  0072                     start_adc@justRL:	
   382                           ; 1 bytes @ 0x2
   383                           
   384  0072                     start_ch@channel:	
   385                           ; 1 bytes @ 0x2
   386                           
   387  0072                     Select_ch@channel:	
   388                           ; 1 bytes @ 0x2
   389                           
   390                           
   391                           ; 1 bytes @ 0x2
   392  0072                     	ds	1
   393  0073                     ??_start_adc:
   394                           
   395                           ; 1 bytes @ 0x3
   396  0073                     	ds	1
   397  0074                     ??___xxtofl:
   398  0074                     __Umul8_16@product:	
   399                           ; 1 bytes @ 0x4
   400                           
   401  0074                     ___flge@ff2:	
   402                           ; 2 bytes @ 0x4
   403                           
   404                           
   405                           ; 4 bytes @ 0x4
   406  0074                     	ds	1
   407  0075                     start_adc@frec:
   408                           
   409                           ; 1 bytes @ 0x5
   410  0075                     	ds	1
   411  0076                     __Umul8_16@word_mpld:
   412                           
   413                           ; 2 bytes @ 0x6
   414  0076                     	ds	2
   415  0078                     ??___flge:
   416  0078                     __Umul8_16@multiplier:	
   417                           ; 1 bytes @ 0x8
   418                           
   419  0078                     ___xxtofl@sign:	
   420                           ; 1 bytes @ 0x8
   421                           
   422                           
   423                           ; 1 bytes @ 0x8
   424  0078                     	ds	1
   425  0079                     ___xxtofl@exp:
   426                           
   427                           ; 1 bytes @ 0x9
   428  0079                     	ds	1
   429  007A                     ___xxtofl@arg:
   430                           
   431                           ; 4 bytes @ 0xA
   432  007A                     	ds	4
   433                           
   434                           	psect	cstackBANK0
   435  0020                     __pcstackBANK0:
   436  0020                     ?___fldiv:
   437  0020                     ___fldiv@a:	
   438                           ; 4 bytes @ 0x0
   439                           
   440                           
   441                           ; 4 bytes @ 0x0
   442  0020                     	ds	4
   443  0024                     ___fldiv@b:
   444                           
   445                           ; 4 bytes @ 0x4
   446  0024                     	ds	4
   447  0028                     ??___fldiv:
   448                           
   449                           ; 1 bytes @ 0x8
   450  0028                     	ds	5
   451  002D                     ___fldiv@rem:
   452                           
   453                           ; 4 bytes @ 0xD
   454  002D                     	ds	4
   455  0031                     ___fldiv@sign:
   456                           
   457                           ; 1 bytes @ 0x11
   458  0031                     	ds	1
   459  0032                     ___fldiv@new_exp:
   460                           
   461                           ; 2 bytes @ 0x12
   462  0032                     	ds	2
   463  0034                     ___fldiv@grs:
   464                           
   465                           ; 4 bytes @ 0x14
   466  0034                     	ds	4
   467  0038                     ___fldiv@bexp:
   468                           
   469                           ; 1 bytes @ 0x18
   470  0038                     	ds	1
   471  0039                     ___fldiv@aexp:
   472                           
   473                           ; 1 bytes @ 0x19
   474  0039                     	ds	1
   475  003A                     ?___flmul:
   476  003A                     ___flmul@b:	
   477                           ; 4 bytes @ 0x1A
   478                           
   479                           
   480                           ; 4 bytes @ 0x1A
   481  003A                     	ds	4
   482  003E                     ___flmul@a:
   483                           
   484                           ; 4 bytes @ 0x1E
   485  003E                     	ds	4
   486  0042                     ??___flmul:
   487                           
   488                           ; 1 bytes @ 0x22
   489  0042                     	ds	5
   490  0047                     ___flmul@sign:
   491                           
   492                           ; 1 bytes @ 0x27
   493  0047                     	ds	1
   494  0048                     ___flmul@grs:
   495                           
   496                           ; 4 bytes @ 0x28
   497  0048                     	ds	4
   498  004C                     ___flmul@aexp:
   499                           
   500                           ; 1 bytes @ 0x2C
   501  004C                     	ds	1
   502  004D                     ___flmul@bexp:
   503                           
   504                           ; 1 bytes @ 0x2D
   505  004D                     	ds	1
   506  004E                     ___flmul@prod:
   507                           
   508                           ; 4 bytes @ 0x2E
   509  004E                     	ds	4
   510  0052                     ___flmul@temp:
   511                           
   512                           ; 2 bytes @ 0x32
   513  0052                     	ds	2
   514  0054                     ??_main:
   515                           
   516                           ; 1 bytes @ 0x34
   517  0054                     	ds	4
   518                           
   519                           	psect	maintext
   520  01E3                     __pmaintext:	
   521 ;;
   522 ;;Main: autosize = 0, tempsize = 4, incstack = 0, save=0
   523 ;;
   524 ;; *************** function _main *****************
   525 ;; Defined at:
   526 ;;		line 36 in file "main.c"
   527 ;; Parameters:    Size  Location     Type
   528 ;;		None
   529 ;; Auto vars:     Size  Location     Type
   530 ;;		None
   531 ;; Return value:  Size  Location     Type
   532 ;;                  1    wreg      void 
   533 ;; Registers used:
   534 ;;		wreg, fsr0l, fsr0h, status,2, status,0, btemp+1, pclath, cstack
   535 ;; Tracked objects:
   536 ;;		On entry : B00/0
   537 ;;		On exit  : 0/0
   538 ;;		Unchanged: 0/0
   539 ;; Data sizes:     COMMON   BANK0   BANK1   BANK3   BANK2
   540 ;;      Params:         0       0       0       0       0
   541 ;;      Locals:         0       0       0       0       0
   542 ;;      Temps:          0       4       0       0       0
   543 ;;      Totals:         0       4       0       0       0
   544 ;;Total ram usage:        4 bytes
   545 ;; Hardware stack levels required when called:    2
   546 ;; This function calls:
   547 ;;		_Select_ch
   548 ;;		___fldiv
   549 ;;		___flge
   550 ;;		___flmul
   551 ;;		___xxtofl
   552 ;;		_start_adc
   553 ;;		_start_ch
   554 ;; This function is called by:
   555 ;;		Startup code after reset
   556 ;; This function uses a non-reentrant model
   557 ;;
   558                           
   559                           
   560                           ;psect for function _main
   561  01E3                     _main:
   562  01E3                     l1663:	
   563                           ;incstack = 0
   564                           ; Regs used in _main: [wreg-fsr0h+status,2+status,0+btemp+1+pclath+cstack]
   565                           
   566                           
   567                           ;main.c: 38:             PORTDbits.RD2 = 1;
   568  01E3  1683               	bsf	3,5	;RP0=1, select bank3
   569  01E4  1703               	bsf	3,6	;RP1=1, select bank3
   570  01E5  0188               	clrf	8	;volatile
   571                           
   572                           ;main.c: 39:         }
   573  01E6  0189               	clrf	9	;volatile
   574  01E7                     l1665:
   575                           
   576                           ;main.c: 40:     }
   577  01E7  01F0               	clrf	start_adc@isr
   578  01E8  01F1               	clrf	start_adc@Vref
   579  01E9  01F2               	clrf	start_adc@justRL
   580  01EA  3002               	movlw	2
   581  01EB  120A  158A  26FC  120A  118A  	fcall	_start_adc
   582  01F0                     l1667:
   583                           
   584                           ;main.c: 41: }
   585  01F0  300C               	movlw	12
   586  01F1  120A  118A  2007  120A  118A  	fcall	_start_ch
   587  01F6                     l1669:
   588  01F6  300C               	movlw	12
   589  01F7  120A  118A  2076  120A  118A  	fcall	_Select_ch
   590  01FC                     l1671:
   591  01FC  1683               	bsf	3,5	;RP0=1, select bank1
   592  01FD  1303               	bcf	3,6	;RP1=0, select bank1
   593  01FE  0188               	clrf	8	;volatile
   594  01FF                     l1673:
   595  01FF  3001               	movlw	1
   596  0200  0086               	movwf	6	;volatile
   597  0201                     l1675:
   598  0201  1283               	bcf	3,5	;RP0=0, select bank0
   599  0202  1303               	bcf	3,6	;RP1=0, select bank0
   600  0203  0185               	clrf	5	;volatile
   601  0204                     l1677:
   602  0204  0186               	clrf	6	;volatile
   603  0205                     l1679:
   604  0205  0188               	clrf	8	;volatile
   605  0206                     l1681:
   606  0206  1F0C               	btfss	12,6	;volatile
   607  0207  2A09               	goto	u1901
   608  0208  2A0A               	goto	u1900
   609  0209                     u1901:
   610  0209  2A26               	goto	l1689
   611  020A                     u1900:
   612  020A                     l1683:
   613  020A  1683               	bsf	3,5	;RP0=1, select bank1
   614  020B  1303               	bcf	3,6	;RP1=0, select bank1
   615  020C  081E               	movf	30,w	;volatile
   616  020D  1283               	bcf	3,5	;RP0=0, select bank0
   617  020E  1303               	bcf	3,6	;RP1=0, select bank0
   618  020F  00D4               	movwf	??_main
   619  0210  3006               	movlw	6
   620  0211                     u1915:
   621  0211  1003               	clrc
   622  0212  0CD4               	rrf	??_main,f
   623  0213  3EFF               	addlw	-1
   624  0214  1D03               	skipz
   625  0215  2A11               	goto	u1915
   626  0216  081E               	movf	30,w	;volatile
   627  0217  00D5               	movwf	??_main+1
   628  0218  3001               	movlw	1
   629  0219                     u1925:
   630  0219  1003               	clrc
   631  021A  0DD5               	rlf	??_main+1,f
   632  021B  3EFF               	addlw	-1
   633  021C  1D03               	skipz
   634  021D  2A19               	goto	u1925
   635  021E  1003               	clrc
   636  021F  0D55               	rlf	??_main+1,w
   637  0220  0454               	iorwf	??_main,w
   638  0221  00D6               	movwf	??_main+2
   639  0222  0856               	movf	??_main+2,w
   640  0223  00DC               	movwf	_volLM35	;volatile
   641  0224                     l1685:
   642  0224  149F               	bsf	31,1	;volatile
   643  0225                     l1687:
   644  0225  130C               	bcf	12,6	;volatile
   645  0226                     l1689:
   646  0226  3043               	movlw	67
   647  0227  00BD               	movwf	___flmul@b+3
   648  0228  30FA               	movlw	250
   649  0229  00BC               	movwf	___flmul@b+2
   650  022A  3000               	movlw	0
   651  022B  00BB               	movwf	___flmul@b+1
   652  022C  3000               	movlw	0
   653  022D  00BA               	movwf	___flmul@b
   654  022E  3044               	movlw	68
   655  022F  00A3               	movwf	___fldiv@a+3
   656  0230  307F               	movlw	127
   657  0231  00A2               	movwf	___fldiv@a+2
   658  0232  30C0               	movlw	192
   659  0233  00A1               	movwf	___fldiv@a+1
   660  0234  3000               	movlw	0
   661  0235  00A0               	movwf	___fldiv@a
   662  0236  085C               	movf	_volLM35,w	;volatile
   663  0237  00D4               	movwf	??_main
   664  0238  01D5               	clrf	??_main+1
   665  0239  01D6               	clrf	??_main+2
   666  023A  01D7               	clrf	??_main+3
   667  023B  0857               	movf	??_main+3,w
   668  023C  00F3               	movwf	___xxtofl@val+3
   669  023D  0856               	movf	??_main+2,w
   670  023E  00F2               	movwf	___xxtofl@val+2
   671  023F  0855               	movf	??_main+1,w
   672  0240  00F1               	movwf	___xxtofl@val+1
   673  0241  0854               	movf	??_main,w
   674  0242  00F0               	movwf	___xxtofl@val
   675  0243  3001               	movlw	1
   676  0244  120A  118A  2129  120A  118A  	fcall	___xxtofl
   677  0249  0873               	movf	?___xxtofl+3,w
   678  024A  1283               	bcf	3,5	;RP0=0, select bank0
   679  024B  1303               	bcf	3,6	;RP1=0, select bank0
   680  024C  00A7               	movwf	___fldiv@b+3
   681  024D  0872               	movf	?___xxtofl+2,w
   682  024E  00A6               	movwf	___fldiv@b+2
   683  024F  0871               	movf	?___xxtofl+1,w
   684  0250  00A5               	movwf	___fldiv@b+1
   685  0251  0870               	movf	?___xxtofl,w
   686  0252  00A4               	movwf	___fldiv@b
   687  0253  120A  118A  22B7  120A  118A  	fcall	___fldiv
   688  0258  1283               	bcf	3,5	;RP0=0, select bank0
   689  0259  1303               	bcf	3,6	;RP1=0, select bank0
   690  025A  0823               	movf	?___fldiv+3,w
   691  025B  00C1               	movwf	___flmul@a+3
   692  025C  0822               	movf	?___fldiv+2,w
   693  025D  00C0               	movwf	___flmul@a+2
   694  025E  0821               	movf	?___fldiv+1,w
   695  025F  00BF               	movwf	___flmul@a+1
   696  0260  0820               	movf	?___fldiv,w
   697  0261  00BE               	movwf	___flmul@a
   698  0262  120A  118A  2494  120A  118A  	fcall	___flmul
   699  0267  1283               	bcf	3,5	;RP0=0, select bank0
   700  0268  1303               	bcf	3,6	;RP1=0, select bank0
   701  0269  083D               	movf	?___flmul+3,w
   702  026A  00DB               	movwf	_tempLM35+3
   703  026B  083C               	movf	?___flmul+2,w
   704  026C  00DA               	movwf	_tempLM35+2
   705  026D  083B               	movf	?___flmul+1,w
   706  026E  00D9               	movwf	_tempLM35+1
   707  026F  083A               	movf	?___flmul,w
   708  0270  00D8               	movwf	_tempLM35
   709  0271                     l1691:
   710  0271  085B               	movf	_tempLM35+3,w
   711  0272  00F3               	movwf	___flge@ff1+3
   712  0273  085A               	movf	_tempLM35+2,w
   713  0274  00F2               	movwf	___flge@ff1+2
   714  0275  0859               	movf	_tempLM35+1,w
   715  0276  00F1               	movwf	___flge@ff1+1
   716  0277  0858               	movf	_tempLM35,w
   717  0278  00F0               	movwf	___flge@ff1
   718  0279  3041               	movlw	65
   719  027A  00F7               	movwf	___flge@ff2+3
   720  027B  30C8               	movlw	200
   721  027C  00F6               	movwf	___flge@ff2+2
   722  027D  3000               	movlw	0
   723  027E  00F5               	movwf	___flge@ff2+1
   724  027F  3000               	movlw	0
   725  0280  00F4               	movwf	___flge@ff2
   726  0281  120A  158A  275E  120A  118A  	fcall	___flge
   727  0286  1803               	btfsc	3,0
   728  0287  2A89               	goto	u1931
   729  0288  2A8A               	goto	u1930
   730  0289                     u1931:
   731  0289  2A8F               	goto	l1697
   732  028A                     u1930:
   733  028A                     l1693:
   734  028A  1283               	bcf	3,5	;RP0=0, select bank0
   735  028B  1303               	bcf	3,6	;RP1=0, select bank0
   736  028C  0188               	clrf	8	;volatile
   737  028D                     l1695:
   738  028D  1408               	bsf	8,0	;volatile
   739  028E  2A06               	goto	l1681
   740  028F                     l1697:
   741  028F  1283               	bcf	3,5	;RP0=0, select bank0
   742  0290  1303               	bcf	3,6	;RP1=0, select bank0
   743  0291  085B               	movf	_tempLM35+3,w
   744  0292  00F3               	movwf	___flge@ff1+3
   745  0293  085A               	movf	_tempLM35+2,w
   746  0294  00F2               	movwf	___flge@ff1+2
   747  0295  0859               	movf	_tempLM35+1,w
   748  0296  00F1               	movwf	___flge@ff1+1
   749  0297  0858               	movf	_tempLM35,w
   750  0298  00F0               	movwf	___flge@ff1
   751  0299  3042               	movlw	66
   752  029A  00F7               	movwf	___flge@ff2+3
   753  029B  3010               	movlw	16
   754  029C  00F6               	movwf	___flge@ff2+2
   755  029D  3000               	movlw	0
   756  029E  00F5               	movwf	___flge@ff2+1
   757  029F  3000               	movlw	0
   758  02A0  00F4               	movwf	___flge@ff2
   759  02A1  120A  158A  275E  120A  118A  	fcall	___flge
   760  02A6  1803               	btfsc	3,0
   761  02A7  2AA9               	goto	u1941
   762  02A8  2AAA               	goto	u1940
   763  02A9                     u1941:
   764  02A9  2AAF               	goto	l1703
   765  02AA                     u1940:
   766  02AA                     l1699:
   767  02AA  1283               	bcf	3,5	;RP0=0, select bank0
   768  02AB  1303               	bcf	3,6	;RP1=0, select bank0
   769  02AC  0188               	clrf	8	;volatile
   770  02AD                     l1701:
   771  02AD  1488               	bsf	8,1	;volatile
   772  02AE  2A06               	goto	l1681
   773  02AF                     l1703:
   774  02AF  1283               	bcf	3,5	;RP0=0, select bank0
   775  02B0  1303               	bcf	3,6	;RP1=0, select bank0
   776  02B1  0188               	clrf	8	;volatile
   777  02B2                     l1705:
   778  02B2  1508               	bsf	8,2	;volatile
   779  02B3  2A06               	goto	l1681
   780  02B4  120A  118A  2800   	ljmp	start
   781  02B7                     __end_of_main:
   782                           
   783                           	psect	text1
   784  0007                     __ptext1:	
   785 ;; *************** function _start_ch *****************
   786 ;; Defined at:
   787 ;;		line 60 in file "ADC_LIB.c"
   788 ;; Parameters:    Size  Location     Type
   789 ;;  channel         1    wreg     unsigned char 
   790 ;; Auto vars:     Size  Location     Type
   791 ;;  channel         1    2[COMMON] unsigned char 
   792 ;; Return value:  Size  Location     Type
   793 ;;                  1    wreg      void 
   794 ;; Registers used:
   795 ;;		wreg, fsr0l, fsr0h, status,2, status,0
   796 ;; Tracked objects:
   797 ;;		On entry : 0/0
   798 ;;		On exit  : 0/0
   799 ;;		Unchanged: 0/0
   800 ;; Data sizes:     COMMON   BANK0   BANK1   BANK3   BANK2
   801 ;;      Params:         0       0       0       0       0
   802 ;;      Locals:         1       0       0       0       0
   803 ;;      Temps:          2       0       0       0       0
   804 ;;      Totals:         3       0       0       0       0
   805 ;;Total ram usage:        3 bytes
   806 ;; Hardware stack levels used:    1
   807 ;; This function calls:
   808 ;;		Nothing
   809 ;; This function is called by:
   810 ;;		_main
   811 ;; This function uses a non-reentrant model
   812 ;;
   813                           
   814                           
   815                           ;psect for function _start_ch
   816  0007                     _start_ch:
   817                           
   818                           ;incstack = 0
   819                           ; Regs used in _start_ch: [wreg-fsr0h+status,2+status,0]
   820                           ;start_ch@channel stored from wreg
   821  0007  00F2               	movwf	start_ch@channel
   822  0008                     l1297:
   823                           
   824                           ;ADC_LIB.c: 61:     switch (channel) {
   825  0008  2841               	goto	l1301
   826  0009                     l83:	
   827                           ;ADC_LIB.c: 62:         case 0:
   828                           
   829                           
   830                           ;ADC_LIB.c: 63:             ANSELbits.ANS0 = 1;
   831  0009  1683               	bsf	3,5	;RP0=1, select bank3
   832  000A  1703               	bsf	3,6	;RP1=1, select bank3
   833  000B  1408               	bsf	8,0	;volatile
   834                           
   835                           ;ADC_LIB.c: 64:             break;
   836  000C  2875               	goto	l98
   837  000D                     l85:	
   838                           ;ADC_LIB.c: 65:         case 1:
   839                           
   840                           
   841                           ;ADC_LIB.c: 66:             ANSELbits.ANS1 = 1;
   842  000D  1683               	bsf	3,5	;RP0=1, select bank3
   843  000E  1703               	bsf	3,6	;RP1=1, select bank3
   844  000F  1488               	bsf	8,1	;volatile
   845                           
   846                           ;ADC_LIB.c: 67:             break;
   847  0010  2875               	goto	l98
   848  0011                     l86:	
   849                           ;ADC_LIB.c: 68:         case 2:
   850                           
   851                           
   852                           ;ADC_LIB.c: 69:             ANSELbits.ANS2 = 1;
   853  0011  1683               	bsf	3,5	;RP0=1, select bank3
   854  0012  1703               	bsf	3,6	;RP1=1, select bank3
   855  0013  1508               	bsf	8,2	;volatile
   856                           
   857                           ;ADC_LIB.c: 70:             break;
   858  0014  2875               	goto	l98
   859  0015                     l87:	
   860                           ;ADC_LIB.c: 71:         case 3:
   861                           
   862                           
   863                           ;ADC_LIB.c: 72:             ANSELbits.ANS3 = 1;
   864  0015  1683               	bsf	3,5	;RP0=1, select bank3
   865  0016  1703               	bsf	3,6	;RP1=1, select bank3
   866  0017  1588               	bsf	8,3	;volatile
   867                           
   868                           ;ADC_LIB.c: 73:             break;
   869  0018  2875               	goto	l98
   870  0019                     l88:	
   871                           ;ADC_LIB.c: 74:         case 4:
   872                           
   873                           
   874                           ;ADC_LIB.c: 75:             ANSELbits.ANS4 = 1;
   875  0019  1683               	bsf	3,5	;RP0=1, select bank3
   876  001A  1703               	bsf	3,6	;RP1=1, select bank3
   877  001B  1608               	bsf	8,4	;volatile
   878                           
   879                           ;ADC_LIB.c: 76:             break;
   880  001C  2875               	goto	l98
   881  001D                     l89:	
   882                           ;ADC_LIB.c: 77:         case 5:
   883                           
   884                           
   885                           ;ADC_LIB.c: 78:             ANSELbits.ANS5 = 1;
   886  001D  1683               	bsf	3,5	;RP0=1, select bank3
   887  001E  1703               	bsf	3,6	;RP1=1, select bank3
   888  001F  1688               	bsf	8,5	;volatile
   889                           
   890                           ;ADC_LIB.c: 79:             break;
   891  0020  2875               	goto	l98
   892  0021                     l90:	
   893                           ;ADC_LIB.c: 80:         case 6:
   894                           
   895                           
   896                           ;ADC_LIB.c: 81:             ANSELbits.ANS6 = 1;
   897  0021  1683               	bsf	3,5	;RP0=1, select bank3
   898  0022  1703               	bsf	3,6	;RP1=1, select bank3
   899  0023  1708               	bsf	8,6	;volatile
   900                           
   901                           ;ADC_LIB.c: 82:             break;
   902  0024  2875               	goto	l98
   903  0025                     l91:	
   904                           ;ADC_LIB.c: 83:         case 7:
   905                           
   906                           
   907                           ;ADC_LIB.c: 84:             ANSELbits.ANS7 = 1;
   908  0025  1683               	bsf	3,5	;RP0=1, select bank3
   909  0026  1703               	bsf	3,6	;RP1=1, select bank3
   910  0027  1788               	bsf	8,7	;volatile
   911                           
   912                           ;ADC_LIB.c: 85:             break;
   913  0028  2875               	goto	l98
   914  0029                     l92:	
   915                           ;ADC_LIB.c: 86:         case 8:
   916                           
   917                           
   918                           ;ADC_LIB.c: 87:             ANSELHbits.ANS8 = 1;
   919  0029  1683               	bsf	3,5	;RP0=1, select bank3
   920  002A  1703               	bsf	3,6	;RP1=1, select bank3
   921  002B  1409               	bsf	9,0	;volatile
   922                           
   923                           ;ADC_LIB.c: 88:             break;
   924  002C  2875               	goto	l98
   925  002D                     l93:	
   926                           ;ADC_LIB.c: 89:         case 9:
   927                           
   928                           
   929                           ;ADC_LIB.c: 90:             ANSELHbits.ANS9 = 1;
   930  002D  1683               	bsf	3,5	;RP0=1, select bank3
   931  002E  1703               	bsf	3,6	;RP1=1, select bank3
   932  002F  1489               	bsf	9,1	;volatile
   933                           
   934                           ;ADC_LIB.c: 91:             break;
   935  0030  2875               	goto	l98
   936  0031                     l94:	
   937                           ;ADC_LIB.c: 92:         case 10:
   938                           
   939                           
   940                           ;ADC_LIB.c: 93:             ANSELHbits.ANS10 = 1;
   941  0031  1683               	bsf	3,5	;RP0=1, select bank3
   942  0032  1703               	bsf	3,6	;RP1=1, select bank3
   943  0033  1509               	bsf	9,2	;volatile
   944                           
   945                           ;ADC_LIB.c: 94:             break;
   946  0034  2875               	goto	l98
   947  0035                     l95:	
   948                           ;ADC_LIB.c: 95:         case 11:
   949                           
   950                           
   951                           ;ADC_LIB.c: 96:             ANSELHbits.ANS11 = 1;
   952  0035  1683               	bsf	3,5	;RP0=1, select bank3
   953  0036  1703               	bsf	3,6	;RP1=1, select bank3
   954  0037  1589               	bsf	9,3	;volatile
   955                           
   956                           ;ADC_LIB.c: 97:             break;
   957  0038  2875               	goto	l98
   958  0039                     l96:	
   959                           ;ADC_LIB.c: 98:         case 12:
   960                           
   961                           
   962                           ;ADC_LIB.c: 99:             ANSELHbits.ANS12 = 1;
   963  0039  1683               	bsf	3,5	;RP0=1, select bank3
   964  003A  1703               	bsf	3,6	;RP1=1, select bank3
   965  003B  1609               	bsf	9,4	;volatile
   966                           
   967                           ;ADC_LIB.c: 100:             break;
   968  003C  2875               	goto	l98
   969  003D                     l97:	
   970                           ;ADC_LIB.c: 101:         case 13:
   971                           
   972                           
   973                           ;ADC_LIB.c: 102:             ANSELHbits.ANS13 = 1;
   974  003D  1683               	bsf	3,5	;RP0=1, select bank3
   975  003E  1703               	bsf	3,6	;RP1=1, select bank3
   976  003F  1689               	bsf	9,5	;volatile
   977                           
   978                           ;ADC_LIB.c: 103:             break;
   979  0040  2875               	goto	l98
   980  0041                     l1301:
   981  0041  0872               	movf	start_ch@channel,w
   982  0042  00F0               	movwf	??_start_ch
   983  0043  01F1               	clrf	??_start_ch+1
   984                           
   985                           ; Switch on 2 bytes has been partitioned into a top level switch of size 1, and 1 sub-sw
      +                          itches
   986                           ; Switch size 1, requested type "simple"
   987                           ; Number of cases is 1, Range of values is 0 to 0
   988                           ; switch strategies available:
   989                           ; Name         Instructions Cycles
   990                           ; simple_byte            4     3 (average)
   991                           ; direct_byte           11     8 (fixed)
   992                           ; jumptable            260     6 (fixed)
   993                           ;	Chosen strategy is simple_byte
   994  0044  0871               	movf	??_start_ch+1,w
   995  0045  3A00               	xorlw	0	; case 0
   996  0046  1903               	skipnz
   997  0047  2849               	goto	l1787
   998  0048  2875               	goto	l98
   999  0049                     l1787:
  1000                           
  1001                           ; Switch size 1, requested type "simple"
  1002                           ; Number of cases is 14, Range of values is 0 to 13
  1003                           ; switch strategies available:
  1004                           ; Name         Instructions Cycles
  1005                           ; simple_byte           43    22 (average)
  1006                           ; direct_byte           50     8 (fixed)
  1007                           ; jumptable            260     6 (fixed)
  1008                           ;	Chosen strategy is simple_byte
  1009  0049  0870               	movf	??_start_ch,w
  1010  004A  3A00               	xorlw	0	; case 0
  1011  004B  1903               	skipnz
  1012  004C  2809               	goto	l83
  1013  004D  3A01               	xorlw	1	; case 1
  1014  004E  1903               	skipnz
  1015  004F  280D               	goto	l85
  1016  0050  3A03               	xorlw	3	; case 2
  1017  0051  1903               	skipnz
  1018  0052  2811               	goto	l86
  1019  0053  3A01               	xorlw	1	; case 3
  1020  0054  1903               	skipnz
  1021  0055  2815               	goto	l87
  1022  0056  3A07               	xorlw	7	; case 4
  1023  0057  1903               	skipnz
  1024  0058  2819               	goto	l88
  1025  0059  3A01               	xorlw	1	; case 5
  1026  005A  1903               	skipnz
  1027  005B  281D               	goto	l89
  1028  005C  3A03               	xorlw	3	; case 6
  1029  005D  1903               	skipnz
  1030  005E  2821               	goto	l90
  1031  005F  3A01               	xorlw	1	; case 7
  1032  0060  1903               	skipnz
  1033  0061  2825               	goto	l91
  1034  0062  3A0F               	xorlw	15	; case 8
  1035  0063  1903               	skipnz
  1036  0064  2829               	goto	l92
  1037  0065  3A01               	xorlw	1	; case 9
  1038  0066  1903               	skipnz
  1039  0067  282D               	goto	l93
  1040  0068  3A03               	xorlw	3	; case 10
  1041  0069  1903               	skipnz
  1042  006A  2831               	goto	l94
  1043  006B  3A01               	xorlw	1	; case 11
  1044  006C  1903               	skipnz
  1045  006D  2835               	goto	l95
  1046  006E  3A07               	xorlw	7	; case 12
  1047  006F  1903               	skipnz
  1048  0070  2839               	goto	l96
  1049  0071  3A01               	xorlw	1	; case 13
  1050  0072  1903               	skipnz
  1051  0073  283D               	goto	l97
  1052  0074  2875               	goto	l98
  1053  0075                     l98:
  1054  0075  0008               	return
  1055  0076                     __end_of_start_ch:
  1056                           
  1057                           	psect	text2
  1058  0EFC                     __ptext2:	
  1059 ;; *************** function _start_adc *****************
  1060 ;; Defined at:
  1061 ;;		line 11 in file "ADC_LIB.c"
  1062 ;; Parameters:    Size  Location     Type
  1063 ;;  frec            1    wreg     unsigned char 
  1064 ;;  isr             1    0[COMMON] unsigned char 
  1065 ;;  Vref            1    1[COMMON] unsigned char 
  1066 ;;  justRL          1    2[COMMON] unsigned char 
  1067 ;; Auto vars:     Size  Location     Type
  1068 ;;  frec            1    5[COMMON] unsigned char 
  1069 ;; Return value:  Size  Location     Type
  1070 ;;                  1    wreg      void 
  1071 ;; Registers used:
  1072 ;;		wreg, fsr0l, fsr0h, status,2, status,0
  1073 ;; Tracked objects:
  1074 ;;		On entry : 0/0
  1075 ;;		On exit  : 0/0
  1076 ;;		Unchanged: 0/0
  1077 ;; Data sizes:     COMMON   BANK0   BANK1   BANK3   BANK2
  1078 ;;      Params:         3       0       0       0       0
  1079 ;;      Locals:         1       0       0       0       0
  1080 ;;      Temps:          2       0       0       0       0
  1081 ;;      Totals:         6       0       0       0       0
  1082 ;;Total ram usage:        6 bytes
  1083 ;; Hardware stack levels used:    1
  1084 ;; This function calls:
  1085 ;;		Nothing
  1086 ;; This function is called by:
  1087 ;;		_main
  1088 ;; This function uses a non-reentrant model
  1089 ;;
  1090                           
  1091                           
  1092                           ;psect for function _start_adc
  1093  0EFC                     _start_adc:
  1094                           
  1095                           ;incstack = 0
  1096                           ; Regs used in _start_adc: [wreg-fsr0h+status,2+status,0]
  1097                           ;start_adc@frec stored from wreg
  1098  0EFC  00F5               	movwf	start_adc@frec
  1099  0EFD                     l1271:
  1100                           
  1101                           ;ADC_LIB.c: 12:     ADCON0bits.ADON = 1;
  1102  0EFD  1283               	bcf	3,5	;RP0=0, select bank0
  1103  0EFE  1303               	bcf	3,6	;RP1=0, select bank0
  1104  0EFF  141F               	bsf	31,0	;volatile
  1105                           
  1106                           ;ADC_LIB.c: 13:     switch (frec) {
  1107  0F00  2F0D               	goto	l1275
  1108  0F01                     l65:	
  1109                           ;ADC_LIB.c: 14:         case 1:
  1110                           
  1111                           
  1112                           ;ADC_LIB.c: 15:             ADCON0bits.ADCS0 = 0;
  1113  0F01  131F               	bcf	31,6	;volatile
  1114                           
  1115                           ;ADC_LIB.c: 16:             ADCON0bits.ADCS1 = 0;
  1116  0F02  139F               	bcf	31,7	;volatile
  1117                           
  1118                           ;ADC_LIB.c: 17:             break;
  1119  0F03  2F23               	goto	l1277
  1120  0F04                     l67:	
  1121                           ;ADC_LIB.c: 18:         case 2:
  1122                           
  1123                           
  1124                           ;ADC_LIB.c: 19:             ADCON0bits.ADCS0 = 1;
  1125  0F04  171F               	bsf	31,6	;volatile
  1126                           
  1127                           ;ADC_LIB.c: 20:             ADCON0bits.ADCS1 = 0;
  1128  0F05  139F               	bcf	31,7	;volatile
  1129                           
  1130                           ;ADC_LIB.c: 21:             break;
  1131  0F06  2F23               	goto	l1277
  1132  0F07                     l68:	
  1133                           ;ADC_LIB.c: 22:         case 3:
  1134                           
  1135                           
  1136                           ;ADC_LIB.c: 23:             ADCON0bits.ADCS0 = 0;
  1137  0F07  131F               	bcf	31,6	;volatile
  1138                           
  1139                           ;ADC_LIB.c: 24:             ADCON0bits.ADCS1 = 1;
  1140  0F08  179F               	bsf	31,7	;volatile
  1141                           
  1142                           ;ADC_LIB.c: 25:             break;
  1143  0F09  2F23               	goto	l1277
  1144  0F0A                     l69:	
  1145                           ;ADC_LIB.c: 26:         case 4:
  1146                           
  1147                           
  1148                           ;ADC_LIB.c: 27:             ADCON0bits.ADCS0 = 1;
  1149  0F0A  171F               	bsf	31,6	;volatile
  1150                           
  1151                           ;ADC_LIB.c: 28:             ADCON0bits.ADCS1 = 1;
  1152  0F0B  179F               	bsf	31,7	;volatile
  1153                           
  1154                           ;ADC_LIB.c: 29:             break;
  1155  0F0C  2F23               	goto	l1277
  1156  0F0D                     l1275:
  1157  0F0D  0875               	movf	start_adc@frec,w
  1158  0F0E  00F3               	movwf	??_start_adc
  1159  0F0F  01F4               	clrf	??_start_adc+1
  1160                           
  1161                           ; Switch on 2 bytes has been partitioned into a top level switch of size 1, and 1 sub-sw
      +                          itches
  1162                           ; Switch size 1, requested type "simple"
  1163                           ; Number of cases is 1, Range of values is 0 to 0
  1164                           ; switch strategies available:
  1165                           ; Name         Instructions Cycles
  1166                           ; simple_byte            4     3 (average)
  1167                           ; direct_byte           11     8 (fixed)
  1168                           ; jumptable            260     6 (fixed)
  1169                           ;	Chosen strategy is simple_byte
  1170  0F10  0874               	movf	??_start_adc+1,w
  1171  0F11  3A00               	xorlw	0	; case 0
  1172  0F12  1903               	skipnz
  1173  0F13  2F15               	goto	l1789
  1174  0F14  2F23               	goto	l1277
  1175  0F15                     l1789:
  1176                           
  1177                           ; Switch size 1, requested type "simple"
  1178                           ; Number of cases is 4, Range of values is 1 to 4
  1179                           ; switch strategies available:
  1180                           ; Name         Instructions Cycles
  1181                           ; simple_byte           13     7 (average)
  1182                           ; direct_byte           23    11 (fixed)
  1183                           ; jumptable            263     9 (fixed)
  1184                           ;	Chosen strategy is simple_byte
  1185  0F15  0873               	movf	??_start_adc,w
  1186  0F16  3A01               	xorlw	1	; case 1
  1187  0F17  1903               	skipnz
  1188  0F18  2F01               	goto	l65
  1189  0F19  3A03               	xorlw	3	; case 2
  1190  0F1A  1903               	skipnz
  1191  0F1B  2F04               	goto	l67
  1192  0F1C  3A01               	xorlw	1	; case 3
  1193  0F1D  1903               	skipnz
  1194  0F1E  2F07               	goto	l68
  1195  0F1F  3A07               	xorlw	7	; case 4
  1196  0F20  1903               	skipnz
  1197  0F21  2F0A               	goto	l69
  1198  0F22  2F23               	goto	l1277
  1199  0F23                     l1277:
  1200                           
  1201                           ;ADC_LIB.c: 31:     if (isr == 1) {
  1202  0F23  0370               	decf	start_adc@isr,w
  1203  0F24  1D03               	btfss	3,2
  1204  0F25  2F27               	goto	u1011
  1205  0F26  2F28               	goto	u1010
  1206  0F27                     u1011:
  1207  0F27  2F2E               	goto	l1281
  1208  0F28                     u1010:
  1209  0F28                     l1279:
  1210                           
  1211                           ;ADC_LIB.c: 32:         PIE1bits.ADIE = 1;
  1212  0F28  1683               	bsf	3,5	;RP0=1, select bank1
  1213  0F29  1303               	bcf	3,6	;RP1=0, select bank1
  1214  0F2A  170C               	bsf	12,6	;volatile
  1215                           
  1216                           ;ADC_LIB.c: 33:         PIR1bits.ADIF = 0;
  1217  0F2B  1283               	bcf	3,5	;RP0=0, select bank0
  1218  0F2C  1303               	bcf	3,6	;RP1=0, select bank0
  1219  0F2D  130C               	bcf	12,6	;volatile
  1220  0F2E                     l1281:
  1221                           
  1222                           ;ADC_LIB.c: 35:     if (justRL == 0) {
  1223  0F2E  0872               	movf	start_adc@justRL,w
  1224  0F2F  1D03               	btfss	3,2
  1225  0F30  2F32               	goto	u1021
  1226  0F31  2F33               	goto	u1020
  1227  0F32                     u1021:
  1228  0F32  2F37               	goto	l71
  1229  0F33                     u1020:
  1230  0F33                     l1283:
  1231                           
  1232                           ;ADC_LIB.c: 36:         ADCON1bits.ADFM = 0;
  1233  0F33  1683               	bsf	3,5	;RP0=1, select bank1
  1234  0F34  1303               	bcf	3,6	;RP1=0, select bank1
  1235  0F35  139F               	bcf	31,7	;volatile
  1236                           
  1237                           ;ADC_LIB.c: 37:     } else {
  1238  0F36  2F47               	goto	l1287
  1239  0F37                     l71:
  1240                           
  1241                           ;ADC_LIB.c: 38:         ADCON1bits.ADFM = 1;
  1242  0F37  1683               	bsf	3,5	;RP0=1, select bank1
  1243  0F38  1303               	bcf	3,6	;RP1=0, select bank1
  1244  0F39  179F               	bsf	31,7	;volatile
  1245  0F3A  2F47               	goto	l1287
  1246  0F3B                     l74:	
  1247                           ;ADC_LIB.c: 41:         case 0:
  1248                           
  1249                           
  1250                           ;ADC_LIB.c: 42:             ADCON1bits.VCFG0 = 0;
  1251  0F3B  121F               	bcf	31,4	;volatile
  1252                           
  1253                           ;ADC_LIB.c: 43:             ADCON1bits.VCFG1 = 0;
  1254  0F3C  129F               	bcf	31,5	;volatile
  1255                           
  1256                           ;ADC_LIB.c: 44:             break;
  1257  0F3D  2F5D               	goto	l79
  1258  0F3E                     l76:	
  1259                           ;ADC_LIB.c: 45:         case 1:
  1260                           
  1261                           
  1262                           ;ADC_LIB.c: 46:             ADCON1bits.VCFG0 = 1;
  1263  0F3E  161F               	bsf	31,4	;volatile
  1264                           
  1265                           ;ADC_LIB.c: 47:             ADCON1bits.VCFG1 = 0;
  1266  0F3F  129F               	bcf	31,5	;volatile
  1267                           
  1268                           ;ADC_LIB.c: 48:             break;
  1269  0F40  2F5D               	goto	l79
  1270  0F41                     l77:	
  1271                           ;ADC_LIB.c: 49:         case 2:
  1272                           
  1273                           
  1274                           ;ADC_LIB.c: 50:             ADCON1bits.VCFG0 = 0;
  1275  0F41  121F               	bcf	31,4	;volatile
  1276                           
  1277                           ;ADC_LIB.c: 51:             ADCON1bits.VCFG1 = 1;
  1278  0F42  169F               	bsf	31,5	;volatile
  1279                           
  1280                           ;ADC_LIB.c: 52:             break;
  1281  0F43  2F5D               	goto	l79
  1282  0F44                     l78:	
  1283                           ;ADC_LIB.c: 53:         case 3:
  1284                           
  1285                           
  1286                           ;ADC_LIB.c: 54:             ADCON1bits.VCFG0 = 1;
  1287  0F44  161F               	bsf	31,4	;volatile
  1288                           
  1289                           ;ADC_LIB.c: 55:             ADCON1bits.VCFG1 = 1;
  1290  0F45  169F               	bsf	31,5	;volatile
  1291                           
  1292                           ;ADC_LIB.c: 56:             break;
  1293  0F46  2F5D               	goto	l79
  1294  0F47                     l1287:
  1295  0F47  0871               	movf	start_adc@Vref,w
  1296  0F48  00F3               	movwf	??_start_adc
  1297  0F49  01F4               	clrf	??_start_adc+1
  1298                           
  1299                           ; Switch on 2 bytes has been partitioned into a top level switch of size 1, and 1 sub-sw
      +                          itches
  1300                           ; Switch size 1, requested type "simple"
  1301                           ; Number of cases is 1, Range of values is 0 to 0
  1302                           ; switch strategies available:
  1303                           ; Name         Instructions Cycles
  1304                           ; simple_byte            4     3 (average)
  1305                           ; direct_byte           11     8 (fixed)
  1306                           ; jumptable            260     6 (fixed)
  1307                           ;	Chosen strategy is simple_byte
  1308  0F4A  0874               	movf	??_start_adc+1,w
  1309  0F4B  3A00               	xorlw	0	; case 0
  1310  0F4C  1903               	skipnz
  1311  0F4D  2F4F               	goto	l1791
  1312  0F4E  2F5D               	goto	l79
  1313  0F4F                     l1791:
  1314                           
  1315                           ; Switch size 1, requested type "simple"
  1316                           ; Number of cases is 4, Range of values is 0 to 3
  1317                           ; switch strategies available:
  1318                           ; Name         Instructions Cycles
  1319                           ; simple_byte           13     7 (average)
  1320                           ; direct_byte           20     8 (fixed)
  1321                           ; jumptable            260     6 (fixed)
  1322                           ;	Chosen strategy is simple_byte
  1323  0F4F  0873               	movf	??_start_adc,w
  1324  0F50  3A00               	xorlw	0	; case 0
  1325  0F51  1903               	skipnz
  1326  0F52  2F3B               	goto	l74
  1327  0F53  3A01               	xorlw	1	; case 1
  1328  0F54  1903               	skipnz
  1329  0F55  2F3E               	goto	l76
  1330  0F56  3A03               	xorlw	3	; case 2
  1331  0F57  1903               	skipnz
  1332  0F58  2F41               	goto	l77
  1333  0F59  3A01               	xorlw	1	; case 3
  1334  0F5A  1903               	skipnz
  1335  0F5B  2F44               	goto	l78
  1336  0F5C  2F5D               	goto	l79
  1337  0F5D                     l79:
  1338  0F5D  0008               	return
  1339  0F5E                     __end_of_start_adc:
  1340                           
  1341                           	psect	text3
  1342  0129                     __ptext3:	
  1343 ;; *************** function ___xxtofl *****************
  1344 ;; Defined at:
  1345 ;;		line 10 in file "C:\Program Files\Microchip\xc8\v2.31\pic\sources\c90\common\xxtofl.c"
  1346 ;; Parameters:    Size  Location     Type
  1347 ;;  sign            1    wreg     unsigned char 
  1348 ;;  val             4    0[COMMON] long 
  1349 ;; Auto vars:     Size  Location     Type
  1350 ;;  sign            1    8[COMMON] unsigned char 
  1351 ;;  arg             4   10[COMMON] unsigned long 
  1352 ;;  exp             1    9[COMMON] unsigned char 
  1353 ;; Return value:  Size  Location     Type
  1354 ;;                  4    0[COMMON] unsigned char 
  1355 ;; Registers used:
  1356 ;;		wreg, status,2, status,0
  1357 ;; Tracked objects:
  1358 ;;		On entry : 0/0
  1359 ;;		On exit  : 0/0
  1360 ;;		Unchanged: 0/0
  1361 ;; Data sizes:     COMMON   BANK0   BANK1   BANK3   BANK2
  1362 ;;      Params:         4       0       0       0       0
  1363 ;;      Locals:         6       0       0       0       0
  1364 ;;      Temps:          4       0       0       0       0
  1365 ;;      Totals:        14       0       0       0       0
  1366 ;;Total ram usage:       14 bytes
  1367 ;; Hardware stack levels used:    1
  1368 ;; This function calls:
  1369 ;;		Nothing
  1370 ;; This function is called by:
  1371 ;;		_main
  1372 ;; This function uses a non-reentrant model
  1373 ;;
  1374                           
  1375                           
  1376                           ;psect for function ___xxtofl
  1377  0129                     ___xxtofl:
  1378                           
  1379                           ;incstack = 0
  1380                           ; Regs used in ___xxtofl: [wreg+status,2+status,0]
  1381                           ;___xxtofl@sign stored from wreg
  1382  0129  00F8               	movwf	___xxtofl@sign
  1383  012A                     l1619:
  1384  012A  0878               	movf	___xxtofl@sign,w
  1385  012B  1903               	btfsc	3,2
  1386  012C  292E               	goto	u1761
  1387  012D  292F               	goto	u1760
  1388  012E                     u1761:
  1389  012E  2943               	goto	l1625
  1390  012F                     u1760:
  1391  012F                     l1621:
  1392  012F  1FF3               	btfss	___xxtofl@val+3,7
  1393  0130  2932               	goto	u1771
  1394  0131  2933               	goto	u1770
  1395  0132                     u1771:
  1396  0132  2943               	goto	l1625
  1397  0133                     u1770:
  1398  0133                     l1623:
  1399  0133  0970               	comf	___xxtofl@val,w
  1400  0134  00FA               	movwf	___xxtofl@arg
  1401  0135  0971               	comf	___xxtofl@val+1,w
  1402  0136  00FB               	movwf	___xxtofl@arg+1
  1403  0137  0972               	comf	___xxtofl@val+2,w
  1404  0138  00FC               	movwf	___xxtofl@arg+2
  1405  0139  0973               	comf	___xxtofl@val+3,w
  1406  013A  00FD               	movwf	___xxtofl@arg+3
  1407  013B  0AFA               	incf	___xxtofl@arg,f
  1408  013C  1903               	skipnz
  1409  013D  0AFB               	incf	___xxtofl@arg+1,f
  1410  013E  1903               	skipnz
  1411  013F  0AFC               	incf	___xxtofl@arg+2,f
  1412  0140  1903               	skipnz
  1413  0141  0AFD               	incf	___xxtofl@arg+3,f
  1414  0142  294B               	goto	l638
  1415  0143                     l1625:
  1416  0143  0873               	movf	___xxtofl@val+3,w
  1417  0144  00FD               	movwf	___xxtofl@arg+3
  1418  0145  0872               	movf	___xxtofl@val+2,w
  1419  0146  00FC               	movwf	___xxtofl@arg+2
  1420  0147  0871               	movf	___xxtofl@val+1,w
  1421  0148  00FB               	movwf	___xxtofl@arg+1
  1422  0149  0870               	movf	___xxtofl@val,w
  1423  014A  00FA               	movwf	___xxtofl@arg
  1424  014B                     l638:
  1425  014B  0873               	movf	___xxtofl@val+3,w
  1426  014C  0472               	iorwf	___xxtofl@val+2,w
  1427  014D  0471               	iorwf	___xxtofl@val+1,w
  1428  014E  0470               	iorwf	___xxtofl@val,w
  1429  014F  1D03               	skipz
  1430  0150  2952               	goto	u1781
  1431  0151  2953               	goto	u1780
  1432  0152                     u1781:
  1433  0152  295C               	goto	l1631
  1434  0153                     u1780:
  1435  0153                     l1627:
  1436  0153  3000               	movlw	0
  1437  0154  00F3               	movwf	?___xxtofl+3
  1438  0155  3000               	movlw	0
  1439  0156  00F2               	movwf	?___xxtofl+2
  1440  0157  3000               	movlw	0
  1441  0158  00F1               	movwf	?___xxtofl+1
  1442  0159  3000               	movlw	0
  1443  015A  00F0               	movwf	?___xxtofl
  1444  015B  29E2               	goto	l640
  1445  015C                     l1631:
  1446  015C  3096               	movlw	150
  1447  015D  00F4               	movwf	??___xxtofl
  1448  015E  0874               	movf	??___xxtofl,w
  1449  015F  00F9               	movwf	___xxtofl@exp
  1450  0160  296E               	goto	l1635
  1451  0161                     l1633:
  1452  0161  3001               	movlw	1
  1453  0162  00F4               	movwf	??___xxtofl
  1454  0163  0874               	movf	??___xxtofl,w
  1455  0164  07F9               	addwf	___xxtofl@exp,f
  1456  0165  3001               	movlw	1
  1457  0166                     u1795:
  1458  0166  1003               	clrc
  1459  0167  0CFD               	rrf	___xxtofl@arg+3,f
  1460  0168  0CFC               	rrf	___xxtofl@arg+2,f
  1461  0169  0CFB               	rrf	___xxtofl@arg+1,f
  1462  016A  0CFA               	rrf	___xxtofl@arg,f
  1463  016B  3EFF               	addlw	-1
  1464  016C  1D03               	skipz
  1465  016D  2966               	goto	u1795
  1466  016E                     l1635:
  1467  016E  30FE               	movlw	254
  1468  016F  057D               	andwf	___xxtofl@arg+3,w
  1469  0170  1D03               	btfss	3,2
  1470  0171  2973               	goto	u1801
  1471  0172  2974               	goto	u1800
  1472  0173                     u1801:
  1473  0173  2961               	goto	l1633
  1474  0174                     u1800:
  1475  0174  2990               	goto	l644
  1476  0175                     l1637:
  1477  0175  3001               	movlw	1
  1478  0176  00F4               	movwf	??___xxtofl
  1479  0177  0874               	movf	??___xxtofl,w
  1480  0178  07F9               	addwf	___xxtofl@exp,f
  1481  0179                     l1639:
  1482  0179  3001               	movlw	1
  1483  017A  07FA               	addwf	___xxtofl@arg,f
  1484  017B  3000               	movlw	0
  1485  017C  1803               	skipnc
  1486  017D  3001               	movlw	1
  1487  017E  07FB               	addwf	___xxtofl@arg+1,f
  1488  017F  3000               	movlw	0
  1489  0180  1803               	skipnc
  1490  0181  3001               	movlw	1
  1491  0182  07FC               	addwf	___xxtofl@arg+2,f
  1492  0183  3000               	movlw	0
  1493  0184  1803               	skipnc
  1494  0185  3001               	movlw	1
  1495  0186  07FD               	addwf	___xxtofl@arg+3,f
  1496  0187                     l1641:
  1497  0187  3001               	movlw	1
  1498  0188                     u1815:
  1499  0188  1003               	clrc
  1500  0189  0CFD               	rrf	___xxtofl@arg+3,f
  1501  018A  0CFC               	rrf	___xxtofl@arg+2,f
  1502  018B  0CFB               	rrf	___xxtofl@arg+1,f
  1503  018C  0CFA               	rrf	___xxtofl@arg,f
  1504  018D  3EFF               	addlw	-1
  1505  018E  1D03               	skipz
  1506  018F  2988               	goto	u1815
  1507  0190                     l644:
  1508  0190  30FF               	movlw	255
  1509  0191  057D               	andwf	___xxtofl@arg+3,w
  1510  0192  1D03               	btfss	3,2
  1511  0193  2995               	goto	u1821
  1512  0194  2996               	goto	u1820
  1513  0195                     u1821:
  1514  0195  2975               	goto	l1637
  1515  0196                     u1820:
  1516  0196  29A2               	goto	l1645
  1517  0197                     l1643:
  1518  0197  3001               	movlw	1
  1519  0198  02F9               	subwf	___xxtofl@exp,f
  1520  0199  3001               	movlw	1
  1521  019A  00F4               	movwf	??___xxtofl
  1522  019B                     u1835:
  1523  019B  1003               	clrc
  1524  019C  0DFA               	rlf	___xxtofl@arg,f
  1525  019D  0DFB               	rlf	___xxtofl@arg+1,f
  1526  019E  0DFC               	rlf	___xxtofl@arg+2,f
  1527  019F  0DFD               	rlf	___xxtofl@arg+3,f
  1528  01A0  0BF4               	decfsz	??___xxtofl,f
  1529  01A1  299B               	goto	u1835
  1530  01A2                     l1645:
  1531  01A2  1BFC               	btfsc	___xxtofl@arg+2,7
  1532  01A3  29A5               	goto	u1841
  1533  01A4  29A6               	goto	u1840
  1534  01A5                     u1841:
  1535  01A5  29AC               	goto	l651
  1536  01A6                     u1840:
  1537  01A6                     l1647:
  1538  01A6  3002               	movlw	2
  1539  01A7  0279               	subwf	___xxtofl@exp,w
  1540  01A8  1803               	skipnc
  1541  01A9  29AB               	goto	u1851
  1542  01AA  29AC               	goto	u1850
  1543  01AB                     u1851:
  1544  01AB  2997               	goto	l1643
  1545  01AC                     u1850:
  1546  01AC                     l651:
  1547  01AC  1879               	btfsc	___xxtofl@exp,0
  1548  01AD  29AF               	goto	u1861
  1549  01AE  29B0               	goto	u1860
  1550  01AF                     u1861:
  1551  01AF  29B8               	goto	l652
  1552  01B0                     u1860:
  1553  01B0                     l1649:
  1554  01B0  30FF               	movlw	255
  1555  01B1  05FA               	andwf	___xxtofl@arg,f
  1556  01B2  30FF               	movlw	255
  1557  01B3  05FB               	andwf	___xxtofl@arg+1,f
  1558  01B4  307F               	movlw	127
  1559  01B5  05FC               	andwf	___xxtofl@arg+2,f
  1560  01B6  30FF               	movlw	255
  1561  01B7  05FD               	andwf	___xxtofl@arg+3,f
  1562  01B8                     l652:
  1563  01B8  1003               	clrc
  1564  01B9  0CF9               	rrf	___xxtofl@exp,f
  1565  01BA                     l1651:
  1566  01BA  0879               	movf	___xxtofl@exp,w
  1567  01BB  00F4               	movwf	??___xxtofl
  1568  01BC  01F5               	clrf	??___xxtofl+1
  1569  01BD  01F6               	clrf	??___xxtofl+2
  1570  01BE  01F7               	clrf	??___xxtofl+3
  1571  01BF  3018               	movlw	24
  1572  01C0                     u1875:
  1573  01C0  1003               	clrc
  1574  01C1  0DF4               	rlf	??___xxtofl,f
  1575  01C2  0DF5               	rlf	??___xxtofl+1,f
  1576  01C3  0DF6               	rlf	??___xxtofl+2,f
  1577  01C4  0DF7               	rlf	??___xxtofl+3,f
  1578  01C5                     u1870:
  1579  01C5  3EFF               	addlw	-1
  1580  01C6  1D03               	skipz
  1581  01C7  29C0               	goto	u1875
  1582  01C8  0874               	movf	??___xxtofl,w
  1583  01C9  04FA               	iorwf	___xxtofl@arg,f
  1584  01CA  0875               	movf	??___xxtofl+1,w
  1585  01CB  04FB               	iorwf	___xxtofl@arg+1,f
  1586  01CC  0876               	movf	??___xxtofl+2,w
  1587  01CD  04FC               	iorwf	___xxtofl@arg+2,f
  1588  01CE  0877               	movf	??___xxtofl+3,w
  1589  01CF  04FD               	iorwf	___xxtofl@arg+3,f
  1590  01D0                     l1653:
  1591  01D0  0878               	movf	___xxtofl@sign,w
  1592  01D1  1903               	btfsc	3,2
  1593  01D2  29D4               	goto	u1881
  1594  01D3  29D5               	goto	u1880
  1595  01D4                     u1881:
  1596  01D4  29DA               	goto	l1659
  1597  01D5                     u1880:
  1598  01D5                     l1655:
  1599  01D5  1FF3               	btfss	___xxtofl@val+3,7
  1600  01D6  29D8               	goto	u1891
  1601  01D7  29D9               	goto	u1890
  1602  01D8                     u1891:
  1603  01D8  29DA               	goto	l1659
  1604  01D9                     u1890:
  1605  01D9                     l1657:
  1606  01D9  17FD               	bsf	___xxtofl@arg+3,7
  1607  01DA                     l1659:
  1608  01DA  087D               	movf	___xxtofl@arg+3,w
  1609  01DB  00F3               	movwf	?___xxtofl+3
  1610  01DC  087C               	movf	___xxtofl@arg+2,w
  1611  01DD  00F2               	movwf	?___xxtofl+2
  1612  01DE  087B               	movf	___xxtofl@arg+1,w
  1613  01DF  00F1               	movwf	?___xxtofl+1
  1614  01E0  087A               	movf	___xxtofl@arg,w
  1615  01E1  00F0               	movwf	?___xxtofl
  1616  01E2                     l640:
  1617  01E2  0008               	return
  1618  01E3                     __end_of___xxtofl:
  1619                           
  1620                           	psect	text4
  1621  0494                     __ptext4:	
  1622 ;; *************** function ___flmul *****************
  1623 ;; Defined at:
  1624 ;;		line 8 in file "C:\Program Files\Microchip\xc8\v2.31\pic\sources\c90\common\sprcmul.c"
  1625 ;; Parameters:    Size  Location     Type
  1626 ;;  b               4   26[BANK0 ] unsigned char 
  1627 ;;  a               4   30[BANK0 ] unsigned char 
  1628 ;; Auto vars:     Size  Location     Type
  1629 ;;  prod            4   46[BANK0 ] struct .
  1630 ;;  grs             4   40[BANK0 ] unsigned long 
  1631 ;;  temp            2   50[BANK0 ] struct .
  1632 ;;  bexp            1   45[BANK0 ] unsigned char 
  1633 ;;  aexp            1   44[BANK0 ] unsigned char 
  1634 ;;  sign            1   39[BANK0 ] unsigned char 
  1635 ;; Return value:  Size  Location     Type
  1636 ;;                  4   26[BANK0 ] unsigned char 
  1637 ;; Registers used:
  1638 ;;		wreg, status,2, status,0, btemp+1, pclath, cstack
  1639 ;; Tracked objects:
  1640 ;;		On entry : 0/0
  1641 ;;		On exit  : 0/0
  1642 ;;		Unchanged: 0/0
  1643 ;; Data sizes:     COMMON   BANK0   BANK1   BANK3   BANK2
  1644 ;;      Params:         0       8       0       0       0
  1645 ;;      Locals:         0      13       0       0       0
  1646 ;;      Temps:          0       5       0       0       0
  1647 ;;      Totals:         0      26       0       0       0
  1648 ;;Total ram usage:       26 bytes
  1649 ;; Hardware stack levels used:    1
  1650 ;; Hardware stack levels required when called:    1
  1651 ;; This function calls:
  1652 ;;		__Umul8_16
  1653 ;; This function is called by:
  1654 ;;		_main
  1655 ;; This function uses a non-reentrant model
  1656 ;;
  1657                           
  1658                           
  1659                           ;psect for function ___flmul
  1660  0494                     ___flmul:
  1661  0494                     l1479:	
  1662                           ;incstack = 0
  1663                           ; Regs used in ___flmul: [wreg+status,2+status,0+btemp+1+pclath+cstack]
  1664                           
  1665  0494  1283               	bcf	3,5	;RP0=0, select bank0
  1666  0495  1303               	bcf	3,6	;RP1=0, select bank0
  1667  0496  083D               	movf	___flmul@b+3,w
  1668  0497  3980               	andlw	128
  1669  0498  00C2               	movwf	??___flmul
  1670  0499  0842               	movf	??___flmul,w
  1671  049A  00C7               	movwf	___flmul@sign
  1672  049B                     l1481:
  1673  049B  083D               	movf	___flmul@b+3,w
  1674  049C  00C2               	movwf	??___flmul
  1675  049D  0742               	addwf	??___flmul,w
  1676  049E  00C3               	movwf	??___flmul+1
  1677  049F  0843               	movf	??___flmul+1,w
  1678  04A0  00CD               	movwf	___flmul@bexp
  1679  04A1                     l1483:
  1680  04A1  1FBC               	btfss	___flmul@b+2,7
  1681  04A2  2CA4               	goto	u1391
  1682  04A3  2CA5               	goto	u1390
  1683  04A4                     u1391:
  1684  04A4  2CA6               	goto	l1487
  1685  04A5                     u1390:
  1686  04A5                     l1485:
  1687  04A5  144D               	bsf	___flmul@bexp,0
  1688  04A6                     l1487:
  1689  04A6  084D               	movf	___flmul@bexp,w
  1690  04A7  1903               	btfsc	3,2
  1691  04A8  2CAA               	goto	u1401
  1692  04A9  2CAB               	goto	u1400
  1693  04AA                     u1401:
  1694  04AA  2CBA               	goto	l1495
  1695  04AB                     u1400:
  1696  04AB                     l1489:
  1697  04AB  0A4D               	incf	___flmul@bexp,w
  1698  04AC  1D03               	btfss	3,2
  1699  04AD  2CAF               	goto	u1411
  1700  04AE  2CB0               	goto	u1410
  1701  04AF                     u1411:
  1702  04AF  2CB8               	goto	l1493
  1703  04B0                     u1410:
  1704  04B0                     l1491:
  1705  04B0  3000               	movlw	0
  1706  04B1  00BD               	movwf	___flmul@b+3
  1707  04B2  3000               	movlw	0
  1708  04B3  00BC               	movwf	___flmul@b+2
  1709  04B4  3000               	movlw	0
  1710  04B5  00BB               	movwf	___flmul@b+1
  1711  04B6  3000               	movlw	0
  1712  04B7  00BA               	movwf	___flmul@b
  1713  04B8                     l1493:
  1714  04B8  17BC               	bsf	___flmul@b+2,7
  1715  04B9  2CC2               	goto	l1497
  1716  04BA                     l1495:
  1717  04BA  3000               	movlw	0
  1718  04BB  00BD               	movwf	___flmul@b+3
  1719  04BC  3000               	movlw	0
  1720  04BD  00BC               	movwf	___flmul@b+2
  1721  04BE  3000               	movlw	0
  1722  04BF  00BB               	movwf	___flmul@b+1
  1723  04C0  3000               	movlw	0
  1724  04C1  00BA               	movwf	___flmul@b
  1725  04C2                     l1497:
  1726  04C2  0841               	movf	___flmul@a+3,w
  1727  04C3  3980               	andlw	128
  1728  04C4  00C2               	movwf	??___flmul
  1729  04C5  0842               	movf	??___flmul,w
  1730  04C6  06C7               	xorwf	___flmul@sign,f
  1731  04C7                     l1499:
  1732  04C7  0841               	movf	___flmul@a+3,w
  1733  04C8  00C2               	movwf	??___flmul
  1734  04C9  0742               	addwf	??___flmul,w
  1735  04CA  00C3               	movwf	??___flmul+1
  1736  04CB  0843               	movf	??___flmul+1,w
  1737  04CC  00CC               	movwf	___flmul@aexp
  1738  04CD                     l1501:
  1739  04CD  1FC0               	btfss	___flmul@a+2,7
  1740  04CE  2CD0               	goto	u1421
  1741  04CF  2CD1               	goto	u1420
  1742  04D0                     u1421:
  1743  04D0  2CD2               	goto	l1505
  1744  04D1                     u1420:
  1745  04D1                     l1503:
  1746  04D1  144C               	bsf	___flmul@aexp,0
  1747  04D2                     l1505:
  1748  04D2  084C               	movf	___flmul@aexp,w
  1749  04D3  1903               	btfsc	3,2
  1750  04D4  2CD6               	goto	u1431
  1751  04D5  2CD7               	goto	u1430
  1752  04D6                     u1431:
  1753  04D6  2CE6               	goto	l1513
  1754  04D7                     u1430:
  1755  04D7                     l1507:
  1756  04D7  0A4C               	incf	___flmul@aexp,w
  1757  04D8  1D03               	btfss	3,2
  1758  04D9  2CDB               	goto	u1441
  1759  04DA  2CDC               	goto	u1440
  1760  04DB                     u1441:
  1761  04DB  2CE4               	goto	l1511
  1762  04DC                     u1440:
  1763  04DC                     l1509:
  1764  04DC  3000               	movlw	0
  1765  04DD  00C1               	movwf	___flmul@a+3
  1766  04DE  3000               	movlw	0
  1767  04DF  00C0               	movwf	___flmul@a+2
  1768  04E0  3000               	movlw	0
  1769  04E1  00BF               	movwf	___flmul@a+1
  1770  04E2  3000               	movlw	0
  1771  04E3  00BE               	movwf	___flmul@a
  1772  04E4                     l1511:
  1773  04E4  17C0               	bsf	___flmul@a+2,7
  1774  04E5  2CEE               	goto	l1515
  1775  04E6                     l1513:
  1776  04E6  3000               	movlw	0
  1777  04E7  00C1               	movwf	___flmul@a+3
  1778  04E8  3000               	movlw	0
  1779  04E9  00C0               	movwf	___flmul@a+2
  1780  04EA  3000               	movlw	0
  1781  04EB  00BF               	movwf	___flmul@a+1
  1782  04EC  3000               	movlw	0
  1783  04ED  00BE               	movwf	___flmul@a
  1784  04EE                     l1515:
  1785  04EE  084C               	movf	___flmul@aexp,w
  1786  04EF  1903               	btfsc	3,2
  1787  04F0  2CF2               	goto	u1451
  1788  04F1  2CF3               	goto	u1450
  1789  04F2                     u1451:
  1790  04F2  2CF8               	goto	l1519
  1791  04F3                     u1450:
  1792  04F3                     l1517:
  1793  04F3  084D               	movf	___flmul@bexp,w
  1794  04F4  1D03               	btfss	3,2
  1795  04F5  2CF7               	goto	u1461
  1796  04F6  2CF8               	goto	u1460
  1797  04F7                     u1461:
  1798  04F7  2D01               	goto	l1523
  1799  04F8                     u1460:
  1800  04F8                     l1519:
  1801  04F8  3000               	movlw	0
  1802  04F9  00BD               	movwf	?___flmul+3
  1803  04FA  3000               	movlw	0
  1804  04FB  00BC               	movwf	?___flmul+2
  1805  04FC  3000               	movlw	0
  1806  04FD  00BB               	movwf	?___flmul+1
  1807  04FE  3000               	movlw	0
  1808  04FF  00BA               	movwf	?___flmul
  1809  0500  2FF4               	goto	l594
  1810  0501                     l1523:
  1811  0501  083A               	movf	___flmul@b,w
  1812  0502  00C2               	movwf	??___flmul
  1813  0503  0842               	movf	??___flmul,w
  1814  0504  00F0               	movwf	__Umul8_16@multiplicand
  1815  0505  0840               	movf	___flmul@a+2,w
  1816  0506  120A  158A  26D5  120A  118A  	fcall	__Umul8_16
  1817  050B  0871               	movf	?__Umul8_16+1,w
  1818  050C  1283               	bcf	3,5	;RP0=0, select bank0
  1819  050D  1303               	bcf	3,6	;RP1=0, select bank0
  1820  050E  00D3               	movwf	___flmul@temp+1
  1821  050F  0870               	movf	?__Umul8_16,w
  1822  0510  00D2               	movwf	___flmul@temp
  1823  0511                     l1525:
  1824  0511  0852               	movf	___flmul@temp,w
  1825  0512  00C2               	movwf	??___flmul
  1826  0513  01C3               	clrf	??___flmul+1
  1827  0514  01C4               	clrf	??___flmul+2
  1828  0515  01C5               	clrf	??___flmul+3
  1829  0516  0845               	movf	??___flmul+3,w
  1830  0517  00CB               	movwf	___flmul@grs+3
  1831  0518  0844               	movf	??___flmul+2,w
  1832  0519  00CA               	movwf	___flmul@grs+2
  1833  051A  0843               	movf	??___flmul+1,w
  1834  051B  00C9               	movwf	___flmul@grs+1
  1835  051C  0842               	movf	??___flmul,w
  1836  051D  00C8               	movwf	___flmul@grs
  1837  051E                     l1527:
  1838  051E  0853               	movf	___flmul@temp+1,w
  1839  051F  00C2               	movwf	??___flmul
  1840  0520  01C3               	clrf	??___flmul+1
  1841  0521  01C4               	clrf	??___flmul+2
  1842  0522  01C5               	clrf	??___flmul+3
  1843  0523  0845               	movf	??___flmul+3,w
  1844  0524  00D1               	movwf	___flmul@prod+3
  1845  0525  0844               	movf	??___flmul+2,w
  1846  0526  00D0               	movwf	___flmul@prod+2
  1847  0527  0843               	movf	??___flmul+1,w
  1848  0528  00CF               	movwf	___flmul@prod+1
  1849  0529  0842               	movf	??___flmul,w
  1850  052A  00CE               	movwf	___flmul@prod
  1851  052B  083B               	movf	___flmul@b+1,w
  1852  052C  00C2               	movwf	??___flmul
  1853  052D  0842               	movf	??___flmul,w
  1854  052E  00F0               	movwf	__Umul8_16@multiplicand
  1855  052F  083F               	movf	___flmul@a+1,w
  1856  0530  120A  158A  26D5  120A  118A  	fcall	__Umul8_16
  1857  0535  0871               	movf	?__Umul8_16+1,w
  1858  0536  1283               	bcf	3,5	;RP0=0, select bank0
  1859  0537  1303               	bcf	3,6	;RP1=0, select bank0
  1860  0538  00D3               	movwf	___flmul@temp+1
  1861  0539  0870               	movf	?__Umul8_16,w
  1862  053A  00D2               	movwf	___flmul@temp
  1863  053B                     l1529:
  1864  053B  0852               	movf	___flmul@temp,w
  1865  053C  00C2               	movwf	??___flmul
  1866  053D  01C3               	clrf	??___flmul+1
  1867  053E  01C4               	clrf	??___flmul+2
  1868  053F  01C5               	clrf	??___flmul+3
  1869  0540  0842               	movf	??___flmul,w
  1870  0541  07C8               	addwf	___flmul@grs,f
  1871  0542  0843               	movf	??___flmul+1,w
  1872  0543  1103               	clrz
  1873  0544  1803               	skipnc
  1874  0545  3E01               	addlw	1
  1875  0546  1903               	skipnz
  1876  0547  2D49               	goto	u1471
  1877  0548  07C9               	addwf	___flmul@grs+1,f
  1878  0549                     u1471:
  1879  0549  0844               	movf	??___flmul+2,w
  1880  054A  1103               	clrz
  1881  054B  1803               	skipnc
  1882  054C  3E01               	addlw	1
  1883  054D  1903               	skipnz
  1884  054E  2D50               	goto	u1472
  1885  054F  07CA               	addwf	___flmul@grs+2,f
  1886  0550                     u1472:
  1887  0550  0845               	movf	??___flmul+3,w
  1888  0551  1103               	clrz
  1889  0552  1803               	skipnc
  1890  0553  3E01               	addlw	1
  1891  0554  1903               	skipnz
  1892  0555  2D57               	goto	u1473
  1893  0556  07CB               	addwf	___flmul@grs+3,f
  1894  0557                     u1473:
  1895  0557                     l1531:
  1896  0557  0853               	movf	___flmul@temp+1,w
  1897  0558  00C2               	movwf	??___flmul
  1898  0559  01C3               	clrf	??___flmul+1
  1899  055A  01C4               	clrf	??___flmul+2
  1900  055B  01C5               	clrf	??___flmul+3
  1901  055C  0842               	movf	??___flmul,w
  1902  055D  07CE               	addwf	___flmul@prod,f
  1903  055E  0843               	movf	??___flmul+1,w
  1904  055F  1103               	clrz
  1905  0560  1803               	skipnc
  1906  0561  3E01               	addlw	1
  1907  0562  1903               	skipnz
  1908  0563  2D65               	goto	u1481
  1909  0564  07CF               	addwf	___flmul@prod+1,f
  1910  0565                     u1481:
  1911  0565  0844               	movf	??___flmul+2,w
  1912  0566  1103               	clrz
  1913  0567  1803               	skipnc
  1914  0568  3E01               	addlw	1
  1915  0569  1903               	skipnz
  1916  056A  2D6C               	goto	u1482
  1917  056B  07D0               	addwf	___flmul@prod+2,f
  1918  056C                     u1482:
  1919  056C  0845               	movf	??___flmul+3,w
  1920  056D  1103               	clrz
  1921  056E  1803               	skipnc
  1922  056F  3E01               	addlw	1
  1923  0570  1903               	skipnz
  1924  0571  2D73               	goto	u1483
  1925  0572  07D1               	addwf	___flmul@prod+3,f
  1926  0573                     u1483:
  1927  0573  083C               	movf	___flmul@b+2,w
  1928  0574  00C2               	movwf	??___flmul
  1929  0575  0842               	movf	??___flmul,w
  1930  0576  00F0               	movwf	__Umul8_16@multiplicand
  1931  0577  083E               	movf	___flmul@a,w
  1932  0578  120A  158A  26D5  120A  118A  	fcall	__Umul8_16
  1933  057D  0871               	movf	?__Umul8_16+1,w
  1934  057E  1283               	bcf	3,5	;RP0=0, select bank0
  1935  057F  1303               	bcf	3,6	;RP1=0, select bank0
  1936  0580  00D3               	movwf	___flmul@temp+1
  1937  0581  0870               	movf	?__Umul8_16,w
  1938  0582  00D2               	movwf	___flmul@temp
  1939  0583                     l1533:
  1940  0583  0852               	movf	___flmul@temp,w
  1941  0584  00C2               	movwf	??___flmul
  1942  0585  01C3               	clrf	??___flmul+1
  1943  0586  01C4               	clrf	??___flmul+2
  1944  0587  01C5               	clrf	??___flmul+3
  1945  0588  0842               	movf	??___flmul,w
  1946  0589  07C8               	addwf	___flmul@grs,f
  1947  058A  0843               	movf	??___flmul+1,w
  1948  058B  1103               	clrz
  1949  058C  1803               	skipnc
  1950  058D  3E01               	addlw	1
  1951  058E  1903               	skipnz
  1952  058F  2D91               	goto	u1491
  1953  0590  07C9               	addwf	___flmul@grs+1,f
  1954  0591                     u1491:
  1955  0591  0844               	movf	??___flmul+2,w
  1956  0592  1103               	clrz
  1957  0593  1803               	skipnc
  1958  0594  3E01               	addlw	1
  1959  0595  1903               	skipnz
  1960  0596  2D98               	goto	u1492
  1961  0597  07CA               	addwf	___flmul@grs+2,f
  1962  0598                     u1492:
  1963  0598  0845               	movf	??___flmul+3,w
  1964  0599  1103               	clrz
  1965  059A  1803               	skipnc
  1966  059B  3E01               	addlw	1
  1967  059C  1903               	skipnz
  1968  059D  2D9F               	goto	u1493
  1969  059E  07CB               	addwf	___flmul@grs+3,f
  1970  059F                     u1493:
  1971  059F                     l1535:
  1972  059F  0853               	movf	___flmul@temp+1,w
  1973  05A0  00C2               	movwf	??___flmul
  1974  05A1  01C3               	clrf	??___flmul+1
  1975  05A2  01C4               	clrf	??___flmul+2
  1976  05A3  01C5               	clrf	??___flmul+3
  1977  05A4  0842               	movf	??___flmul,w
  1978  05A5  07CE               	addwf	___flmul@prod,f
  1979  05A6  0843               	movf	??___flmul+1,w
  1980  05A7  1103               	clrz
  1981  05A8  1803               	skipnc
  1982  05A9  3E01               	addlw	1
  1983  05AA  1903               	skipnz
  1984  05AB  2DAD               	goto	u1501
  1985  05AC  07CF               	addwf	___flmul@prod+1,f
  1986  05AD                     u1501:
  1987  05AD  0844               	movf	??___flmul+2,w
  1988  05AE  1103               	clrz
  1989  05AF  1803               	skipnc
  1990  05B0  3E01               	addlw	1
  1991  05B1  1903               	skipnz
  1992  05B2  2DB4               	goto	u1502
  1993  05B3  07D0               	addwf	___flmul@prod+2,f
  1994  05B4                     u1502:
  1995  05B4  0845               	movf	??___flmul+3,w
  1996  05B5  1103               	clrz
  1997  05B6  1803               	skipnc
  1998  05B7  3E01               	addlw	1
  1999  05B8  1903               	skipnz
  2000  05B9  2DBB               	goto	u1503
  2001  05BA  07D1               	addwf	___flmul@prod+3,f
  2002  05BB                     u1503:
  2003  05BB                     l1537:
  2004  05BB  3008               	movlw	8
  2005  05BC  00C2               	movwf	??___flmul
  2006  05BD                     u1515:
  2007  05BD  1003               	clrc
  2008  05BE  0DC8               	rlf	___flmul@grs,f
  2009  05BF  0DC9               	rlf	___flmul@grs+1,f
  2010  05C0  0DCA               	rlf	___flmul@grs+2,f
  2011  05C1  0DCB               	rlf	___flmul@grs+3,f
  2012  05C2  0BC2               	decfsz	??___flmul,f
  2013  05C3  2DBD               	goto	u1515
  2014  05C4                     l1539:
  2015  05C4  083B               	movf	___flmul@b+1,w
  2016  05C5  00C2               	movwf	??___flmul
  2017  05C6  0842               	movf	??___flmul,w
  2018  05C7  00F0               	movwf	__Umul8_16@multiplicand
  2019  05C8  083E               	movf	___flmul@a,w
  2020  05C9  120A  158A  26D5  120A  118A  	fcall	__Umul8_16
  2021  05CE  0871               	movf	?__Umul8_16+1,w
  2022  05CF  1283               	bcf	3,5	;RP0=0, select bank0
  2023  05D0  1303               	bcf	3,6	;RP1=0, select bank0
  2024  05D1  00D3               	movwf	___flmul@temp+1
  2025  05D2  0870               	movf	?__Umul8_16,w
  2026  05D3  00D2               	movwf	___flmul@temp
  2027  05D4                     l1541:
  2028  05D4  0852               	movf	___flmul@temp,w
  2029  05D5  00C2               	movwf	??___flmul
  2030  05D6  0853               	movf	___flmul@temp+1,w
  2031  05D7  00C3               	movwf	??___flmul+1
  2032  05D8  01C4               	clrf	??___flmul+2
  2033  05D9  01C5               	clrf	??___flmul+3
  2034  05DA  0842               	movf	??___flmul,w
  2035  05DB  07C8               	addwf	___flmul@grs,f
  2036  05DC  0843               	movf	??___flmul+1,w
  2037  05DD  1103               	clrz
  2038  05DE  1803               	skipnc
  2039  05DF  3E01               	addlw	1
  2040  05E0  1903               	skipnz
  2041  05E1  2DE3               	goto	u1521
  2042  05E2  07C9               	addwf	___flmul@grs+1,f
  2043  05E3                     u1521:
  2044  05E3  0844               	movf	??___flmul+2,w
  2045  05E4  1103               	clrz
  2046  05E5  1803               	skipnc
  2047  05E6  3E01               	addlw	1
  2048  05E7  1903               	skipnz
  2049  05E8  2DEA               	goto	u1522
  2050  05E9  07CA               	addwf	___flmul@grs+2,f
  2051  05EA                     u1522:
  2052  05EA  0845               	movf	??___flmul+3,w
  2053  05EB  1103               	clrz
  2054  05EC  1803               	skipnc
  2055  05ED  3E01               	addlw	1
  2056  05EE  1903               	skipnz
  2057  05EF  2DF1               	goto	u1523
  2058  05F0  07CB               	addwf	___flmul@grs+3,f
  2059  05F1                     u1523:
  2060  05F1                     l1543:
  2061  05F1  083A               	movf	___flmul@b,w
  2062  05F2  00C2               	movwf	??___flmul
  2063  05F3  0842               	movf	??___flmul,w
  2064  05F4  00F0               	movwf	__Umul8_16@multiplicand
  2065  05F5  083F               	movf	___flmul@a+1,w
  2066  05F6  120A  158A  26D5  120A  118A  	fcall	__Umul8_16
  2067  05FB  0871               	movf	?__Umul8_16+1,w
  2068  05FC  1283               	bcf	3,5	;RP0=0, select bank0
  2069  05FD  1303               	bcf	3,6	;RP1=0, select bank0
  2070  05FE  00D3               	movwf	___flmul@temp+1
  2071  05FF  0870               	movf	?__Umul8_16,w
  2072  0600  00D2               	movwf	___flmul@temp
  2073  0601                     l1545:
  2074  0601  0852               	movf	___flmul@temp,w
  2075  0602  00C2               	movwf	??___flmul
  2076  0603  0853               	movf	___flmul@temp+1,w
  2077  0604  00C3               	movwf	??___flmul+1
  2078  0605  01C4               	clrf	??___flmul+2
  2079  0606  01C5               	clrf	??___flmul+3
  2080  0607  0842               	movf	??___flmul,w
  2081  0608  07C8               	addwf	___flmul@grs,f
  2082  0609  0843               	movf	??___flmul+1,w
  2083  060A  1103               	clrz
  2084  060B  1803               	skipnc
  2085  060C  3E01               	addlw	1
  2086  060D  1903               	skipnz
  2087  060E  2E10               	goto	u1531
  2088  060F  07C9               	addwf	___flmul@grs+1,f
  2089  0610                     u1531:
  2090  0610  0844               	movf	??___flmul+2,w
  2091  0611  1103               	clrz
  2092  0612  1803               	skipnc
  2093  0613  3E01               	addlw	1
  2094  0614  1903               	skipnz
  2095  0615  2E17               	goto	u1532
  2096  0616  07CA               	addwf	___flmul@grs+2,f
  2097  0617                     u1532:
  2098  0617  0845               	movf	??___flmul+3,w
  2099  0618  1103               	clrz
  2100  0619  1803               	skipnc
  2101  061A  3E01               	addlw	1
  2102  061B  1903               	skipnz
  2103  061C  2E1E               	goto	u1533
  2104  061D  07CB               	addwf	___flmul@grs+3,f
  2105  061E                     u1533:
  2106  061E                     l1547:
  2107  061E  3008               	movlw	8
  2108  061F  00C2               	movwf	??___flmul
  2109  0620                     u1545:
  2110  0620  1003               	clrc
  2111  0621  0DC8               	rlf	___flmul@grs,f
  2112  0622  0DC9               	rlf	___flmul@grs+1,f
  2113  0623  0DCA               	rlf	___flmul@grs+2,f
  2114  0624  0DCB               	rlf	___flmul@grs+3,f
  2115  0625  0BC2               	decfsz	??___flmul,f
  2116  0626  2E20               	goto	u1545
  2117  0627  083A               	movf	___flmul@b,w
  2118  0628  00C2               	movwf	??___flmul
  2119  0629  0842               	movf	??___flmul,w
  2120  062A  00F0               	movwf	__Umul8_16@multiplicand
  2121  062B  083E               	movf	___flmul@a,w
  2122  062C  120A  158A  26D5  120A  118A  	fcall	__Umul8_16
  2123  0631  0871               	movf	?__Umul8_16+1,w
  2124  0632  1283               	bcf	3,5	;RP0=0, select bank0
  2125  0633  1303               	bcf	3,6	;RP1=0, select bank0
  2126  0634  00D3               	movwf	___flmul@temp+1
  2127  0635  0870               	movf	?__Umul8_16,w
  2128  0636  00D2               	movwf	___flmul@temp
  2129  0637                     l1549:
  2130  0637  0852               	movf	___flmul@temp,w
  2131  0638  00C2               	movwf	??___flmul
  2132  0639  0853               	movf	___flmul@temp+1,w
  2133  063A  00C3               	movwf	??___flmul+1
  2134  063B  01C4               	clrf	??___flmul+2
  2135  063C  01C5               	clrf	??___flmul+3
  2136  063D  0842               	movf	??___flmul,w
  2137  063E  07C8               	addwf	___flmul@grs,f
  2138  063F  0843               	movf	??___flmul+1,w
  2139  0640  1103               	clrz
  2140  0641  1803               	skipnc
  2141  0642  3E01               	addlw	1
  2142  0643  1903               	skipnz
  2143  0644  2E46               	goto	u1551
  2144  0645  07C9               	addwf	___flmul@grs+1,f
  2145  0646                     u1551:
  2146  0646  0844               	movf	??___flmul+2,w
  2147  0647  1103               	clrz
  2148  0648  1803               	skipnc
  2149  0649  3E01               	addlw	1
  2150  064A  1903               	skipnz
  2151  064B  2E4D               	goto	u1552
  2152  064C  07CA               	addwf	___flmul@grs+2,f
  2153  064D                     u1552:
  2154  064D  0845               	movf	??___flmul+3,w
  2155  064E  1103               	clrz
  2156  064F  1803               	skipnc
  2157  0650  3E01               	addlw	1
  2158  0651  1903               	skipnz
  2159  0652  2E54               	goto	u1553
  2160  0653  07CB               	addwf	___flmul@grs+3,f
  2161  0654                     u1553:
  2162  0654                     l1551:
  2163  0654  083B               	movf	___flmul@b+1,w
  2164  0655  00C2               	movwf	??___flmul
  2165  0656  0842               	movf	??___flmul,w
  2166  0657  00F0               	movwf	__Umul8_16@multiplicand
  2167  0658  0840               	movf	___flmul@a+2,w
  2168  0659  120A  158A  26D5  120A  118A  	fcall	__Umul8_16
  2169  065E  0871               	movf	?__Umul8_16+1,w
  2170  065F  1283               	bcf	3,5	;RP0=0, select bank0
  2171  0660  1303               	bcf	3,6	;RP1=0, select bank0
  2172  0661  00D3               	movwf	___flmul@temp+1
  2173  0662  0870               	movf	?__Umul8_16,w
  2174  0663  00D2               	movwf	___flmul@temp
  2175  0664  0852               	movf	___flmul@temp,w
  2176  0665  00C2               	movwf	??___flmul
  2177  0666  0853               	movf	___flmul@temp+1,w
  2178  0667  00C3               	movwf	??___flmul+1
  2179  0668  01C4               	clrf	??___flmul+2
  2180  0669  01C5               	clrf	??___flmul+3
  2181  066A  0842               	movf	??___flmul,w
  2182  066B  07CE               	addwf	___flmul@prod,f
  2183  066C  0843               	movf	??___flmul+1,w
  2184  066D  1103               	clrz
  2185  066E  1803               	skipnc
  2186  066F  3E01               	addlw	1
  2187  0670  1903               	skipnz
  2188  0671  2E73               	goto	u1561
  2189  0672  07CF               	addwf	___flmul@prod+1,f
  2190  0673                     u1561:
  2191  0673  0844               	movf	??___flmul+2,w
  2192  0674  1103               	clrz
  2193  0675  1803               	skipnc
  2194  0676  3E01               	addlw	1
  2195  0677  1903               	skipnz
  2196  0678  2E7A               	goto	u1562
  2197  0679  07D0               	addwf	___flmul@prod+2,f
  2198  067A                     u1562:
  2199  067A  0845               	movf	??___flmul+3,w
  2200  067B  1103               	clrz
  2201  067C  1803               	skipnc
  2202  067D  3E01               	addlw	1
  2203  067E  1903               	skipnz
  2204  067F  2E81               	goto	u1563
  2205  0680  07D1               	addwf	___flmul@prod+3,f
  2206  0681                     u1563:
  2207  0681                     l1553:
  2208  0681  083C               	movf	___flmul@b+2,w
  2209  0682  00C2               	movwf	??___flmul
  2210  0683  0842               	movf	??___flmul,w
  2211  0684  00F0               	movwf	__Umul8_16@multiplicand
  2212  0685  083F               	movf	___flmul@a+1,w
  2213  0686  120A  158A  26D5  120A  118A  	fcall	__Umul8_16
  2214  068B  0871               	movf	?__Umul8_16+1,w
  2215  068C  1283               	bcf	3,5	;RP0=0, select bank0
  2216  068D  1303               	bcf	3,6	;RP1=0, select bank0
  2217  068E  00D3               	movwf	___flmul@temp+1
  2218  068F  0870               	movf	?__Umul8_16,w
  2219  0690  00D2               	movwf	___flmul@temp
  2220  0691                     l1555:
  2221  0691  0852               	movf	___flmul@temp,w
  2222  0692  00C2               	movwf	??___flmul
  2223  0693  0853               	movf	___flmul@temp+1,w
  2224  0694  00C3               	movwf	??___flmul+1
  2225  0695  01C4               	clrf	??___flmul+2
  2226  0696  01C5               	clrf	??___flmul+3
  2227  0697  0842               	movf	??___flmul,w
  2228  0698  07CE               	addwf	___flmul@prod,f
  2229  0699  0843               	movf	??___flmul+1,w
  2230  069A  1103               	clrz
  2231  069B  1803               	skipnc
  2232  069C  3E01               	addlw	1
  2233  069D  1903               	skipnz
  2234  069E  2EA0               	goto	u1571
  2235  069F  07CF               	addwf	___flmul@prod+1,f
  2236  06A0                     u1571:
  2237  06A0  0844               	movf	??___flmul+2,w
  2238  06A1  1103               	clrz
  2239  06A2  1803               	skipnc
  2240  06A3  3E01               	addlw	1
  2241  06A4  1903               	skipnz
  2242  06A5  2EA7               	goto	u1572
  2243  06A6  07D0               	addwf	___flmul@prod+2,f
  2244  06A7                     u1572:
  2245  06A7  0845               	movf	??___flmul+3,w
  2246  06A8  1103               	clrz
  2247  06A9  1803               	skipnc
  2248  06AA  3E01               	addlw	1
  2249  06AB  1903               	skipnz
  2250  06AC  2EAE               	goto	u1573
  2251  06AD  07D1               	addwf	___flmul@prod+3,f
  2252  06AE                     u1573:
  2253  06AE  083C               	movf	___flmul@b+2,w
  2254  06AF  00C2               	movwf	??___flmul
  2255  06B0  0842               	movf	??___flmul,w
  2256  06B1  00F0               	movwf	__Umul8_16@multiplicand
  2257  06B2  0840               	movf	___flmul@a+2,w
  2258  06B3  120A  158A  26D5  120A  118A  	fcall	__Umul8_16
  2259  06B8  0871               	movf	?__Umul8_16+1,w
  2260  06B9  1283               	bcf	3,5	;RP0=0, select bank0
  2261  06BA  1303               	bcf	3,6	;RP1=0, select bank0
  2262  06BB  00D3               	movwf	___flmul@temp+1
  2263  06BC  0870               	movf	?__Umul8_16,w
  2264  06BD  00D2               	movwf	___flmul@temp
  2265  06BE                     l1557:
  2266  06BE  0852               	movf	___flmul@temp,w
  2267  06BF  00C2               	movwf	??___flmul
  2268  06C0  0853               	movf	___flmul@temp+1,w
  2269  06C1  00C3               	movwf	??___flmul+1
  2270  06C2  01C4               	clrf	??___flmul+2
  2271  06C3  01C5               	clrf	??___flmul+3
  2272  06C4  3008               	movlw	8
  2273  06C5                     u1585:
  2274  06C5  1003               	clrc
  2275  06C6  0DC2               	rlf	??___flmul,f
  2276  06C7  0DC3               	rlf	??___flmul+1,f
  2277  06C8  0DC4               	rlf	??___flmul+2,f
  2278  06C9  0DC5               	rlf	??___flmul+3,f
  2279  06CA                     u1580:
  2280  06CA  3EFF               	addlw	-1
  2281  06CB  1D03               	skipz
  2282  06CC  2EC5               	goto	u1585
  2283  06CD  0842               	movf	??___flmul,w
  2284  06CE  07CE               	addwf	___flmul@prod,f
  2285  06CF  0843               	movf	??___flmul+1,w
  2286  06D0  1103               	clrz
  2287  06D1  1803               	skipnc
  2288  06D2  3E01               	addlw	1
  2289  06D3  1903               	skipnz
  2290  06D4  2ED6               	goto	u1591
  2291  06D5  07CF               	addwf	___flmul@prod+1,f
  2292  06D6                     u1591:
  2293  06D6  0844               	movf	??___flmul+2,w
  2294  06D7  1103               	clrz
  2295  06D8  1803               	skipnc
  2296  06D9  3E01               	addlw	1
  2297  06DA  1903               	skipnz
  2298  06DB  2EDD               	goto	u1592
  2299  06DC  07D0               	addwf	___flmul@prod+2,f
  2300  06DD                     u1592:
  2301  06DD  0845               	movf	??___flmul+3,w
  2302  06DE  1103               	clrz
  2303  06DF  1803               	skipnc
  2304  06E0  3E01               	addlw	1
  2305  06E1  1903               	skipnz
  2306  06E2  2EE4               	goto	u1593
  2307  06E3  07D1               	addwf	___flmul@prod+3,f
  2308  06E4                     u1593:
  2309  06E4                     l1559:
  2310  06E4  0848               	movf	___flmul@grs,w
  2311  06E5  00C2               	movwf	??___flmul
  2312  06E6  0849               	movf	___flmul@grs+1,w
  2313  06E7  00C3               	movwf	??___flmul+1
  2314  06E8  084A               	movf	___flmul@grs+2,w
  2315  06E9  00C4               	movwf	??___flmul+2
  2316  06EA  084B               	movf	___flmul@grs+3,w
  2317  06EB  00C5               	movwf	??___flmul+3
  2318  06EC  3018               	movlw	24
  2319  06ED                     u1605:
  2320  06ED  1003               	clrc
  2321  06EE  0CC5               	rrf	??___flmul+3,f
  2322  06EF  0CC4               	rrf	??___flmul+2,f
  2323  06F0  0CC3               	rrf	??___flmul+1,f
  2324  06F1  0CC2               	rrf	??___flmul,f
  2325  06F2                     u1600:
  2326  06F2  3EFF               	addlw	-1
  2327  06F3  1D03               	skipz
  2328  06F4  2EED               	goto	u1605
  2329  06F5  0842               	movf	??___flmul,w
  2330  06F6  07CE               	addwf	___flmul@prod,f
  2331  06F7  0843               	movf	??___flmul+1,w
  2332  06F8  1103               	clrz
  2333  06F9  1803               	skipnc
  2334  06FA  3E01               	addlw	1
  2335  06FB  1903               	skipnz
  2336  06FC  2EFE               	goto	u1611
  2337  06FD  07CF               	addwf	___flmul@prod+1,f
  2338  06FE                     u1611:
  2339  06FE  0844               	movf	??___flmul+2,w
  2340  06FF  1103               	clrz
  2341  0700  1803               	skipnc
  2342  0701  3E01               	addlw	1
  2343  0702  1903               	skipnz
  2344  0703  2F05               	goto	u1612
  2345  0704  07D0               	addwf	___flmul@prod+2,f
  2346  0705                     u1612:
  2347  0705  0845               	movf	??___flmul+3,w
  2348  0706  1103               	clrz
  2349  0707  1803               	skipnc
  2350  0708  3E01               	addlw	1
  2351  0709  1903               	skipnz
  2352  070A  2F0C               	goto	u1613
  2353  070B  07D1               	addwf	___flmul@prod+3,f
  2354  070C                     u1613:
  2355  070C                     l1561:
  2356  070C  3008               	movlw	8
  2357  070D  00C2               	movwf	??___flmul
  2358  070E                     u1625:
  2359  070E  1003               	clrc
  2360  070F  0DC8               	rlf	___flmul@grs,f
  2361  0710  0DC9               	rlf	___flmul@grs+1,f
  2362  0711  0DCA               	rlf	___flmul@grs+2,f
  2363  0712  0DCB               	rlf	___flmul@grs+3,f
  2364  0713  0BC2               	decfsz	??___flmul,f
  2365  0714  2F0E               	goto	u1625
  2366  0715                     l1563:
  2367  0715  084D               	movf	___flmul@bexp,w
  2368  0716  074C               	addwf	___flmul@aexp,w
  2369  0717  00C2               	movwf	??___flmul
  2370  0718  01C3               	clrf	??___flmul+1
  2371  0719  0DC3               	rlf	??___flmul+1,f
  2372  071A  0842               	movf	??___flmul,w
  2373  071B  3E82               	addlw	130
  2374  071C  00D2               	movwf	___flmul@temp
  2375  071D  0843               	movf	??___flmul+1,w
  2376  071E  1803               	skipnc
  2377  071F  3E01               	addlw	1
  2378  0720  3EFF               	addlw	255
  2379  0721  00D3               	movwf	___flmul@temp+1
  2380  0722  2F40               	goto	l1575
  2381  0723                     l1565:
  2382  0723  3001               	movlw	1
  2383  0724  00C2               	movwf	??___flmul
  2384  0725                     u1635:
  2385  0725  1003               	clrc
  2386  0726  0DCE               	rlf	___flmul@prod,f
  2387  0727  0DCF               	rlf	___flmul@prod+1,f
  2388  0728  0DD0               	rlf	___flmul@prod+2,f
  2389  0729  0DD1               	rlf	___flmul@prod+3,f
  2390  072A  0BC2               	decfsz	??___flmul,f
  2391  072B  2F25               	goto	u1635
  2392  072C                     l1567:
  2393  072C  1FCB               	btfss	___flmul@grs+3,7
  2394  072D  2F2F               	goto	u1641
  2395  072E  2F30               	goto	u1640
  2396  072F                     u1641:
  2397  072F  2F31               	goto	l1571
  2398  0730                     u1640:
  2399  0730                     l1569:
  2400  0730  144E               	bsf	___flmul@prod,0
  2401  0731                     l1571:
  2402  0731  3001               	movlw	1
  2403  0732  00C2               	movwf	??___flmul
  2404  0733                     u1655:
  2405  0733  1003               	clrc
  2406  0734  0DC8               	rlf	___flmul@grs,f
  2407  0735  0DC9               	rlf	___flmul@grs+1,f
  2408  0736  0DCA               	rlf	___flmul@grs+2,f
  2409  0737  0DCB               	rlf	___flmul@grs+3,f
  2410  0738  0BC2               	decfsz	??___flmul,f
  2411  0739  2F33               	goto	u1655
  2412  073A                     l1573:
  2413  073A  30FF               	movlw	255
  2414  073B  07D2               	addwf	___flmul@temp,f
  2415  073C  1803               	skipnc
  2416  073D  0AD3               	incf	___flmul@temp+1,f
  2417  073E  30FF               	movlw	255
  2418  073F  07D3               	addwf	___flmul@temp+1,f
  2419  0740                     l1575:
  2420  0740  1FD0               	btfss	___flmul@prod+2,7
  2421  0741  2F43               	goto	u1661
  2422  0742  2F44               	goto	u1660
  2423  0743                     u1661:
  2424  0743  2F23               	goto	l1565
  2425  0744                     u1660:
  2426  0744                     l1577:
  2427  0744  01CC               	clrf	___flmul@aexp
  2428  0745                     l1579:
  2429  0745  1FCB               	btfss	___flmul@grs+3,7
  2430  0746  2F48               	goto	u1671
  2431  0747  2F49               	goto	u1670
  2432  0748                     u1671:
  2433  0748  2F65               	goto	l1587
  2434  0749                     u1670:
  2435  0749                     l1581:
  2436  0749  30FF               	movlw	255
  2437  074A  0548               	andwf	___flmul@grs,w
  2438  074B  00C2               	movwf	??___flmul
  2439  074C  30FF               	movlw	255
  2440  074D  0549               	andwf	___flmul@grs+1,w
  2441  074E  00C3               	movwf	??___flmul+1
  2442  074F  30FF               	movlw	255
  2443  0750  054A               	andwf	___flmul@grs+2,w
  2444  0751  00C4               	movwf	??___flmul+2
  2445  0752  307F               	movlw	127
  2446  0753  054B               	andwf	___flmul@grs+3,w
  2447  0754  00C5               	movwf	??___flmul+3
  2448  0755  0845               	movf	??___flmul+3,w
  2449  0756  0444               	iorwf	??___flmul+2,w
  2450  0757  0443               	iorwf	??___flmul+1,w
  2451  0758  0442               	iorwf	??___flmul,w
  2452  0759  1903               	skipnz
  2453  075A  2F5C               	goto	u1681
  2454  075B  2F5D               	goto	u1680
  2455  075C                     u1681:
  2456  075C  2F60               	goto	l600
  2457  075D                     u1680:
  2458  075D                     l1583:
  2459  075D  01CC               	clrf	___flmul@aexp
  2460  075E  0ACC               	incf	___flmul@aexp,f
  2461  075F  2F65               	goto	l1587
  2462  0760                     l600:
  2463  0760  1C4E               	btfss	___flmul@prod,0
  2464  0761  2F63               	goto	u1691
  2465  0762  2F64               	goto	u1690
  2466  0763                     u1691:
  2467  0763  2F65               	goto	l1587
  2468  0764                     u1690:
  2469  0764  2F5D               	goto	l1583
  2470  0765                     l1587:
  2471  0765  084C               	movf	___flmul@aexp,w
  2472  0766  1903               	btfsc	3,2
  2473  0767  2F69               	goto	u1701
  2474  0768  2F6A               	goto	u1700
  2475  0769                     u1701:
  2476  0769  2F9B               	goto	l1597
  2477  076A                     u1700:
  2478  076A                     l1589:
  2479  076A  3001               	movlw	1
  2480  076B  07CE               	addwf	___flmul@prod,f
  2481  076C  3000               	movlw	0
  2482  076D  1803               	skipnc
  2483  076E  3001               	movlw	1
  2484  076F  07CF               	addwf	___flmul@prod+1,f
  2485  0770  3000               	movlw	0
  2486  0771  1803               	skipnc
  2487  0772  3001               	movlw	1
  2488  0773  07D0               	addwf	___flmul@prod+2,f
  2489  0774  3000               	movlw	0
  2490  0775  1803               	skipnc
  2491  0776  3001               	movlw	1
  2492  0777  07D1               	addwf	___flmul@prod+3,f
  2493  0778                     l1591:
  2494  0778  1C51               	btfss	___flmul@prod+3,0
  2495  0779  2F7B               	goto	u1711
  2496  077A  2F7C               	goto	u1710
  2497  077B                     u1711:
  2498  077B  2F9B               	goto	l1597
  2499  077C                     u1710:
  2500  077C                     l1593:
  2501  077C  084E               	movf	___flmul@prod,w
  2502  077D  00C2               	movwf	??___flmul
  2503  077E  084F               	movf	___flmul@prod+1,w
  2504  077F  00C3               	movwf	??___flmul+1
  2505  0780  0850               	movf	___flmul@prod+2,w
  2506  0781  00C4               	movwf	??___flmul+2
  2507  0782  0851               	movf	___flmul@prod+3,w
  2508  0783  00C5               	movwf	??___flmul+3
  2509  0784  3001               	movlw	1
  2510  0785  00C6               	movwf	??___flmul+4
  2511  0786                     u1725:
  2512  0786  0D45               	rlf	??___flmul+3,w
  2513  0787  0CC5               	rrf	??___flmul+3,f
  2514  0788  0CC4               	rrf	??___flmul+2,f
  2515  0789  0CC3               	rrf	??___flmul+1,f
  2516  078A  0CC2               	rrf	??___flmul,f
  2517  078B                     u1720:
  2518  078B  0BC6               	decfsz	??___flmul+4,f
  2519  078C  2F86               	goto	u1725
  2520  078D  0845               	movf	??___flmul+3,w
  2521  078E  00D1               	movwf	___flmul@prod+3
  2522  078F  0844               	movf	??___flmul+2,w
  2523  0790  00D0               	movwf	___flmul@prod+2
  2524  0791  0843               	movf	??___flmul+1,w
  2525  0792  00CF               	movwf	___flmul@prod+1
  2526  0793  0842               	movf	??___flmul,w
  2527  0794  00CE               	movwf	___flmul@prod
  2528  0795                     l1595:
  2529  0795  3001               	movlw	1
  2530  0796  07D2               	addwf	___flmul@temp,f
  2531  0797  1803               	skipnc
  2532  0798  0AD3               	incf	___flmul@temp+1,f
  2533  0799  3000               	movlw	0
  2534  079A  07D3               	addwf	___flmul@temp+1,f
  2535  079B                     l1597:
  2536  079B  0853               	movf	___flmul@temp+1,w
  2537  079C  3A80               	xorlw	128
  2538  079D  00FF               	movwf	btemp+1
  2539  079E  3080               	movlw	128
  2540  079F  027F               	subwf	btemp+1,w
  2541  07A0  1D03               	skipz
  2542  07A1  2FA4               	goto	u1735
  2543  07A2  30FF               	movlw	255
  2544  07A3  0252               	subwf	___flmul@temp,w
  2545  07A4                     u1735:
  2546  07A4  1C03               	skipc
  2547  07A5  2FA7               	goto	u1731
  2548  07A6  2FA8               	goto	u1730
  2549  07A7                     u1731:
  2550  07A7  2FB3               	goto	l1601
  2551  07A8                     u1730:
  2552  07A8                     l1599:
  2553  07A8  307F               	movlw	127
  2554  07A9  1283               	bcf	3,5	;RP0=0, select bank0
  2555  07AA  1303               	bcf	3,6	;RP1=0, select bank0
  2556  07AB  00D1               	movwf	___flmul@prod+3
  2557  07AC  3080               	movlw	128
  2558  07AD  00D0               	movwf	___flmul@prod+2
  2559  07AE  3000               	movlw	0
  2560  07AF  00CF               	movwf	___flmul@prod+1
  2561  07B0  3000               	movlw	0
  2562  07B1  00CE               	movwf	___flmul@prod
  2563  07B2  2FE8               	goto	l606
  2564  07B3                     l1601:
  2565  07B3  1283               	bcf	3,5	;RP0=0, select bank0
  2566  07B4  1303               	bcf	3,6	;RP1=0, select bank0
  2567  07B5  0853               	movf	___flmul@temp+1,w
  2568  07B6  3A80               	xorlw	128
  2569  07B7  00FF               	movwf	btemp+1
  2570  07B8  3080               	movlw	128
  2571  07B9  027F               	subwf	btemp+1,w
  2572  07BA  1D03               	skipz
  2573  07BB  2FBE               	goto	u1745
  2574  07BC  3001               	movlw	1
  2575  07BD  0252               	subwf	___flmul@temp,w
  2576  07BE                     u1745:
  2577  07BE  1803               	skipnc
  2578  07BF  2FC1               	goto	u1741
  2579  07C0  2FC2               	goto	u1740
  2580  07C1                     u1741:
  2581  07C1  2FCE               	goto	l1607
  2582  07C2                     u1740:
  2583  07C2                     l1603:
  2584  07C2  3000               	movlw	0
  2585  07C3  1283               	bcf	3,5	;RP0=0, select bank0
  2586  07C4  1303               	bcf	3,6	;RP1=0, select bank0
  2587  07C5  00D1               	movwf	___flmul@prod+3
  2588  07C6  3000               	movlw	0
  2589  07C7  00D0               	movwf	___flmul@prod+2
  2590  07C8  3000               	movlw	0
  2591  07C9  00CF               	movwf	___flmul@prod+1
  2592  07CA  3000               	movlw	0
  2593  07CB  00CE               	movwf	___flmul@prod
  2594  07CC                     l1605:
  2595  07CC  01C7               	clrf	___flmul@sign
  2596  07CD  2FE8               	goto	l606
  2597  07CE                     l1607:
  2598  07CE  1283               	bcf	3,5	;RP0=0, select bank0
  2599  07CF  1303               	bcf	3,6	;RP1=0, select bank0
  2600  07D0  0852               	movf	___flmul@temp,w
  2601  07D1  00C2               	movwf	??___flmul
  2602  07D2  0842               	movf	??___flmul,w
  2603  07D3  00CD               	movwf	___flmul@bexp
  2604  07D4  30FF               	movlw	255
  2605  07D5  05CE               	andwf	___flmul@prod,f
  2606  07D6  30FF               	movlw	255
  2607  07D7  05CF               	andwf	___flmul@prod+1,f
  2608  07D8  307F               	movlw	127
  2609  07D9  05D0               	andwf	___flmul@prod+2,f
  2610  07DA  3000               	movlw	0
  2611  07DB  05D1               	andwf	___flmul@prod+3,f
  2612  07DC                     l1609:
  2613  07DC  1C4D               	btfss	___flmul@bexp,0
  2614  07DD  2FDF               	goto	u1751
  2615  07DE  2FE0               	goto	u1750
  2616  07DF                     u1751:
  2617  07DF  2FE1               	goto	l1613
  2618  07E0                     u1750:
  2619  07E0                     l1611:
  2620  07E0  17D0               	bsf	___flmul@prod+2,7
  2621  07E1                     l1613:
  2622  07E1  084D               	movf	___flmul@bexp,w
  2623  07E2  00C2               	movwf	??___flmul
  2624  07E3  1003               	clrc
  2625  07E4  0C42               	rrf	??___flmul,w
  2626  07E5  00C3               	movwf	??___flmul+1
  2627  07E6  0843               	movf	??___flmul+1,w
  2628  07E7  00D1               	movwf	___flmul@prod+3
  2629  07E8                     l606:
  2630  07E8  0847               	movf	___flmul@sign,w
  2631  07E9  00C2               	movwf	??___flmul
  2632  07EA  0842               	movf	??___flmul,w
  2633  07EB  04D1               	iorwf	___flmul@prod+3,f
  2634  07EC                     l1615:
  2635  07EC  0851               	movf	___flmul@prod+3,w
  2636  07ED  00BD               	movwf	?___flmul+3
  2637  07EE  0850               	movf	___flmul@prod+2,w
  2638  07EF  00BC               	movwf	?___flmul+2
  2639  07F0  084F               	movf	___flmul@prod+1,w
  2640  07F1  00BB               	movwf	?___flmul+1
  2641  07F2  084E               	movf	___flmul@prod,w
  2642  07F3  00BA               	movwf	?___flmul
  2643  07F4                     l594:
  2644  07F4  0008               	return
  2645  07F5                     __end_of___flmul:
  2646                           
  2647                           	psect	text5
  2648  0ED5                     __ptext5:	
  2649 ;; *************** function __Umul8_16 *****************
  2650 ;; Defined at:
  2651 ;;		line 4 in file "C:\Program Files\Microchip\xc8\v2.31\pic\sources\c90\common\Umul8_16.c"
  2652 ;; Parameters:    Size  Location     Type
  2653 ;;  multiplier      1    wreg     unsigned char 
  2654 ;;  multiplicand    1    0[COMMON] unsigned char 
  2655 ;; Auto vars:     Size  Location     Type
  2656 ;;  multiplier      1    8[COMMON] unsigned char 
  2657 ;;  word_mpld       2    6[COMMON] unsigned int 
  2658 ;;  product         2    4[COMMON] unsigned int 
  2659 ;; Return value:  Size  Location     Type
  2660 ;;                  2    0[COMMON] unsigned int 
  2661 ;; Registers used:
  2662 ;;		wreg, status,2, status,0
  2663 ;; Tracked objects:
  2664 ;;		On entry : 0/0
  2665 ;;		On exit  : 0/0
  2666 ;;		Unchanged: 0/0
  2667 ;; Data sizes:     COMMON   BANK0   BANK1   BANK3   BANK2
  2668 ;;      Params:         2       0       0       0       0
  2669 ;;      Locals:         5       0       0       0       0
  2670 ;;      Temps:          2       0       0       0       0
  2671 ;;      Totals:         9       0       0       0       0
  2672 ;;Total ram usage:        9 bytes
  2673 ;; Hardware stack levels used:    1
  2674 ;; This function calls:
  2675 ;;		Nothing
  2676 ;; This function is called by:
  2677 ;;		___flmul
  2678 ;; This function uses a non-reentrant model
  2679 ;;
  2680                           
  2681                           
  2682                           ;psect for function __Umul8_16
  2683  0ED5                     __Umul8_16:
  2684                           
  2685                           ;incstack = 0
  2686                           ; Regs used in __Umul8_16: [wreg+status,2+status,0]
  2687                           ;__Umul8_16@multiplier stored from wreg
  2688  0ED5  00F8               	movwf	__Umul8_16@multiplier
  2689  0ED6                     l1257:
  2690  0ED6  01F4               	clrf	__Umul8_16@product
  2691  0ED7  01F5               	clrf	__Umul8_16@product+1
  2692  0ED8                     l1259:
  2693  0ED8  0870               	movf	__Umul8_16@multiplicand,w
  2694  0ED9  00F2               	movwf	??__Umul8_16
  2695  0EDA  01F3               	clrf	??__Umul8_16+1
  2696  0EDB  0872               	movf	??__Umul8_16,w
  2697  0EDC  00F6               	movwf	__Umul8_16@word_mpld
  2698  0EDD  0873               	movf	??__Umul8_16+1,w
  2699  0EDE  00F7               	movwf	__Umul8_16@word_mpld+1
  2700  0EDF                     l1261:
  2701  0EDF  1C78               	btfss	__Umul8_16@multiplier,0
  2702  0EE0  2EE2               	goto	u981
  2703  0EE1  2EE3               	goto	u980
  2704  0EE2                     u981:
  2705  0EE2  2EE9               	goto	l613
  2706  0EE3                     u980:
  2707  0EE3                     l1263:
  2708  0EE3  0876               	movf	__Umul8_16@word_mpld,w
  2709  0EE4  07F4               	addwf	__Umul8_16@product,f
  2710  0EE5  1803               	skipnc
  2711  0EE6  0AF5               	incf	__Umul8_16@product+1,f
  2712  0EE7  0877               	movf	__Umul8_16@word_mpld+1,w
  2713  0EE8  07F5               	addwf	__Umul8_16@product+1,f
  2714  0EE9                     l613:
  2715  0EE9  3001               	movlw	1
  2716  0EEA                     u995:
  2717  0EEA  1003               	clrc
  2718  0EEB  0DF6               	rlf	__Umul8_16@word_mpld,f
  2719  0EEC  0DF7               	rlf	__Umul8_16@word_mpld+1,f
  2720  0EED  3EFF               	addlw	-1
  2721  0EEE  1D03               	skipz
  2722  0EEF  2EEA               	goto	u995
  2723  0EF0  1003               	clrc
  2724  0EF1  0CF8               	rrf	__Umul8_16@multiplier,f
  2725  0EF2                     l1265:
  2726  0EF2  0878               	movf	__Umul8_16@multiplier,w
  2727  0EF3  1D03               	btfss	3,2
  2728  0EF4  2EF6               	goto	u1001
  2729  0EF5  2EF7               	goto	u1000
  2730  0EF6                     u1001:
  2731  0EF6  2EDF               	goto	l1261
  2732  0EF7                     u1000:
  2733  0EF7                     l1267:
  2734  0EF7  0875               	movf	__Umul8_16@product+1,w
  2735  0EF8  00F1               	movwf	?__Umul8_16+1
  2736  0EF9  0874               	movf	__Umul8_16@product,w
  2737  0EFA  00F0               	movwf	?__Umul8_16
  2738  0EFB                     l615:
  2739  0EFB  0008               	return
  2740  0EFC                     __end_of__Umul8_16:
  2741                           
  2742                           	psect	text6
  2743  0F5E                     __ptext6:	
  2744 ;; *************** function ___flge *****************
  2745 ;; Defined at:
  2746 ;;		line 4 in file "C:\Program Files\Microchip\xc8\v2.31\pic\sources\c90\common\flge.c"
  2747 ;; Parameters:    Size  Location     Type
  2748 ;;  ff1             4    0[COMMON] unsigned int 
  2749 ;;  ff2             4    4[COMMON] unsigned int 
  2750 ;; Auto vars:     Size  Location     Type
  2751 ;;		None
  2752 ;; Return value:  Size  Location     Type
  2753 ;;		None               void
  2754 ;; Registers used:
  2755 ;;		wreg, status,2, status,0
  2756 ;; Tracked objects:
  2757 ;;		On entry : 0/0
  2758 ;;		On exit  : 0/0
  2759 ;;		Unchanged: 0/0
  2760 ;; Data sizes:     COMMON   BANK0   BANK1   BANK3   BANK2
  2761 ;;      Params:         8       0       0       0       0
  2762 ;;      Locals:         0       0       0       0       0
  2763 ;;      Temps:          4       0       0       0       0
  2764 ;;      Totals:        12       0       0       0       0
  2765 ;;Total ram usage:       12 bytes
  2766 ;; Hardware stack levels used:    1
  2767 ;; This function calls:
  2768 ;;		Nothing
  2769 ;; This function is called by:
  2770 ;;		_main
  2771 ;; This function uses a non-reentrant model
  2772 ;;
  2773                           
  2774                           
  2775                           ;psect for function ___flge
  2776  0F5E                     ___flge:
  2777  0F5E                     l1317:	
  2778                           ;incstack = 0
  2779                           ; Regs used in ___flge: [wreg+status,2+status,0]
  2780                           
  2781  0F5E  3000               	movlw	0
  2782  0F5F  0570               	andwf	___flge@ff1,w
  2783  0F60  00F8               	movwf	??___flge
  2784  0F61  3000               	movlw	0
  2785  0F62  0571               	andwf	___flge@ff1+1,w
  2786  0F63  00F9               	movwf	??___flge+1
  2787  0F64  3080               	movlw	128
  2788  0F65  0572               	andwf	___flge@ff1+2,w
  2789  0F66  00FA               	movwf	??___flge+2
  2790  0F67  307F               	movlw	127
  2791  0F68  0573               	andwf	___flge@ff1+3,w
  2792  0F69  00FB               	movwf	??___flge+3
  2793  0F6A  087B               	movf	??___flge+3,w
  2794  0F6B  047A               	iorwf	??___flge+2,w
  2795  0F6C  0479               	iorwf	??___flge+1,w
  2796  0F6D  0478               	iorwf	??___flge,w
  2797  0F6E  1D03               	skipz
  2798  0F6F  2F71               	goto	u1031
  2799  0F70  2F72               	goto	u1030
  2800  0F71                     u1031:
  2801  0F71  2F7A               	goto	l379
  2802  0F72                     u1030:
  2803  0F72                     l1319:
  2804  0F72  3000               	movlw	0
  2805  0F73  00F3               	movwf	___flge@ff1+3
  2806  0F74  3000               	movlw	0
  2807  0F75  00F2               	movwf	___flge@ff1+2
  2808  0F76  3000               	movlw	0
  2809  0F77  00F1               	movwf	___flge@ff1+1
  2810  0F78  3000               	movlw	0
  2811  0F79  00F0               	movwf	___flge@ff1
  2812  0F7A                     l379:
  2813  0F7A  3000               	movlw	0
  2814  0F7B  0574               	andwf	___flge@ff2,w
  2815  0F7C  00F8               	movwf	??___flge
  2816  0F7D  3000               	movlw	0
  2817  0F7E  0575               	andwf	___flge@ff2+1,w
  2818  0F7F  00F9               	movwf	??___flge+1
  2819  0F80  3080               	movlw	128
  2820  0F81  0576               	andwf	___flge@ff2+2,w
  2821  0F82  00FA               	movwf	??___flge+2
  2822  0F83  307F               	movlw	127
  2823  0F84  0577               	andwf	___flge@ff2+3,w
  2824  0F85  00FB               	movwf	??___flge+3
  2825  0F86  087B               	movf	??___flge+3,w
  2826  0F87  047A               	iorwf	??___flge+2,w
  2827  0F88  0479               	iorwf	??___flge+1,w
  2828  0F89  0478               	iorwf	??___flge,w
  2829  0F8A  1D03               	skipz
  2830  0F8B  2F8D               	goto	u1041
  2831  0F8C  2F8E               	goto	u1040
  2832  0F8D                     u1041:
  2833  0F8D  2F96               	goto	l1323
  2834  0F8E                     u1040:
  2835  0F8E                     l1321:
  2836  0F8E  3000               	movlw	0
  2837  0F8F  00F7               	movwf	___flge@ff2+3
  2838  0F90  3000               	movlw	0
  2839  0F91  00F6               	movwf	___flge@ff2+2
  2840  0F92  3000               	movlw	0
  2841  0F93  00F5               	movwf	___flge@ff2+1
  2842  0F94  3000               	movlw	0
  2843  0F95  00F4               	movwf	___flge@ff2
  2844  0F96                     l1323:
  2845  0F96  1FF3               	btfss	___flge@ff1+3,7
  2846  0F97  2F99               	goto	u1051
  2847  0F98  2F9A               	goto	u1050
  2848  0F99                     u1051:
  2849  0F99  2FBE               	goto	l1327
  2850  0F9A                     u1050:
  2851  0F9A                     l1325:
  2852  0F9A  3000               	movlw	0
  2853  0F9B  00F8               	movwf	??___flge
  2854  0F9C  3000               	movlw	0
  2855  0F9D  00F9               	movwf	??___flge+1
  2856  0F9E  3000               	movlw	0
  2857  0F9F  00FA               	movwf	??___flge+2
  2858  0FA0  3080               	movlw	128
  2859  0FA1  00FB               	movwf	??___flge+3
  2860  0FA2  0870               	movf	___flge@ff1,w
  2861  0FA3  02F8               	subwf	??___flge,f
  2862  0FA4  0871               	movf	___flge@ff1+1,w
  2863  0FA5  1C03               	skipc
  2864  0FA6  0F71               	incfsz	___flge@ff1+1,w
  2865  0FA7  2FA9               	goto	u1061
  2866  0FA8  2FAA               	goto	u1062
  2867  0FA9                     u1061:
  2868  0FA9  02F9               	subwf	??___flge+1,f
  2869  0FAA                     u1062:
  2870  0FAA  0872               	movf	___flge@ff1+2,w
  2871  0FAB  1C03               	skipc
  2872  0FAC  0F72               	incfsz	___flge@ff1+2,w
  2873  0FAD  2FAF               	goto	u1063
  2874  0FAE  2FB0               	goto	u1064
  2875  0FAF                     u1063:
  2876  0FAF  02FA               	subwf	??___flge+2,f
  2877  0FB0                     u1064:
  2878  0FB0  0873               	movf	___flge@ff1+3,w
  2879  0FB1  1C03               	skipc
  2880  0FB2  0F73               	incfsz	___flge@ff1+3,w
  2881  0FB3  2FB5               	goto	u1065
  2882  0FB4  2FB6               	goto	u1066
  2883  0FB5                     u1065:
  2884  0FB5  02FB               	subwf	??___flge+3,f
  2885  0FB6                     u1066:
  2886  0FB6  087B               	movf	??___flge+3,w
  2887  0FB7  00F3               	movwf	___flge@ff1+3
  2888  0FB8  087A               	movf	??___flge+2,w
  2889  0FB9  00F2               	movwf	___flge@ff1+2
  2890  0FBA  0879               	movf	??___flge+1,w
  2891  0FBB  00F1               	movwf	___flge@ff1+1
  2892  0FBC  0878               	movf	??___flge,w
  2893  0FBD  00F0               	movwf	___flge@ff1
  2894  0FBE                     l1327:
  2895  0FBE  1FF7               	btfss	___flge@ff2+3,7
  2896  0FBF  2FC1               	goto	u1071
  2897  0FC0  2FC2               	goto	u1070
  2898  0FC1                     u1071:
  2899  0FC1  2FE6               	goto	l382
  2900  0FC2                     u1070:
  2901  0FC2                     l1329:
  2902  0FC2  3000               	movlw	0
  2903  0FC3  00F8               	movwf	??___flge
  2904  0FC4  3000               	movlw	0
  2905  0FC5  00F9               	movwf	??___flge+1
  2906  0FC6  3000               	movlw	0
  2907  0FC7  00FA               	movwf	??___flge+2
  2908  0FC8  3080               	movlw	128
  2909  0FC9  00FB               	movwf	??___flge+3
  2910  0FCA  0874               	movf	___flge@ff2,w
  2911  0FCB  02F8               	subwf	??___flge,f
  2912  0FCC  0875               	movf	___flge@ff2+1,w
  2913  0FCD  1C03               	skipc
  2914  0FCE  0F75               	incfsz	___flge@ff2+1,w
  2915  0FCF  2FD1               	goto	u1081
  2916  0FD0  2FD2               	goto	u1082
  2917  0FD1                     u1081:
  2918  0FD1  02F9               	subwf	??___flge+1,f
  2919  0FD2                     u1082:
  2920  0FD2  0876               	movf	___flge@ff2+2,w
  2921  0FD3  1C03               	skipc
  2922  0FD4  0F76               	incfsz	___flge@ff2+2,w
  2923  0FD5  2FD7               	goto	u1083
  2924  0FD6  2FD8               	goto	u1084
  2925  0FD7                     u1083:
  2926  0FD7  02FA               	subwf	??___flge+2,f
  2927  0FD8                     u1084:
  2928  0FD8  0877               	movf	___flge@ff2+3,w
  2929  0FD9  1C03               	skipc
  2930  0FDA  0F77               	incfsz	___flge@ff2+3,w
  2931  0FDB  2FDD               	goto	u1085
  2932  0FDC  2FDE               	goto	u1086
  2933  0FDD                     u1085:
  2934  0FDD  02FB               	subwf	??___flge+3,f
  2935  0FDE                     u1086:
  2936  0FDE  087B               	movf	??___flge+3,w
  2937  0FDF  00F7               	movwf	___flge@ff2+3
  2938  0FE0  087A               	movf	??___flge+2,w
  2939  0FE1  00F6               	movwf	___flge@ff2+2
  2940  0FE2  0879               	movf	??___flge+1,w
  2941  0FE3  00F5               	movwf	___flge@ff2+1
  2942  0FE4  0878               	movf	??___flge,w
  2943  0FE5  00F4               	movwf	___flge@ff2
  2944  0FE6                     l382:
  2945  0FE6  3080               	movlw	128
  2946  0FE7  06F3               	xorwf	___flge@ff1+3,f
  2947  0FE8  3080               	movlw	128
  2948  0FE9  06F7               	xorwf	___flge@ff2+3,f
  2949  0FEA  0877               	movf	___flge@ff2+3,w
  2950  0FEB  0273               	subwf	___flge@ff1+3,w
  2951  0FEC  1D03               	skipz
  2952  0FED  2FF8               	goto	u1095
  2953  0FEE  0876               	movf	___flge@ff2+2,w
  2954  0FEF  0272               	subwf	___flge@ff1+2,w
  2955  0FF0  1D03               	skipz
  2956  0FF1  2FF8               	goto	u1095
  2957  0FF2  0875               	movf	___flge@ff2+1,w
  2958  0FF3  0271               	subwf	___flge@ff1+1,w
  2959  0FF4  1D03               	skipz
  2960  0FF5  2FF8               	goto	u1095
  2961  0FF6  0874               	movf	___flge@ff2,w
  2962  0FF7  0270               	subwf	___flge@ff1,w
  2963  0FF8                     u1095:
  2964  0FF8  1803               	skipnc
  2965  0FF9  2FFB               	goto	u1091
  2966  0FFA  2FFC               	goto	u1090
  2967  0FFB                     u1091:
  2968  0FFB  2FFE               	goto	l1333
  2969  0FFC                     u1090:
  2970  0FFC                     l1331:
  2971  0FFC  1003               	clrc
  2972  0FFD  2FFF               	goto	l383
  2973  0FFE                     l1333:
  2974  0FFE  1403               	setc
  2975  0FFF                     l383:
  2976  0FFF  0008               	return
  2977  1000                     __end_of___flge:
  2978                           
  2979                           	psect	text7
  2980  02B7                     __ptext7:	
  2981 ;; *************** function ___fldiv *****************
  2982 ;; Defined at:
  2983 ;;		line 8 in file "C:\Program Files\Microchip\xc8\v2.31\pic\sources\c90\common\sprcdiv.c"
  2984 ;; Parameters:    Size  Location     Type
  2985 ;;  a               4    0[BANK0 ] unsigned int 
  2986 ;;  b               4    4[BANK0 ] unsigned int 
  2987 ;; Auto vars:     Size  Location     Type
  2988 ;;  grs             4   20[BANK0 ] unsigned long 
  2989 ;;  rem             4   13[BANK0 ] unsigned long 
  2990 ;;  new_exp         2   18[BANK0 ] int 
  2991 ;;  aexp            1   25[BANK0 ] unsigned char 
  2992 ;;  bexp            1   24[BANK0 ] unsigned char 
  2993 ;;  sign            1   17[BANK0 ] unsigned char 
  2994 ;; Return value:  Size  Location     Type
  2995 ;;                  4    0[BANK0 ] unsigned char 
  2996 ;; Registers used:
  2997 ;;		wreg, status,2, status,0, btemp+1
  2998 ;; Tracked objects:
  2999 ;;		On entry : 0/0
  3000 ;;		On exit  : 0/0
  3001 ;;		Unchanged: 0/0
  3002 ;; Data sizes:     COMMON   BANK0   BANK1   BANK3   BANK2
  3003 ;;      Params:         0       8       0       0       0
  3004 ;;      Locals:         0      13       0       0       0
  3005 ;;      Temps:          0       5       0       0       0
  3006 ;;      Totals:         0      26       0       0       0
  3007 ;;Total ram usage:       26 bytes
  3008 ;; Hardware stack levels used:    1
  3009 ;; This function calls:
  3010 ;;		Nothing
  3011 ;; This function is called by:
  3012 ;;		_main
  3013 ;; This function uses a non-reentrant model
  3014 ;;
  3015                           
  3016                           
  3017                           ;psect for function ___fldiv
  3018  02B7                     ___fldiv:
  3019  02B7                     l1337:	
  3020                           ;incstack = 0
  3021                           ; Regs used in ___fldiv: [wreg+status,2+status,0+btemp+1]
  3022                           
  3023  02B7  1283               	bcf	3,5	;RP0=0, select bank0
  3024  02B8  1303               	bcf	3,6	;RP1=0, select bank0
  3025  02B9  0827               	movf	___fldiv@b+3,w
  3026  02BA  3980               	andlw	128
  3027  02BB  00A8               	movwf	??___fldiv
  3028  02BC  0828               	movf	??___fldiv,w
  3029  02BD  00B1               	movwf	___fldiv@sign
  3030  02BE                     l1339:
  3031  02BE  0827               	movf	___fldiv@b+3,w
  3032  02BF  00A8               	movwf	??___fldiv
  3033  02C0  0728               	addwf	??___fldiv,w
  3034  02C1  00A9               	movwf	??___fldiv+1
  3035  02C2  0829               	movf	??___fldiv+1,w
  3036  02C3  00B8               	movwf	___fldiv@bexp
  3037  02C4                     l1341:
  3038  02C4  1FA6               	btfss	___fldiv@b+2,7
  3039  02C5  2AC7               	goto	u1101
  3040  02C6  2AC8               	goto	u1100
  3041  02C7                     u1101:
  3042  02C7  2AC9               	goto	l1345
  3043  02C8                     u1100:
  3044  02C8                     l1343:
  3045  02C8  1438               	bsf	___fldiv@bexp,0
  3046  02C9                     l1345:
  3047  02C9  0838               	movf	___fldiv@bexp,w
  3048  02CA  1903               	btfsc	3,2
  3049  02CB  2ACD               	goto	u1111
  3050  02CC  2ACE               	goto	u1110
  3051  02CD                     u1111:
  3052  02CD  2ADE               	goto	l1355
  3053  02CE                     u1110:
  3054  02CE                     l1347:
  3055  02CE  0A38               	incf	___fldiv@bexp,w
  3056  02CF  1D03               	btfss	3,2
  3057  02D0  2AD2               	goto	u1121
  3058  02D1  2AD3               	goto	u1120
  3059  02D2                     u1121:
  3060  02D2  2ADB               	goto	l1351
  3061  02D3                     u1120:
  3062  02D3                     l1349:
  3063  02D3  3000               	movlw	0
  3064  02D4  00A7               	movwf	___fldiv@b+3
  3065  02D5  3000               	movlw	0
  3066  02D6  00A6               	movwf	___fldiv@b+2
  3067  02D7  3000               	movlw	0
  3068  02D8  00A5               	movwf	___fldiv@b+1
  3069  02D9  3000               	movlw	0
  3070  02DA  00A4               	movwf	___fldiv@b
  3071  02DB                     l1351:
  3072  02DB  17A6               	bsf	___fldiv@b+2,7
  3073  02DC                     l1353:
  3074  02DC  01A7               	clrf	___fldiv@b+3
  3075  02DD  2AE6               	goto	l1357
  3076  02DE                     l1355:
  3077  02DE  3000               	movlw	0
  3078  02DF  00A7               	movwf	___fldiv@b+3
  3079  02E0  3000               	movlw	0
  3080  02E1  00A6               	movwf	___fldiv@b+2
  3081  02E2  3000               	movlw	0
  3082  02E3  00A5               	movwf	___fldiv@b+1
  3083  02E4  3000               	movlw	0
  3084  02E5  00A4               	movwf	___fldiv@b
  3085  02E6                     l1357:
  3086  02E6  0823               	movf	___fldiv@a+3,w
  3087  02E7  3980               	andlw	128
  3088  02E8  00A8               	movwf	??___fldiv
  3089  02E9  0828               	movf	??___fldiv,w
  3090  02EA  06B1               	xorwf	___fldiv@sign,f
  3091  02EB                     l1359:
  3092  02EB  0823               	movf	___fldiv@a+3,w
  3093  02EC  00A8               	movwf	??___fldiv
  3094  02ED  0728               	addwf	??___fldiv,w
  3095  02EE  00A9               	movwf	??___fldiv+1
  3096  02EF  0829               	movf	??___fldiv+1,w
  3097  02F0  00B9               	movwf	___fldiv@aexp
  3098  02F1                     l1361:
  3099  02F1  1FA2               	btfss	___fldiv@a+2,7
  3100  02F2  2AF4               	goto	u1131
  3101  02F3  2AF5               	goto	u1130
  3102  02F4                     u1131:
  3103  02F4  2AF6               	goto	l1365
  3104  02F5                     u1130:
  3105  02F5                     l1363:
  3106  02F5  1439               	bsf	___fldiv@aexp,0
  3107  02F6                     l1365:
  3108  02F6  0839               	movf	___fldiv@aexp,w
  3109  02F7  1903               	btfsc	3,2
  3110  02F8  2AFA               	goto	u1141
  3111  02F9  2AFB               	goto	u1140
  3112  02FA                     u1141:
  3113  02FA  2B0B               	goto	l1375
  3114  02FB                     u1140:
  3115  02FB                     l1367:
  3116  02FB  0A39               	incf	___fldiv@aexp,w
  3117  02FC  1D03               	btfss	3,2
  3118  02FD  2AFF               	goto	u1151
  3119  02FE  2B00               	goto	u1150
  3120  02FF                     u1151:
  3121  02FF  2B08               	goto	l1371
  3122  0300                     u1150:
  3123  0300                     l1369:
  3124  0300  3000               	movlw	0
  3125  0301  00A3               	movwf	___fldiv@a+3
  3126  0302  3000               	movlw	0
  3127  0303  00A2               	movwf	___fldiv@a+2
  3128  0304  3000               	movlw	0
  3129  0305  00A1               	movwf	___fldiv@a+1
  3130  0306  3000               	movlw	0
  3131  0307  00A0               	movwf	___fldiv@a
  3132  0308                     l1371:
  3133  0308  17A2               	bsf	___fldiv@a+2,7
  3134  0309                     l1373:
  3135  0309  01A3               	clrf	___fldiv@a+3
  3136  030A  2B13               	goto	l554
  3137  030B                     l1375:
  3138  030B  3000               	movlw	0
  3139  030C  00A3               	movwf	___fldiv@a+3
  3140  030D  3000               	movlw	0
  3141  030E  00A2               	movwf	___fldiv@a+2
  3142  030F  3000               	movlw	0
  3143  0310  00A1               	movwf	___fldiv@a+1
  3144  0311  3000               	movlw	0
  3145  0312  00A0               	movwf	___fldiv@a
  3146  0313                     l554:
  3147  0313  0823               	movf	___fldiv@a+3,w
  3148  0314  0422               	iorwf	___fldiv@a+2,w
  3149  0315  0421               	iorwf	___fldiv@a+1,w
  3150  0316  0420               	iorwf	___fldiv@a,w
  3151  0317  1D03               	skipz
  3152  0318  2B1A               	goto	u1161
  3153  0319  2B1B               	goto	u1160
  3154  031A                     u1161:
  3155  031A  2B34               	goto	l1385
  3156  031B                     u1160:
  3157  031B                     l1377:
  3158  031B  3000               	movlw	0
  3159  031C  00A7               	movwf	___fldiv@b+3
  3160  031D  3000               	movlw	0
  3161  031E  00A6               	movwf	___fldiv@b+2
  3162  031F  3000               	movlw	0
  3163  0320  00A5               	movwf	___fldiv@b+1
  3164  0321  3000               	movlw	0
  3165  0322  00A4               	movwf	___fldiv@b
  3166  0323  3080               	movlw	128
  3167  0324  04A6               	iorwf	___fldiv@b+2,f
  3168  0325  307F               	movlw	127
  3169  0326  04A7               	iorwf	___fldiv@b+3,f
  3170  0327                     l1379:
  3171  0327  0831               	movf	___fldiv@sign,w
  3172  0328  00A8               	movwf	??___fldiv
  3173  0329  0828               	movf	??___fldiv,w
  3174  032A  04A7               	iorwf	___fldiv@b+3,f
  3175  032B                     l1381:
  3176  032B  0827               	movf	___fldiv@b+3,w
  3177  032C  00A3               	movwf	?___fldiv+3
  3178  032D  0826               	movf	___fldiv@b+2,w
  3179  032E  00A2               	movwf	?___fldiv+2
  3180  032F  0825               	movf	___fldiv@b+1,w
  3181  0330  00A1               	movwf	?___fldiv+1
  3182  0331  0824               	movf	___fldiv@b,w
  3183  0332  00A0               	movwf	?___fldiv
  3184  0333  2C93               	goto	l556
  3185  0334                     l1385:
  3186  0334  0838               	movf	___fldiv@bexp,w
  3187  0335  1D03               	btfss	3,2
  3188  0336  2B38               	goto	u1171
  3189  0337  2B39               	goto	u1170
  3190  0338                     u1171:
  3191  0338  2B42               	goto	l1391
  3192  0339                     u1170:
  3193  0339                     l1387:
  3194  0339  3000               	movlw	0
  3195  033A  00A3               	movwf	?___fldiv+3
  3196  033B  3000               	movlw	0
  3197  033C  00A2               	movwf	?___fldiv+2
  3198  033D  3000               	movlw	0
  3199  033E  00A1               	movwf	?___fldiv+1
  3200  033F  3000               	movlw	0
  3201  0340  00A0               	movwf	?___fldiv
  3202  0341  2C93               	goto	l556
  3203  0342                     l1391:
  3204  0342  0838               	movf	___fldiv@bexp,w
  3205  0343  00A8               	movwf	??___fldiv
  3206  0344  01A9               	clrf	??___fldiv+1
  3207  0345  0829               	movf	??___fldiv+1,w
  3208  0346  00AB               	movwf	??___fldiv+3
  3209  0347  0839               	movf	___fldiv@aexp,w
  3210  0348  0228               	subwf	??___fldiv,w
  3211  0349  00AA               	movwf	??___fldiv+2
  3212  034A  1C03               	skipc
  3213  034B  03AB               	decf	??___fldiv+3,f
  3214  034C  082A               	movf	??___fldiv+2,w
  3215  034D  3E7F               	addlw	127
  3216  034E  00B2               	movwf	___fldiv@new_exp
  3217  034F  082B               	movf	??___fldiv+3,w
  3218  0350  1803               	skipnc
  3219  0351  3E01               	addlw	1
  3220  0352  3E00               	addlw	0
  3221  0353  00B3               	movwf	___fldiv@new_exp+1
  3222  0354                     l1393:
  3223  0354  0827               	movf	___fldiv@b+3,w
  3224  0355  00B0               	movwf	___fldiv@rem+3
  3225  0356  0826               	movf	___fldiv@b+2,w
  3226  0357  00AF               	movwf	___fldiv@rem+2
  3227  0358  0825               	movf	___fldiv@b+1,w
  3228  0359  00AE               	movwf	___fldiv@rem+1
  3229  035A  0824               	movf	___fldiv@b,w
  3230  035B  00AD               	movwf	___fldiv@rem
  3231  035C                     l1395:
  3232  035C  3000               	movlw	0
  3233  035D  00A7               	movwf	___fldiv@b+3
  3234  035E  3000               	movlw	0
  3235  035F  00A6               	movwf	___fldiv@b+2
  3236  0360  3000               	movlw	0
  3237  0361  00A5               	movwf	___fldiv@b+1
  3238  0362  3000               	movlw	0
  3239  0363  00A4               	movwf	___fldiv@b
  3240  0364                     l1397:
  3241  0364  3000               	movlw	0
  3242  0365  00B7               	movwf	___fldiv@grs+3
  3243  0366  3000               	movlw	0
  3244  0367  00B6               	movwf	___fldiv@grs+2
  3245  0368  3000               	movlw	0
  3246  0369  00B5               	movwf	___fldiv@grs+1
  3247  036A  3000               	movlw	0
  3248  036B  00B4               	movwf	___fldiv@grs
  3249  036C                     l1399:
  3250  036C  01B9               	clrf	___fldiv@aexp
  3251  036D  2BB8               	goto	l1419
  3252  036E                     l1401:
  3253  036E  0839               	movf	___fldiv@aexp,w
  3254  036F  1903               	btfsc	3,2
  3255  0370  2B72               	goto	u1181
  3256  0371  2B73               	goto	u1180
  3257  0372                     u1181:
  3258  0372  2B93               	goto	l1411
  3259  0373                     u1180:
  3260  0373                     l1403:
  3261  0373  3001               	movlw	1
  3262  0374  00A8               	movwf	??___fldiv
  3263  0375                     u1195:
  3264  0375  1003               	clrc
  3265  0376  0DAD               	rlf	___fldiv@rem,f
  3266  0377  0DAE               	rlf	___fldiv@rem+1,f
  3267  0378  0DAF               	rlf	___fldiv@rem+2,f
  3268  0379  0DB0               	rlf	___fldiv@rem+3,f
  3269  037A  0BA8               	decfsz	??___fldiv,f
  3270  037B  2B75               	goto	u1195
  3271  037C  3001               	movlw	1
  3272  037D  00A8               	movwf	??___fldiv
  3273  037E                     u1205:
  3274  037E  1003               	clrc
  3275  037F  0DA4               	rlf	___fldiv@b,f
  3276  0380  0DA5               	rlf	___fldiv@b+1,f
  3277  0381  0DA6               	rlf	___fldiv@b+2,f
  3278  0382  0DA7               	rlf	___fldiv@b+3,f
  3279  0383  0BA8               	decfsz	??___fldiv,f
  3280  0384  2B7E               	goto	u1205
  3281  0385                     l1405:
  3282  0385  1FB7               	btfss	___fldiv@grs+3,7
  3283  0386  2B88               	goto	u1211
  3284  0387  2B89               	goto	u1210
  3285  0388                     u1211:
  3286  0388  2B8A               	goto	l1409
  3287  0389                     u1210:
  3288  0389                     l1407:
  3289  0389  1424               	bsf	___fldiv@b,0
  3290  038A                     l1409:
  3291  038A  3001               	movlw	1
  3292  038B  00A8               	movwf	??___fldiv
  3293  038C                     u1225:
  3294  038C  1003               	clrc
  3295  038D  0DB4               	rlf	___fldiv@grs,f
  3296  038E  0DB5               	rlf	___fldiv@grs+1,f
  3297  038F  0DB6               	rlf	___fldiv@grs+2,f
  3298  0390  0DB7               	rlf	___fldiv@grs+3,f
  3299  0391  0BA8               	decfsz	??___fldiv,f
  3300  0392  2B8C               	goto	u1225
  3301  0393                     l1411:
  3302  0393  0823               	movf	___fldiv@a+3,w
  3303  0394  0230               	subwf	___fldiv@rem+3,w
  3304  0395  1D03               	skipz
  3305  0396  2BA1               	goto	u1235
  3306  0397  0822               	movf	___fldiv@a+2,w
  3307  0398  022F               	subwf	___fldiv@rem+2,w
  3308  0399  1D03               	skipz
  3309  039A  2BA1               	goto	u1235
  3310  039B  0821               	movf	___fldiv@a+1,w
  3311  039C  022E               	subwf	___fldiv@rem+1,w
  3312  039D  1D03               	skipz
  3313  039E  2BA1               	goto	u1235
  3314  039F  0820               	movf	___fldiv@a,w
  3315  03A0  022D               	subwf	___fldiv@rem,w
  3316  03A1                     u1235:
  3317  03A1  1C03               	skipc
  3318  03A2  2BA4               	goto	u1231
  3319  03A3  2BA5               	goto	u1230
  3320  03A4                     u1231:
  3321  03A4  2BB4               	goto	l1417
  3322  03A5                     u1230:
  3323  03A5                     l1413:
  3324  03A5  1737               	bsf	___fldiv@grs+3,6
  3325  03A6                     l1415:
  3326  03A6  0820               	movf	___fldiv@a,w
  3327  03A7  02AD               	subwf	___fldiv@rem,f
  3328  03A8  0821               	movf	___fldiv@a+1,w
  3329  03A9  1C03               	skipc
  3330  03AA  0F21               	incfsz	___fldiv@a+1,w
  3331  03AB  02AE               	subwf	___fldiv@rem+1,f
  3332  03AC  0822               	movf	___fldiv@a+2,w
  3333  03AD  1C03               	skipc
  3334  03AE  0F22               	incfsz	___fldiv@a+2,w
  3335  03AF  02AF               	subwf	___fldiv@rem+2,f
  3336  03B0  0823               	movf	___fldiv@a+3,w
  3337  03B1  1C03               	skipc
  3338  03B2  0F23               	incfsz	___fldiv@a+3,w
  3339  03B3  02B0               	subwf	___fldiv@rem+3,f
  3340  03B4                     l1417:
  3341  03B4  3001               	movlw	1
  3342  03B5  00A8               	movwf	??___fldiv
  3343  03B6  0828               	movf	??___fldiv,w
  3344  03B7  07B9               	addwf	___fldiv@aexp,f
  3345  03B8                     l1419:
  3346  03B8  301A               	movlw	26
  3347  03B9  0239               	subwf	___fldiv@aexp,w
  3348  03BA  1C03               	skipc
  3349  03BB  2BBD               	goto	u1241
  3350  03BC  2BBE               	goto	u1240
  3351  03BD                     u1241:
  3352  03BD  2B6E               	goto	l1401
  3353  03BE                     u1240:
  3354  03BE                     l1421:
  3355  03BE  0830               	movf	___fldiv@rem+3,w
  3356  03BF  042F               	iorwf	___fldiv@rem+2,w
  3357  03C0  042E               	iorwf	___fldiv@rem+1,w
  3358  03C1  042D               	iorwf	___fldiv@rem,w
  3359  03C2  1903               	skipnz
  3360  03C3  2BC5               	goto	u1251
  3361  03C4  2BC6               	goto	u1250
  3362  03C5                     u1251:
  3363  03C5  2BE5               	goto	l1435
  3364  03C6                     u1250:
  3365  03C6                     l1423:
  3366  03C6  1434               	bsf	___fldiv@grs,0
  3367  03C7  2BE5               	goto	l1435
  3368  03C8                     l1425:
  3369  03C8  3001               	movlw	1
  3370  03C9  00A8               	movwf	??___fldiv
  3371  03CA                     u1265:
  3372  03CA  1003               	clrc
  3373  03CB  0DA4               	rlf	___fldiv@b,f
  3374  03CC  0DA5               	rlf	___fldiv@b+1,f
  3375  03CD  0DA6               	rlf	___fldiv@b+2,f
  3376  03CE  0DA7               	rlf	___fldiv@b+3,f
  3377  03CF  0BA8               	decfsz	??___fldiv,f
  3378  03D0  2BCA               	goto	u1265
  3379  03D1                     l1427:
  3380  03D1  1FB7               	btfss	___fldiv@grs+3,7
  3381  03D2  2BD4               	goto	u1271
  3382  03D3  2BD5               	goto	u1270
  3383  03D4                     u1271:
  3384  03D4  2BD6               	goto	l1431
  3385  03D5                     u1270:
  3386  03D5                     l1429:
  3387  03D5  1424               	bsf	___fldiv@b,0
  3388  03D6                     l1431:
  3389  03D6  3001               	movlw	1
  3390  03D7  00A8               	movwf	??___fldiv
  3391  03D8                     u1285:
  3392  03D8  1003               	clrc
  3393  03D9  0DB4               	rlf	___fldiv@grs,f
  3394  03DA  0DB5               	rlf	___fldiv@grs+1,f
  3395  03DB  0DB6               	rlf	___fldiv@grs+2,f
  3396  03DC  0DB7               	rlf	___fldiv@grs+3,f
  3397  03DD  0BA8               	decfsz	??___fldiv,f
  3398  03DE  2BD8               	goto	u1285
  3399  03DF                     l1433:
  3400  03DF  30FF               	movlw	255
  3401  03E0  07B2               	addwf	___fldiv@new_exp,f
  3402  03E1  1803               	skipnc
  3403  03E2  0AB3               	incf	___fldiv@new_exp+1,f
  3404  03E3  30FF               	movlw	255
  3405  03E4  07B3               	addwf	___fldiv@new_exp+1,f
  3406  03E5                     l1435:
  3407  03E5  1FA6               	btfss	___fldiv@b+2,7
  3408  03E6  2BE8               	goto	u1291
  3409  03E7  2BE9               	goto	u1290
  3410  03E8                     u1291:
  3411  03E8  2BC8               	goto	l1425
  3412  03E9                     u1290:
  3413  03E9                     l1437:
  3414  03E9  01B9               	clrf	___fldiv@aexp
  3415  03EA                     l1439:
  3416  03EA  1FB7               	btfss	___fldiv@grs+3,7
  3417  03EB  2BED               	goto	u1301
  3418  03EC  2BEE               	goto	u1300
  3419  03ED                     u1301:
  3420  03ED  2C0A               	goto	l1447
  3421  03EE                     u1300:
  3422  03EE                     l1441:
  3423  03EE  30FF               	movlw	255
  3424  03EF  0534               	andwf	___fldiv@grs,w
  3425  03F0  00A8               	movwf	??___fldiv
  3426  03F1  30FF               	movlw	255
  3427  03F2  0535               	andwf	___fldiv@grs+1,w
  3428  03F3  00A9               	movwf	??___fldiv+1
  3429  03F4  30FF               	movlw	255
  3430  03F5  0536               	andwf	___fldiv@grs+2,w
  3431  03F6  00AA               	movwf	??___fldiv+2
  3432  03F7  307F               	movlw	127
  3433  03F8  0537               	andwf	___fldiv@grs+3,w
  3434  03F9  00AB               	movwf	??___fldiv+3
  3435  03FA  082B               	movf	??___fldiv+3,w
  3436  03FB  042A               	iorwf	??___fldiv+2,w
  3437  03FC  0429               	iorwf	??___fldiv+1,w
  3438  03FD  0428               	iorwf	??___fldiv,w
  3439  03FE  1903               	skipnz
  3440  03FF  2C01               	goto	u1311
  3441  0400  2C02               	goto	u1310
  3442  0401                     u1311:
  3443  0401  2C05               	goto	l570
  3444  0402                     u1310:
  3445  0402                     l1443:
  3446  0402  01B9               	clrf	___fldiv@aexp
  3447  0403  0AB9               	incf	___fldiv@aexp,f
  3448  0404  2C0A               	goto	l1447
  3449  0405                     l570:
  3450  0405  1C24               	btfss	___fldiv@b,0
  3451  0406  2C08               	goto	u1321
  3452  0407  2C09               	goto	u1320
  3453  0408                     u1321:
  3454  0408  2C0A               	goto	l1447
  3455  0409                     u1320:
  3456  0409  2C02               	goto	l1443
  3457  040A                     l1447:
  3458  040A  0839               	movf	___fldiv@aexp,w
  3459  040B  1903               	btfsc	3,2
  3460  040C  2C0E               	goto	u1331
  3461  040D  2C0F               	goto	u1330
  3462  040E                     u1331:
  3463  040E  2C40               	goto	l1457
  3464  040F                     u1330:
  3465  040F                     l1449:
  3466  040F  3001               	movlw	1
  3467  0410  07A4               	addwf	___fldiv@b,f
  3468  0411  3000               	movlw	0
  3469  0412  1803               	skipnc
  3470  0413  3001               	movlw	1
  3471  0414  07A5               	addwf	___fldiv@b+1,f
  3472  0415  3000               	movlw	0
  3473  0416  1803               	skipnc
  3474  0417  3001               	movlw	1
  3475  0418  07A6               	addwf	___fldiv@b+2,f
  3476  0419  3000               	movlw	0
  3477  041A  1803               	skipnc
  3478  041B  3001               	movlw	1
  3479  041C  07A7               	addwf	___fldiv@b+3,f
  3480  041D                     l1451:
  3481  041D  1C27               	btfss	___fldiv@b+3,0
  3482  041E  2C20               	goto	u1341
  3483  041F  2C21               	goto	u1340
  3484  0420                     u1341:
  3485  0420  2C40               	goto	l1457
  3486  0421                     u1340:
  3487  0421                     l1453:
  3488  0421  0824               	movf	___fldiv@b,w
  3489  0422  00A8               	movwf	??___fldiv
  3490  0423  0825               	movf	___fldiv@b+1,w
  3491  0424  00A9               	movwf	??___fldiv+1
  3492  0425  0826               	movf	___fldiv@b+2,w
  3493  0426  00AA               	movwf	??___fldiv+2
  3494  0427  0827               	movf	___fldiv@b+3,w
  3495  0428  00AB               	movwf	??___fldiv+3
  3496  0429  3001               	movlw	1
  3497  042A  00AC               	movwf	??___fldiv+4
  3498  042B                     u1355:
  3499  042B  0D2B               	rlf	??___fldiv+3,w
  3500  042C  0CAB               	rrf	??___fldiv+3,f
  3501  042D  0CAA               	rrf	??___fldiv+2,f
  3502  042E  0CA9               	rrf	??___fldiv+1,f
  3503  042F  0CA8               	rrf	??___fldiv,f
  3504  0430                     u1350:
  3505  0430  0BAC               	decfsz	??___fldiv+4,f
  3506  0431  2C2B               	goto	u1355
  3507  0432  082B               	movf	??___fldiv+3,w
  3508  0433  00A7               	movwf	___fldiv@b+3
  3509  0434  082A               	movf	??___fldiv+2,w
  3510  0435  00A6               	movwf	___fldiv@b+2
  3511  0436  0829               	movf	??___fldiv+1,w
  3512  0437  00A5               	movwf	___fldiv@b+1
  3513  0438  0828               	movf	??___fldiv,w
  3514  0439  00A4               	movwf	___fldiv@b
  3515  043A                     l1455:
  3516  043A  3001               	movlw	1
  3517  043B  07B2               	addwf	___fldiv@new_exp,f
  3518  043C  1803               	skipnc
  3519  043D  0AB3               	incf	___fldiv@new_exp+1,f
  3520  043E  3000               	movlw	0
  3521  043F  07B3               	addwf	___fldiv@new_exp+1,f
  3522  0440                     l1457:
  3523  0440  0833               	movf	___fldiv@new_exp+1,w
  3524  0441  3A80               	xorlw	128
  3525  0442  00FF               	movwf	btemp+1
  3526  0443  3080               	movlw	128
  3527  0444  027F               	subwf	btemp+1,w
  3528  0445  1D03               	skipz
  3529  0446  2C49               	goto	u1365
  3530  0447  30FF               	movlw	255
  3531  0448  0232               	subwf	___fldiv@new_exp,w
  3532  0449                     u1365:
  3533  0449  1C03               	skipc
  3534  044A  2C4C               	goto	u1361
  3535  044B  2C4D               	goto	u1360
  3536  044C                     u1361:
  3537  044C  2C5B               	goto	l1461
  3538  044D                     u1360:
  3539  044D                     l1459:
  3540  044D  30FF               	movlw	255
  3541  044E  1283               	bcf	3,5	;RP0=0, select bank0
  3542  044F  1303               	bcf	3,6	;RP1=0, select bank0
  3543  0450  00B2               	movwf	___fldiv@new_exp
  3544  0451  3000               	movlw	0
  3545  0452  00B3               	movwf	___fldiv@new_exp+1
  3546  0453  3000               	movlw	0
  3547  0454  00A7               	movwf	___fldiv@b+3
  3548  0455  3000               	movlw	0
  3549  0456  00A6               	movwf	___fldiv@b+2
  3550  0457  3000               	movlw	0
  3551  0458  00A5               	movwf	___fldiv@b+1
  3552  0459  3000               	movlw	0
  3553  045A  00A4               	movwf	___fldiv@b
  3554  045B                     l1461:
  3555  045B  1283               	bcf	3,5	;RP0=0, select bank0
  3556  045C  1303               	bcf	3,6	;RP1=0, select bank0
  3557  045D  0833               	movf	___fldiv@new_exp+1,w
  3558  045E  3A80               	xorlw	128
  3559  045F  00FF               	movwf	btemp+1
  3560  0460  3080               	movlw	128
  3561  0461  027F               	subwf	btemp+1,w
  3562  0462  1D03               	skipz
  3563  0463  2C66               	goto	u1375
  3564  0464  3001               	movlw	1
  3565  0465  0232               	subwf	___fldiv@new_exp,w
  3566  0466                     u1375:
  3567  0466  1803               	skipnc
  3568  0467  2C69               	goto	u1371
  3569  0468  2C6A               	goto	u1370
  3570  0469                     u1371:
  3571  0469  2C77               	goto	l576
  3572  046A                     u1370:
  3573  046A                     l1463:
  3574  046A  1283               	bcf	3,5	;RP0=0, select bank0
  3575  046B  1303               	bcf	3,6	;RP1=0, select bank0
  3576  046C  01B2               	clrf	___fldiv@new_exp
  3577  046D  01B3               	clrf	___fldiv@new_exp+1
  3578  046E                     l1465:
  3579  046E  3000               	movlw	0
  3580  046F  00A7               	movwf	___fldiv@b+3
  3581  0470  3000               	movlw	0
  3582  0471  00A6               	movwf	___fldiv@b+2
  3583  0472  3000               	movlw	0
  3584  0473  00A5               	movwf	___fldiv@b+1
  3585  0474  3000               	movlw	0
  3586  0475  00A4               	movwf	___fldiv@b
  3587  0476                     l1467:
  3588  0476  01B1               	clrf	___fldiv@sign
  3589  0477                     l576:
  3590  0477  1283               	bcf	3,5	;RP0=0, select bank0
  3591  0478  1303               	bcf	3,6	;RP1=0, select bank0
  3592  0479  0832               	movf	___fldiv@new_exp,w
  3593  047A  00A8               	movwf	??___fldiv
  3594  047B  0828               	movf	??___fldiv,w
  3595  047C  00B8               	movwf	___fldiv@bexp
  3596  047D                     l1469:
  3597  047D  1C38               	btfss	___fldiv@bexp,0
  3598  047E  2C80               	goto	u1381
  3599  047F  2C81               	goto	u1380
  3600  0480                     u1381:
  3601  0480  2C83               	goto	l1473
  3602  0481                     u1380:
  3603  0481                     l1471:
  3604  0481  17A6               	bsf	___fldiv@b+2,7
  3605  0482  2C87               	goto	l578
  3606  0483                     l1473:
  3607  0483  307F               	movlw	127
  3608  0484  00A8               	movwf	??___fldiv
  3609  0485  0828               	movf	??___fldiv,w
  3610  0486  05A6               	andwf	___fldiv@b+2,f
  3611  0487                     l578:
  3612  0487  0838               	movf	___fldiv@bexp,w
  3613  0488  00A8               	movwf	??___fldiv
  3614  0489  1003               	clrc
  3615  048A  0C28               	rrf	??___fldiv,w
  3616  048B  00A9               	movwf	??___fldiv+1
  3617  048C  0829               	movf	??___fldiv+1,w
  3618  048D  00A7               	movwf	___fldiv@b+3
  3619  048E  0831               	movf	___fldiv@sign,w
  3620  048F  00A8               	movwf	??___fldiv
  3621  0490  0828               	movf	??___fldiv,w
  3622  0491  04A7               	iorwf	___fldiv@b+3,f
  3623  0492  2B2B               	goto	l1381
  3624  0493                     l556:
  3625  0493  0008               	return
  3626  0494                     __end_of___fldiv:
  3627                           
  3628                           	psect	text8
  3629  0076                     __ptext8:	
  3630 ;; *************** function _Select_ch *****************
  3631 ;; Defined at:
  3632 ;;		line 107 in file "ADC_LIB.c"
  3633 ;; Parameters:    Size  Location     Type
  3634 ;;  channel         1    wreg     unsigned char 
  3635 ;; Auto vars:     Size  Location     Type
  3636 ;;  channel         1    2[COMMON] unsigned char 
  3637 ;; Return value:  Size  Location     Type
  3638 ;;                  1    wreg      void 
  3639 ;; Registers used:
  3640 ;;		wreg, fsr0l, fsr0h, status,2, status,0
  3641 ;; Tracked objects:
  3642 ;;		On entry : 0/0
  3643 ;;		On exit  : 0/0
  3644 ;;		Unchanged: 0/0
  3645 ;; Data sizes:     COMMON   BANK0   BANK1   BANK3   BANK2
  3646 ;;      Params:         0       0       0       0       0
  3647 ;;      Locals:         1       0       0       0       0
  3648 ;;      Temps:          2       0       0       0       0
  3649 ;;      Totals:         3       0       0       0       0
  3650 ;;Total ram usage:        3 bytes
  3651 ;; Hardware stack levels used:    1
  3652 ;; This function calls:
  3653 ;;		Nothing
  3654 ;; This function is called by:
  3655 ;;		_main
  3656 ;; This function uses a non-reentrant model
  3657 ;;
  3658                           
  3659                           
  3660                           ;psect for function _Select_ch
  3661  0076                     _Select_ch:
  3662                           
  3663                           ;incstack = 0
  3664                           ; Regs used in _Select_ch: [wreg-fsr0h+status,2+status,0]
  3665                           ;Select_ch@channel stored from wreg
  3666  0076  00F2               	movwf	Select_ch@channel
  3667  0077                     l1307:
  3668                           
  3669                           ;ADC_LIB.c: 108:     switch (channel) {
  3670  0077  28E8               	goto	l1311
  3671  0078                     l102:	
  3672                           ;ADC_LIB.c: 109:         case 0:
  3673                           
  3674                           
  3675                           ;ADC_LIB.c: 110:             ADCON0bits.CHS0 = 0;
  3676  0078  1283               	bcf	3,5	;RP0=0, select bank0
  3677  0079  1303               	bcf	3,6	;RP1=0, select bank0
  3678  007A  111F               	bcf	31,2	;volatile
  3679                           
  3680                           ;ADC_LIB.c: 111:             ADCON0bits.CHS1 = 0;
  3681  007B  119F               	bcf	31,3	;volatile
  3682                           
  3683                           ;ADC_LIB.c: 112:             ADCON0bits.CHS2 = 0;
  3684  007C  121F               	bcf	31,4	;volatile
  3685                           
  3686                           ;ADC_LIB.c: 113:             ADCON0bits.CHS3 = 0;
  3687  007D  129F               	bcf	31,5	;volatile
  3688                           
  3689                           ;ADC_LIB.c: 114:             break;
  3690  007E  2922               	goto	l103
  3691  007F                     l104:	
  3692                           ;ADC_LIB.c: 115:         case 1:
  3693                           
  3694                           
  3695                           ;ADC_LIB.c: 116:             ADCON0bits.CHS0 = 1;
  3696  007F  1283               	bcf	3,5	;RP0=0, select bank0
  3697  0080  1303               	bcf	3,6	;RP1=0, select bank0
  3698  0081  151F               	bsf	31,2	;volatile
  3699                           
  3700                           ;ADC_LIB.c: 117:             ADCON0bits.CHS1 = 0;
  3701  0082  119F               	bcf	31,3	;volatile
  3702                           
  3703                           ;ADC_LIB.c: 118:             ADCON0bits.CHS2 = 0;
  3704  0083  121F               	bcf	31,4	;volatile
  3705                           
  3706                           ;ADC_LIB.c: 119:             ADCON0bits.CHS3 = 0;
  3707  0084  129F               	bcf	31,5	;volatile
  3708                           
  3709                           ;ADC_LIB.c: 120:             break;
  3710  0085  2922               	goto	l103
  3711  0086                     l105:	
  3712                           ;ADC_LIB.c: 121:         case 2:
  3713                           
  3714                           
  3715                           ;ADC_LIB.c: 122:             ADCON0bits.CHS0 = 0;
  3716  0086  1283               	bcf	3,5	;RP0=0, select bank0
  3717  0087  1303               	bcf	3,6	;RP1=0, select bank0
  3718  0088  111F               	bcf	31,2	;volatile
  3719                           
  3720                           ;ADC_LIB.c: 123:             ADCON0bits.CHS1 = 1;
  3721  0089  159F               	bsf	31,3	;volatile
  3722                           
  3723                           ;ADC_LIB.c: 124:             ADCON0bits.CHS2 = 0;
  3724  008A  121F               	bcf	31,4	;volatile
  3725                           
  3726                           ;ADC_LIB.c: 125:             ADCON0bits.CHS3 = 0;
  3727  008B  129F               	bcf	31,5	;volatile
  3728                           
  3729                           ;ADC_LIB.c: 126:             break;
  3730  008C  2922               	goto	l103
  3731  008D                     l106:	
  3732                           ;ADC_LIB.c: 127:         case 3:
  3733                           
  3734                           
  3735                           ;ADC_LIB.c: 128:             ADCON0bits.CHS0 = 1;
  3736  008D  1283               	bcf	3,5	;RP0=0, select bank0
  3737  008E  1303               	bcf	3,6	;RP1=0, select bank0
  3738  008F  151F               	bsf	31,2	;volatile
  3739                           
  3740                           ;ADC_LIB.c: 129:             ADCON0bits.CHS1 = 1;
  3741  0090  159F               	bsf	31,3	;volatile
  3742                           
  3743                           ;ADC_LIB.c: 130:             ADCON0bits.CHS2 = 0;
  3744  0091  121F               	bcf	31,4	;volatile
  3745                           
  3746                           ;ADC_LIB.c: 131:             ADCON0bits.CHS3 = 0;
  3747  0092  129F               	bcf	31,5	;volatile
  3748                           
  3749                           ;ADC_LIB.c: 132:             break;
  3750  0093  2922               	goto	l103
  3751  0094                     l107:	
  3752                           ;ADC_LIB.c: 133:         case 4:
  3753                           
  3754                           
  3755                           ;ADC_LIB.c: 134:             ADCON0bits.CHS0 = 0;
  3756  0094  1283               	bcf	3,5	;RP0=0, select bank0
  3757  0095  1303               	bcf	3,6	;RP1=0, select bank0
  3758  0096  111F               	bcf	31,2	;volatile
  3759                           
  3760                           ;ADC_LIB.c: 135:             ADCON0bits.CHS1 = 0;
  3761  0097  119F               	bcf	31,3	;volatile
  3762                           
  3763                           ;ADC_LIB.c: 136:             ADCON0bits.CHS2 = 1;
  3764  0098  161F               	bsf	31,4	;volatile
  3765                           
  3766                           ;ADC_LIB.c: 137:             ADCON0bits.CHS3 = 0;
  3767  0099  129F               	bcf	31,5	;volatile
  3768                           
  3769                           ;ADC_LIB.c: 138:             break;
  3770  009A  2922               	goto	l103
  3771  009B                     l108:	
  3772                           ;ADC_LIB.c: 139:         case 5:
  3773                           
  3774                           
  3775                           ;ADC_LIB.c: 140:             ADCON0bits.CHS0 = 1;
  3776  009B  1283               	bcf	3,5	;RP0=0, select bank0
  3777  009C  1303               	bcf	3,6	;RP1=0, select bank0
  3778  009D  151F               	bsf	31,2	;volatile
  3779                           
  3780                           ;ADC_LIB.c: 141:             ADCON0bits.CHS1 = 0;
  3781  009E  119F               	bcf	31,3	;volatile
  3782                           
  3783                           ;ADC_LIB.c: 142:             ADCON0bits.CHS2 = 1;
  3784  009F  161F               	bsf	31,4	;volatile
  3785                           
  3786                           ;ADC_LIB.c: 143:             ADCON0bits.CHS3 = 0;
  3787  00A0  129F               	bcf	31,5	;volatile
  3788                           
  3789                           ;ADC_LIB.c: 144:             break;
  3790  00A1  2922               	goto	l103
  3791  00A2                     l109:	
  3792                           ;ADC_LIB.c: 145:         case 6:
  3793                           
  3794                           
  3795                           ;ADC_LIB.c: 146:             ADCON0bits.CHS0 = 0;
  3796  00A2  1283               	bcf	3,5	;RP0=0, select bank0
  3797  00A3  1303               	bcf	3,6	;RP1=0, select bank0
  3798  00A4  111F               	bcf	31,2	;volatile
  3799                           
  3800                           ;ADC_LIB.c: 147:             ADCON0bits.CHS1 = 1;
  3801  00A5  159F               	bsf	31,3	;volatile
  3802                           
  3803                           ;ADC_LIB.c: 148:             ADCON0bits.CHS2 = 1;
  3804  00A6  161F               	bsf	31,4	;volatile
  3805                           
  3806                           ;ADC_LIB.c: 149:             ADCON0bits.CHS3 = 0;
  3807  00A7  129F               	bcf	31,5	;volatile
  3808                           
  3809                           ;ADC_LIB.c: 150:             break;
  3810  00A8  2922               	goto	l103
  3811  00A9                     l110:	
  3812                           ;ADC_LIB.c: 151:         case 7:
  3813                           
  3814                           
  3815                           ;ADC_LIB.c: 152:             ADCON0bits.CHS0 = 1;
  3816  00A9  1283               	bcf	3,5	;RP0=0, select bank0
  3817  00AA  1303               	bcf	3,6	;RP1=0, select bank0
  3818  00AB  151F               	bsf	31,2	;volatile
  3819                           
  3820                           ;ADC_LIB.c: 153:             ADCON0bits.CHS1 = 1;
  3821  00AC  159F               	bsf	31,3	;volatile
  3822                           
  3823                           ;ADC_LIB.c: 154:             ADCON0bits.CHS2 = 1;
  3824  00AD  161F               	bsf	31,4	;volatile
  3825                           
  3826                           ;ADC_LIB.c: 155:             ADCON0bits.CHS3 = 0;
  3827  00AE  129F               	bcf	31,5	;volatile
  3828                           
  3829                           ;ADC_LIB.c: 156:             break;
  3830  00AF  2922               	goto	l103
  3831  00B0                     l111:	
  3832                           ;ADC_LIB.c: 157:         case 8:
  3833                           
  3834                           
  3835                           ;ADC_LIB.c: 158:             ADCON0bits.CHS0 = 0;
  3836  00B0  1283               	bcf	3,5	;RP0=0, select bank0
  3837  00B1  1303               	bcf	3,6	;RP1=0, select bank0
  3838  00B2  111F               	bcf	31,2	;volatile
  3839                           
  3840                           ;ADC_LIB.c: 159:             ADCON0bits.CHS1 = 0;
  3841  00B3  119F               	bcf	31,3	;volatile
  3842                           
  3843                           ;ADC_LIB.c: 160:             ADCON0bits.CHS2 = 0;
  3844  00B4  121F               	bcf	31,4	;volatile
  3845                           
  3846                           ;ADC_LIB.c: 161:             ADCON0bits.CHS3 = 1;
  3847  00B5  169F               	bsf	31,5	;volatile
  3848                           
  3849                           ;ADC_LIB.c: 162:             break;
  3850  00B6  2922               	goto	l103
  3851  00B7                     l112:	
  3852                           ;ADC_LIB.c: 163:         case 9:
  3853                           
  3854                           
  3855                           ;ADC_LIB.c: 164:             ADCON0bits.CHS0 = 1;
  3856  00B7  1283               	bcf	3,5	;RP0=0, select bank0
  3857  00B8  1303               	bcf	3,6	;RP1=0, select bank0
  3858  00B9  151F               	bsf	31,2	;volatile
  3859                           
  3860                           ;ADC_LIB.c: 165:             ADCON0bits.CHS1 = 0;
  3861  00BA  119F               	bcf	31,3	;volatile
  3862                           
  3863                           ;ADC_LIB.c: 166:             ADCON0bits.CHS2 = 0;
  3864  00BB  121F               	bcf	31,4	;volatile
  3865                           
  3866                           ;ADC_LIB.c: 167:             ADCON0bits.CHS3 = 1;
  3867  00BC  169F               	bsf	31,5	;volatile
  3868                           
  3869                           ;ADC_LIB.c: 168:             break;
  3870  00BD  2922               	goto	l103
  3871  00BE                     l113:	
  3872                           ;ADC_LIB.c: 169:         case 10:
  3873                           
  3874                           
  3875                           ;ADC_LIB.c: 170:             ADCON0bits.CHS0 = 0;
  3876  00BE  1283               	bcf	3,5	;RP0=0, select bank0
  3877  00BF  1303               	bcf	3,6	;RP1=0, select bank0
  3878  00C0  111F               	bcf	31,2	;volatile
  3879                           
  3880                           ;ADC_LIB.c: 171:             ADCON0bits.CHS1 = 1;
  3881  00C1  159F               	bsf	31,3	;volatile
  3882                           
  3883                           ;ADC_LIB.c: 172:             ADCON0bits.CHS2 = 0;
  3884  00C2  121F               	bcf	31,4	;volatile
  3885                           
  3886                           ;ADC_LIB.c: 173:             ADCON0bits.CHS3 = 1;
  3887  00C3  169F               	bsf	31,5	;volatile
  3888                           
  3889                           ;ADC_LIB.c: 174:             break;
  3890  00C4  2922               	goto	l103
  3891  00C5                     l114:	
  3892                           ;ADC_LIB.c: 175:         case 11:
  3893                           
  3894                           
  3895                           ;ADC_LIB.c: 176:             ADCON0bits.CHS0 = 1;
  3896  00C5  1283               	bcf	3,5	;RP0=0, select bank0
  3897  00C6  1303               	bcf	3,6	;RP1=0, select bank0
  3898  00C7  151F               	bsf	31,2	;volatile
  3899                           
  3900                           ;ADC_LIB.c: 177:             ADCON0bits.CHS1 = 1;
  3901  00C8  159F               	bsf	31,3	;volatile
  3902                           
  3903                           ;ADC_LIB.c: 178:             ADCON0bits.CHS2 = 0;
  3904  00C9  121F               	bcf	31,4	;volatile
  3905                           
  3906                           ;ADC_LIB.c: 179:             ADCON0bits.CHS3 = 1;
  3907  00CA  169F               	bsf	31,5	;volatile
  3908                           
  3909                           ;ADC_LIB.c: 180:             break;
  3910  00CB  2922               	goto	l103
  3911  00CC                     l115:	
  3912                           ;ADC_LIB.c: 181:         case 12:
  3913                           
  3914                           
  3915                           ;ADC_LIB.c: 182:             ADCON0bits.CHS0 = 0;
  3916  00CC  1283               	bcf	3,5	;RP0=0, select bank0
  3917  00CD  1303               	bcf	3,6	;RP1=0, select bank0
  3918  00CE  111F               	bcf	31,2	;volatile
  3919                           
  3920                           ;ADC_LIB.c: 183:             ADCON0bits.CHS1 = 0;
  3921  00CF  119F               	bcf	31,3	;volatile
  3922                           
  3923                           ;ADC_LIB.c: 184:             ADCON0bits.CHS2 = 1;
  3924  00D0  161F               	bsf	31,4	;volatile
  3925                           
  3926                           ;ADC_LIB.c: 185:             ADCON0bits.CHS3 = 1;
  3927  00D1  169F               	bsf	31,5	;volatile
  3928                           
  3929                           ;ADC_LIB.c: 186:             break;
  3930  00D2  2922               	goto	l103
  3931  00D3                     l116:	
  3932                           ;ADC_LIB.c: 187:         case 13:
  3933                           
  3934                           
  3935                           ;ADC_LIB.c: 188:             ADCON0bits.CHS0 = 1;
  3936  00D3  1283               	bcf	3,5	;RP0=0, select bank0
  3937  00D4  1303               	bcf	3,6	;RP1=0, select bank0
  3938  00D5  151F               	bsf	31,2	;volatile
  3939                           
  3940                           ;ADC_LIB.c: 189:             ADCON0bits.CHS1 = 0;
  3941  00D6  119F               	bcf	31,3	;volatile
  3942                           
  3943                           ;ADC_LIB.c: 190:             ADCON0bits.CHS2 = 1;
  3944  00D7  161F               	bsf	31,4	;volatile
  3945                           
  3946                           ;ADC_LIB.c: 191:             ADCON0bits.CHS3 = 1;
  3947  00D8  169F               	bsf	31,5	;volatile
  3948                           
  3949                           ;ADC_LIB.c: 192:             break;
  3950  00D9  2922               	goto	l103
  3951  00DA                     l117:	
  3952                           ;ADC_LIB.c: 193:         case 14:
  3953                           
  3954                           
  3955                           ;ADC_LIB.c: 194:             ADCON0bits.CHS0 = 0;
  3956  00DA  1283               	bcf	3,5	;RP0=0, select bank0
  3957  00DB  1303               	bcf	3,6	;RP1=0, select bank0
  3958  00DC  111F               	bcf	31,2	;volatile
  3959                           
  3960                           ;ADC_LIB.c: 195:             ADCON0bits.CHS1 = 1;
  3961  00DD  159F               	bsf	31,3	;volatile
  3962                           
  3963                           ;ADC_LIB.c: 196:             ADCON0bits.CHS2 = 1;
  3964  00DE  161F               	bsf	31,4	;volatile
  3965                           
  3966                           ;ADC_LIB.c: 197:             ADCON0bits.CHS3 = 1;
  3967  00DF  169F               	bsf	31,5	;volatile
  3968                           
  3969                           ;ADC_LIB.c: 198:             break;
  3970  00E0  2922               	goto	l103
  3971  00E1                     l118:	
  3972                           ;ADC_LIB.c: 199:         case 15:
  3973                           
  3974                           
  3975                           ;ADC_LIB.c: 200:             ADCON0bits.CHS0 = 1;
  3976  00E1  1283               	bcf	3,5	;RP0=0, select bank0
  3977  00E2  1303               	bcf	3,6	;RP1=0, select bank0
  3978  00E3  151F               	bsf	31,2	;volatile
  3979                           
  3980                           ;ADC_LIB.c: 201:             ADCON0bits.CHS1 = 1;
  3981  00E4  159F               	bsf	31,3	;volatile
  3982                           
  3983                           ;ADC_LIB.c: 202:             ADCON0bits.CHS2 = 1;
  3984  00E5  161F               	bsf	31,4	;volatile
  3985                           
  3986                           ;ADC_LIB.c: 203:             ADCON0bits.CHS3 = 1;
  3987  00E6  169F               	bsf	31,5	;volatile
  3988                           
  3989                           ;ADC_LIB.c: 204:             break;
  3990  00E7  2922               	goto	l103
  3991  00E8                     l1311:
  3992  00E8  0872               	movf	Select_ch@channel,w
  3993  00E9  00F0               	movwf	??_Select_ch
  3994  00EA  01F1               	clrf	??_Select_ch+1
  3995                           
  3996                           ; Switch on 2 bytes has been partitioned into a top level switch of size 1, and 1 sub-sw
      +                          itches
  3997                           ; Switch size 1, requested type "simple"
  3998                           ; Number of cases is 1, Range of values is 0 to 0
  3999                           ; switch strategies available:
  4000                           ; Name         Instructions Cycles
  4001                           ; simple_byte            4     3 (average)
  4002                           ; direct_byte           11     8 (fixed)
  4003                           ; jumptable            260     6 (fixed)
  4004                           ;	Chosen strategy is simple_byte
  4005  00EB  0871               	movf	??_Select_ch+1,w
  4006  00EC  3A00               	xorlw	0	; case 0
  4007  00ED  1903               	skipnz
  4008  00EE  28F0               	goto	l1793
  4009  00EF  2922               	goto	l103
  4010  00F0                     l1793:
  4011                           
  4012                           ; Switch size 1, requested type "simple"
  4013                           ; Number of cases is 16, Range of values is 0 to 15
  4014                           ; switch strategies available:
  4015                           ; Name         Instructions Cycles
  4016                           ; simple_byte           49    25 (average)
  4017                           ; direct_byte           56     8 (fixed)
  4018                           ; jumptable            260     6 (fixed)
  4019                           ;	Chosen strategy is simple_byte
  4020  00F0  0870               	movf	??_Select_ch,w
  4021  00F1  3A00               	xorlw	0	; case 0
  4022  00F2  1903               	skipnz
  4023  00F3  2878               	goto	l102
  4024  00F4  3A01               	xorlw	1	; case 1
  4025  00F5  1903               	skipnz
  4026  00F6  287F               	goto	l104
  4027  00F7  3A03               	xorlw	3	; case 2
  4028  00F8  1903               	skipnz
  4029  00F9  2886               	goto	l105
  4030  00FA  3A01               	xorlw	1	; case 3
  4031  00FB  1903               	skipnz
  4032  00FC  288D               	goto	l106
  4033  00FD  3A07               	xorlw	7	; case 4
  4034  00FE  1903               	skipnz
  4035  00FF  2894               	goto	l107
  4036  0100  3A01               	xorlw	1	; case 5
  4037  0101  1903               	skipnz
  4038  0102  289B               	goto	l108
  4039  0103  3A03               	xorlw	3	; case 6
  4040  0104  1903               	skipnz
  4041  0105  28A2               	goto	l109
  4042  0106  3A01               	xorlw	1	; case 7
  4043  0107  1903               	skipnz
  4044  0108  28A9               	goto	l110
  4045  0109  3A0F               	xorlw	15	; case 8
  4046  010A  1903               	skipnz
  4047  010B  28B0               	goto	l111
  4048  010C  3A01               	xorlw	1	; case 9
  4049  010D  1903               	skipnz
  4050  010E  28B7               	goto	l112
  4051  010F  3A03               	xorlw	3	; case 10
  4052  0110  1903               	skipnz
  4053  0111  28BE               	goto	l113
  4054  0112  3A01               	xorlw	1	; case 11
  4055  0113  1903               	skipnz
  4056  0114  28C5               	goto	l114
  4057  0115  3A07               	xorlw	7	; case 12
  4058  0116  1903               	skipnz
  4059  0117  28CC               	goto	l115
  4060  0118  3A01               	xorlw	1	; case 13
  4061  0119  1903               	skipnz
  4062  011A  28D3               	goto	l116
  4063  011B  3A03               	xorlw	3	; case 14
  4064  011C  1903               	skipnz
  4065  011D  28DA               	goto	l117
  4066  011E  3A01               	xorlw	1	; case 15
  4067  011F  1903               	skipnz
  4068  0120  28E1               	goto	l118
  4069  0121  2922               	goto	l103
  4070  0122                     l103:
  4071                           
  4072                           ;ADC_LIB.c: 206:     _delay((unsigned long)((5)*(4000000/4000000.0)));
  4073  0122  2923               	nop2	;2 cycle nop
  4074  0123  2924               	nop2	;2 cycle nop
  4075  0124  0000               	nop
  4076                           
  4077                           ;ADC_LIB.c: 207:     ADCON0bits.GO = 1;
  4078  0125  1283               	bcf	3,5	;RP0=0, select bank0
  4079  0126  1303               	bcf	3,6	;RP1=0, select bank0
  4080  0127  149F               	bsf	31,1	;volatile
  4081  0128                     l119:
  4082  0128  0008               	return
  4083  0129                     __end_of_Select_ch:
  4084  007E                     btemp	set	126	;btemp
  4085  007E                     wtemp0	set	126
  4086                           
  4087                           	psect	config
  4088                           
  4089                           ;Config register CONFIG1 @ 0x2007
  4090                           ;	Oscillator Selection bits
  4091                           ;	FOSC = INTRC_NOCLKOUT, INTOSCIO oscillator: I/O function on RA6/OSC2/CLKOUT pin, I/O f
      +                          unction on RA7/OSC1/CLKIN
  4092                           ;	Watchdog Timer Enable bit
  4093                           ;	WDTE = OFF, WDT disabled and can be enabled by SWDTEN bit of the WDTCON register
  4094                           ;	Power-up Timer Enable bit
  4095                           ;	PWRTE = OFF, PWRT disabled
  4096                           ;	RE3/MCLR pin function select bit
  4097                           ;	MCLRE = OFF, RE3/MCLR pin function is digital input, MCLR internally tied to VDD
  4098                           ;	Code Protection bit
  4099                           ;	CP = OFF, Program memory code protection is disabled
  4100                           ;	Data Code Protection bit
  4101                           ;	CPD = OFF, Data memory code protection is disabled
  4102                           ;	Brown Out Reset Selection bits
  4103                           ;	BOREN = OFF, BOR disabled
  4104                           ;	Internal External Switchover bit
  4105                           ;	IESO = OFF, Internal/External Switchover mode is disabled
  4106                           ;	Fail-Safe Clock Monitor Enabled bit
  4107                           ;	FCMEN = OFF, Fail-Safe Clock Monitor is disabled
  4108                           ;	Low Voltage Programming Enable bit
  4109                           ;	LVP = OFF, RB3 pin has digital I/O, HV on MCLR must be used for programming
  4110                           ;	In-Circuit Debugger Mode bit
  4111                           ;	DEBUG = 0x1, unprogrammed default
  4112  2007                     	org	8199
  4113  2007  20D4               	dw	8404
  4114                           
  4115                           ;Config register CONFIG2 @ 0x2008
  4116                           ;	Brown-out Reset Selection bit
  4117                           ;	BOR4V = BOR40V, Brown-out Reset set to 4.0V
  4118                           ;	Flash Program Memory Self Write Enable bits
  4119                           ;	WRT = OFF, Write protection off
  4120  2008                     	org	8200
  4121  2008  3FFF               	dw	16383

Data Sizes:
    Strings     0
    Constant    0
    Data        0
    BSS         5
    Persistent  0
    Stack       0

Auto Spaces:
    Space          Size  Autos    Used
    COMMON           14     14      14
    BANK0            80     56      61
    BANK1            80      0       0
    BANK3            96      0       0
    BANK2            96      0       0

Pointer List with Targets:

    None.

Critical Paths under _main in COMMON

    _main->___xxtofl
    ___flmul->___xxtofl
    ___fldiv->___xxtofl

Critical Paths under _main in BANK0

    _main->___flmul
    ___flmul->___fldiv

Critical Paths under _main in BANK1

    None.

Critical Paths under _main in BANK3

    None.

Critical Paths under _main in BANK2

    None.

Call Graph Tables:

 ---------------------------------------------------------------------------------
 (Depth) Function   	        Calls       Base Space   Used Autos Params    Refs
 ---------------------------------------------------------------------------------
 (0) _main                                                 4     4      0    4934
                                             52 BANK0      4     4      0
                          _Select_ch
                            ___fldiv
                             ___flge
                            ___flmul
                           ___xxtofl
                          _start_adc
                           _start_ch
 ---------------------------------------------------------------------------------
 (1) _start_ch                                             3     3      0      22
                                              0 COMMON     3     3      0
 ---------------------------------------------------------------------------------
 (1) _start_adc                                            6     3      3     316
                                              0 COMMON     6     3      3
 ---------------------------------------------------------------------------------
 (1) ___xxtofl                                            14    10      4     398
                                              0 COMMON    14    10      4
 ---------------------------------------------------------------------------------
 (1) ___flmul                                             26    18      8    2417
                                             26 BANK0     26    18      8
                          __Umul8_16
                            ___fldiv (ARG)
                           ___xxtofl (ARG)
 ---------------------------------------------------------------------------------
 (2) __Umul8_16                                            9     7      2     799
                                              0 COMMON     9     7      2
 ---------------------------------------------------------------------------------
 (1) ___flge                                              12     4      8     486
                                              0 COMMON    12     4      8
 ---------------------------------------------------------------------------------
 (1) ___fldiv                                             26    18      8    1273
                                              0 BANK0     26    18      8
                           ___xxtofl (ARG)
 ---------------------------------------------------------------------------------
 (1) _Select_ch                                            3     3      0      22
                                              0 COMMON     3     3      0
 ---------------------------------------------------------------------------------
 Estimated maximum stack depth 2
 ---------------------------------------------------------------------------------

 Call Graph Graphs:

 _main (ROOT)
   _Select_ch
   ___fldiv
     ___xxtofl (ARG)
   ___flge
   ___flmul
     __Umul8_16
     ___fldiv (ARG)
       ___xxtofl (ARG)
     ___xxtofl (ARG)
   ___xxtofl
   _start_adc
   _start_ch

 Address spaces:
Name               Size   Autos  Total    Cost      Usage
BITCOMMON            E      0       0       0        0.0%
EEDATA             100      0       0       0        0.0%
NULL                 0      0       0       0        0.0%
CODE                 0      0       0       0        0.0%
COMMON               E      E       E       1      100.0%
BITSFR0              0      0       0       1        0.0%
SFR0                 0      0       0       1        0.0%
BITSFR1              0      0       0       2        0.0%
SFR1                 0      0       0       2        0.0%
STACK                0      0       0       2        0.0%
ABS                  0      0      4B       3        0.0%
BITBANK0            50      0       0       4        0.0%
BITSFR3              0      0       0       4        0.0%
SFR3                 0      0       0       4        0.0%
BANK0               50     38      3D       5       76.2%
BITSFR2              0      0       0       5        0.0%
SFR2                 0      0       0       5        0.0%
BITBANK1            50      0       0       6        0.0%
BANK1               50      0       0       7        0.0%
BITBANK3            60      0       0       8        0.0%
BANK3               60      0       0       9        0.0%
BITBANK2            60      0       0      10        0.0%
BANK2               60      0       0      11        0.0%
DATA                 0      0      4B      12        0.0%


Microchip Technology PIC Macro Assembler V2.31 build 20201012212115 
Symbol Table                                                                                   Tue Feb 16 00:01:23 2021

           ___fldiv@aexp 0039             ___fldiv@bexp 0038             ___fldiv@sign 0031  
                     l71 0F37                       l65 0F01                       l74 0F3B  
                     l90 0021                       l67 0F04                       l91 0025  
                     l83 0009                       l76 0F3E                       l68 0F07  
                     l92 0029                       l77 0F41                       l69 0F0A  
                     l93 002D                       l85 000D                       l78 0F44  
                     l94 0031                       l86 0011                       l79 0F5D  
                     l95 0035                       l87 0015                       l96 0039  
                     l88 0019                       l97 003D                       l89 001D  
                     l98 0075      __Umul8_16@word_mpld 0076                      l110 00A9  
                    l102 0078                      l111 00B0                      l103 0122  
                    l112 00B7                      l104 007F                      l113 00BE  
                    l105 0086                      l114 00C5                      l106 008D  
                    l115 00CC                      l107 0094                      l116 00D3  
                    l108 009B                      l117 00DA                      l109 00A2  
                    l118 00E1                      l119 0128                      l600 0760  
                    l613 0EE9                      l382 0FE6                      l606 07E8  
                    l383 0FFF                      l615 0EFB                      l640 01E2  
                    l570 0405                      l554 0313                      l379 0F7A  
                    l651 01AC                      l556 0493                      l652 01B8  
                    l644 0190                      l638 014B                      l576 0477  
                    l578 0487                      l594 07F4                      u980 0EE3  
                    u981 0EE2                      u995 0EEA             ___flmul@aexp 004C  
           ___flmul@bexp 004D             ___flmul@sign 0047             ___flmul@temp 0052  
           ___flmul@prod 004E                     l1301 0041                     l1311 00E8  
                   l1401 036E                     l1321 0F8E                     l1307 0077  
                   l1403 0373                     l1411 0393                     l1331 0FFC  
                   l1323 0F96                     l1421 03BE                     l1413 03A5  
                   l1405 0385                     l1341 02C4                     l1333 0FFE  
                   l1325 0F9A                     l1317 0F5E                     l1261 0EDF  
                   l1501 04CD                     l1431 03D6                     l1423 03C6  
                   l1415 03A6                     l1407 0389                     l1351 02DB  
                   l1343 02C8                     l1327 0FBE                     l1319 0F72  
                   l1263 0EE3                     l1511 04E4                     l1503 04D1  
                   l1271 0EFD                     l1441 03EE                     l1433 03DF  
                   l1425 03C8                     l1417 03B4                     l1409 038A  
                   l1361 02F1                     l1353 02DC                     l1345 02C9  
                   l1337 02B7                     l1329 0FC2                     l1265 0EF2  
                   l1257 0ED6                     l1601 07B3                     l1513 04E6  
                   l1505 04D2                     l1281 0F2E                     l1451 041D  
                   l1443 0402                     l1427 03D1                     l1435 03E5  
                   l1419 03B8                     l1371 0308                     l1363 02F5  
                   l1347 02CE                     l1355 02DE                     l1339 02BE  
                   l1267 0EF7                     l1259 0ED8                     l1611 07E0  
                   l1603 07C2                     l1531 0557                     l1523 0501  
                   l1515 04EE                     l1507 04D7                     l1283 0F33  
                   l1275 0F0D                     l1461 045B                     l1453 0421  
                   l1437 03E9                     l1429 03D5                     l1381 032B  
                   l1373 0309                     l1365 02F6                     l1357 02E6  
                   l1349 02D3                     l1613 07E1                     l1605 07CC  
                   l1541 05D4                     l1533 0583                     l1525 0511  
                   l1517 04F3                     l1509 04DC                     l1621 012F  
                   l1277 0F23                     l1701 02AD                     l1471 0481  
                   l1463 046A                     l1455 043A                     l1447 040A  
                   l1439 03EA                     l1391 0342                     l1367 02FB  
                   l1375 030B                     l1359 02EB                     l1615 07EC  
                   l1607 07CE                     l1551 0654                     l1543 05F1  
                   l1535 059F                     l1527 051E                     l1519 04F8  
                   l1631 015C                     l1623 0133                     l1287 0F47  
                   l1279 0F28                     l1703 02AF                     l1473 0483  
                   l1465 046E                     l1449 040F                     l1457 0440  
                   l1393 0354                     l1377 031B                     l1385 0334  
                   l1369 0300                     l1609 07DC                     l1561 070C  
                   l1553 0681                     l1545 0601                     l1537 05BB  
                   l1529 053B                     l1481 049B                     l1641 0187  
                   l1633 0161                     l1625 0143                     l1297 0008  
                   l1705 02B2                     l1467 0476                     l1459 044D  
                   l1395 035C                     l1387 0339                     l1379 0327  
                   l1571 0731                     l1563 0715                     l1555 0691  
                   l1547 061E                     l1539 05C4                     l1491 04B0  
                   l1483 04A1                     l1651 01BA                     l1643 0197  
                   l1635 016E                     l1627 0153                     l1619 012A  
                   l1469 047D                     l1397 0364                     l1581 0749  
                   l1573 073A                     l1565 0723                     l1557 06BE  
                   l1549 0637                     l1493 04B8                     l1485 04A5  
                   l1653 01D0                     l1645 01A2                     l1637 0175  
                   l1399 036C                     l1591 0778                     l1583 075D  
                   l1567 072C                     l1575 0740                     l1559 06E4  
                   l1495 04BA                     l1487 04A6                     l1479 0494  
                   l1655 01D5                     l1647 01A6                     l1639 0179  
                   l1671 01FC                     l1663 01E3                     l1593 077C  
                   l1577 0744                     l1569 0730                     l1497 04C2  
                   l1489 04AB                     l1657 01D9                     l1649 01B0  
                   l1681 0206                     l1673 01FF                     l1665 01E7  
                   l1595 0795                     l1587 0765                     l1579 0745  
                   l1499 04C7                     l1659 01DA                     l1691 0271  
                   l1683 020A                     l1675 0201                     l1667 01F0  
                   l1589 076A                     l1597 079B                     l1693 028A  
                   l1685 0224                     l1677 0204                     l1669 01F6  
                   l1599 07A8                     l1791 0F4F                     l1695 028D  
                   l1687 0225                     l1679 0205                     l1793 00F0  
                   l1697 028F                     l1689 0226                     l1787 0049  
                   l1699 02AA                     l1789 0F15                     u1000 0EF7  
                   u1001 0EF6                     u1010 0F28                     u1011 0F27  
                   u1100 02C8                     u1020 0F33                     u1101 02C7  
                   u1021 0F32                     u1110 02CE                     u1030 0F72  
                   u1111 02CD                     u1031 0F71                     u1120 02D3  
                   u1040 0F8E                     u1121 02D2                     u1041 0F8D  
                   u1210 0389                     u1130 02F5                     u1050 0F9A  
                   u1211 0388                     u1131 02F4                     u1051 0F99  
                   u1300 03EE                     u1140 02FB                     u1301 03ED  
                   u1205 037E                     u1141 02FA                     u1061 0FA9  
                   u1310 0402                     u1230 03A5                     u1150 0300  
                   u1070 0FC2                     u1062 0FAA                     u1311 0401  
                   u1231 03A4                     u1151 02FF                     u1071 0FC1  
                   u1063 0FAF                     u1320 0409                     u1240 03BE  
                   u1160 031B                     u1064 0FB0                     u1400 04AB  
                   u1321 0408                     u1241 03BD                     u1225 038C  
                   u1161 031A                     u1081 0FD1                     u1065 0FB5  
                   u1401 04AA                     u1330 040F                     u1250 03C6  
                   u1170 0339                     u1090 0FFC                     u1082 0FD2  
                   u1066 0FB6                     u1410 04B0                     u1331 040E  
                   u1251 03C5                     u1235 03A1                     u1171 0338  
                   u1091 0FFB                     u1083 0FD7                     u1411 04AF  
                   u1340 0421                     u1180 0373                     u1084 0FD8  
                   u1420 04D1                     u1341 0420                     u1181 0372  
                   u1085 0FDD                     u1501 05AD                     u1421 04D0  
                   u1350 0430                     u1270 03D5                     u1086 0FDE  
                   u1502 05B4                     u1430 04D7                     u1271 03D4  
                   u1095 0FF8                     u1503 05BB                     u1431 04D6  
                   u1360 044D                     u1600 06F2                     u1440 04DC  
                   u1361 044C                     u1265 03CA                     u1521 05E3  
                   u1441 04DB                     u1370 046A                     u1290 03E9  
                   u1522 05EA                     u1450 04F3                     u1371 0469  
                   u1355 042B                     u1291 03E8                     u1195 0375  
                   u1611 06FE                     u1531 0610                     u1523 05F1  
                   u1515 05BD                     u1451 04F2                     u1380 0481  
                   u1700 076A                     u1612 0705                     u1532 0617  
                   u1460 04F8                     u1381 0480                     u1365 0449  
                   u1285 03D8                     u1701 0769                     u1613 070C  
                   u1605 06ED                     u1533 061E                     u1461 04F7  
                   u1710 077C                     u1390 04A5                     u1375 0466  
                   u1711 077B                     u1551 0646                     u1471 0549  
                   u1391 04A4                     u1720 078B                     u1640 0730  
                   u1552 064D                     u1472 0550                     u1800 0174  
                   u1641 072F                     u1625 070E                     u1561 0673  
                   u1553 0654                     u1545 0620                     u1481 0565  
                   u1473 0557                     u1801 0173                     u1730 07A8  
                   u1562 067A                     u1482 056C                     u1731 07A7  
                   u1635 0725                     u1571 06A0                     u1563 0681  
                   u1491 0591                     u1483 0573                     u1740 07C2  
                   u1660 0744                     u1580 06CA                     u1572 06A7  
                   u1492 0598                     u1820 0196                     u1900 020A  
                   u1741 07C1                     u1725 0786                     u1661 0743  
                   u1573 06AE                     u1493 059F                     u1821 0195  
                   u1901 0209                     u1750 07E0                     u1670 0749  
                   u1751 07DF                     u1735 07A4                     u1671 0748  
                   u1655 0733                     u1591 06D6                     u1815 0188  
                   u1680 075D                     u1592 06DD                     u1840 01A6  
                   u1760 012F                     u1745 07BE                     u1681 075C  
                   u1593 06E4                     u1585 06C5                     u1841 01A5  
                   u1761 012E                     u1690 0764                     u1850 01AC  
                   u1770 0133                     u1930 028A                     u1691 0763  
                   u1851 01AB                     u1835 019B                     u1771 0132  
                   u1931 0289                     u1915 0211                     u1860 01B0  
                   u1780 0153                     u1940 02AA                     u1861 01AF  
                   u1781 0152                     u1941 02A9                     u1925 0219  
                   u1870 01C5                     u1880 01D5                     u1881 01D4  
                   u1890 01D9                     u1891 01D8                     u1875 01C0  
                   u1795 0166                     _main 01E3                     btemp 007E  
                   start 0000          ___fldiv@new_exp 0032                    ?_main 0070  
        __end_of___fldiv 0494          __end_of___flmul 07F5                    _ANSEL 0188  
                  _PORTA 0005                    _PORTB 0006                    _PORTD 0008  
                  _TRISB 0086                    _TRISD 0088                    status 0003  
                  wtemp0 007E          __initialization 07F5             __end_of_main 02B7  
                 ??_main 0054                   _ADRESH 001E                   _ADRESL 009E  
                 _ANSELH 0189         __end_of___xxtofl 01E3                   ___flge 0F5E  
              ??___fldiv 0028                ??___flmul 0042       __size_of_Select_ch 00B3  
           start_adc@isr 0070       __size_of__Umul8_16 0027         __end_of_start_ch 0076  
             ___flge@ff1 0070               ___flge@ff2 0074             ___xxtofl@arg 007A  
           ___xxtofl@exp 0079             ___xxtofl@val 0070  __end_of__initialization 07FC  
         __pcstackCOMMON 0070        __end_of_Select_ch 0129               __pbssBANK0 0058  
      __end_of__Umul8_16 0EFC               __pmaintext 01E3                  ?___flge 0070  
              ?___xxtofl 0070       __size_of_start_adc 0062          __size_of___flge 00A2  
                ___fldiv 02B7                  ___flmul 0494                ?_start_ch 0070  
              _ANSELbits 0188                  __ptext1 0007                  __ptext2 0EFC  
                __ptext3 0129                  __ptext4 0494                  __ptext5 0ED5  
                __ptext6 0F5E                  __ptext7 02B7                  __ptext8 0076  
       Select_ch@channel 0072               ??___xxtofl 0074            start_adc@Vref 0071  
                _volLM35 005C            start_adc@frec 0075     end_of_initialization 07FC  
      __end_of_start_adc 0F5E               ??_start_ch 0070                _PORTDbits 0008  
          ___xxtofl@sign 0078              ___fldiv@grs 0034              ___fldiv@rem 002D  
            ___flmul@grs 0048           __end_of___flge 1000      start_initialization 07F5  
              _Select_ch 0076                 ??___flge 0078                __Umul8_16 0ED5  
              ___fldiv@a 0020                ___fldiv@b 0024                ___flmul@a 003E  
              ___flmul@b 003A                ___latbits 0002            __pcstackBANK0 0020  
      __size_of___xxtofl 00BA               ?_Select_ch 0070                 ?___fldiv 0020  
               ?___flmul 003A               ?__Umul8_16 0070        __size_of_start_ch 006F  
               _PIE1bits 008C          start_ch@channel 0072                 _PIR1bits 000C  
        start_adc@justRL 0072               _ADCON0bits 001F               _ADCON1bits 009F  
              _start_adc 0EFC              ??_Select_ch 0070              ??__Umul8_16 0072  
       __size_of___fldiv 01DD         __size_of___flmul 0361               ?_start_adc 0070  
             _ANSELHbits 0189                 ___xxtofl 0129            __size_of_main 00D4  
               _tempLM35 0058                 _start_ch 0007              ??_start_adc 0073  
 __Umul8_16@multiplicand 0070     __Umul8_16@multiplier 0078        __Umul8_16@product 0074  
