

Microchip MPLAB XC8 Assembler V2.31 build 20201012212115 
                                                                                               Fri Feb 19 01:21:11 2021

Microchip MPLAB XC8 C Compiler v2.31 (Free license) build 20201012212115 Og1 
     1                           	processor	16F887
     2                           	pagewidth 120
     3                           	opt	flic
     4                           	psect	cinit,global,class=CODE,merge=1,delta=2
     5                           	psect	bssBANK0,global,class=BANK0,space=1,delta=1,noexec
     6                           	psect	cstackCOMMON,global,class=COMMON,space=1,delta=1,noexec
     7                           	psect	cstackBANK0,global,class=BANK0,space=1,delta=1,noexec
     8                           	psect	maintext,global,class=CODE,split=1,delta=2
     9                           	psect	text1,local,class=CODE,merge=1,delta=2
    10                           	psect	text2,local,class=CODE,merge=1,delta=2
    11                           	psect	text3,local,class=CODE,merge=1,delta=2
    12                           	psect	text4,local,class=CODE,merge=1,delta=2,group=1
    13                           	psect	text5,local,class=CODE,merge=1,delta=2,group=1
    14                           	psect	text6,local,class=CODE,merge=1,delta=2,group=1
    15                           	psect	text7,local,class=CODE,merge=1,delta=2,group=1
    16                           	psect	text8,local,class=CODE,merge=1,delta=2
    17                           	psect	text9,local,class=CODE,merge=1,delta=2
    18                           	psect	intentry,global,class=CODE,delta=2
    19                           	psect	text10,local,class=CODE,merge=1,delta=2
    20                           	psect	text11,local,class=CODE,merge=1,delta=2,group=1
    21                           	psect	config,global,abs,ovrld,class=CONFIG,space=4,delta=2,noexec
    22                           	dabs	1,0x7E,2
    23  0000                     
    24                           ; Version 2.31
    25                           ; Generated 13/10/2020 GMT
    26                           ; 
    27                           ; Copyright © 2020, Microchip Technology Inc. and its subsidiaries ("Microchip")
    28                           ; All rights reserved.
    29                           ; 
    30                           ; This software is developed by Microchip Technology Inc. and its subsidiaries ("Microch
      +                          ip").
    31                           ; 
    32                           ; Redistribution and use in source and binary forms, with or without modification, are
    33                           ; permitted provided that the following conditions are met:
    34                           ; 
    35                           ;     1. Redistributions of source code must retain the above copyright notice, this lis
      +                          t of
    36                           ;        conditions and the following disclaimer.
    37                           ; 
    38                           ;     2. Redistributions in binary form must reproduce the above copyright notice, this 
      +                          list
    39                           ;        of conditions and the following disclaimer in the documentation and/or other
    40                           ;        materials provided with the distribution. Publication is not required when
    41                           ;        this file is used in an embedded application.
    42                           ; 
    43                           ;     3. Microchip's name may not be used to endorse or promote products derived from th
      +                          is
    44                           ;        software without specific prior written permission.
    45                           ; 
    46                           ; THIS SOFTWARE IS PROVIDED BY MICROCHIP "AS IS" AND ANY EXPRESS OR IMPLIED WARRANTIES,
    47                           ; INCLUDING, BUT NOT LIMITED TO, THE IMPLIED WARRANTIES OF MERCHANTABILITY AND FITNESS F
      +                          OR
    48                           ; PURPOSE ARE DISCLAIMED.  IN NO EVENT SHALL MICROCHIP BE LIABLE FOR ANY DIRECT, INDIREC
      +                          T,
    49                           ; INCIDENTAL, SPECIAL, EXEMPLARY, OR CONSEQUENTIAL DAMAGES (INCLUDING BUT NOT LIMITED TO
    50                           ; PROCUREMENT OF SUBSTITUTE GOODS OR SERVICES; LOSS OF USE, DATA OR PROFITS; OR BUSINESS
    51                           ; INTERRUPTION) HOWSOEVER CAUSED AND ON ANY THEORY OF LIABILITY, WHETHER IN CONTRACT, ST
      +                          RICT
    52                           ; LIABILITY, OR TORT (INCLUDING NEGLIGENCE OR OTHERWISE) ARISING IN ANY WAY OUT OF THE U
      +                          SE OF
    53                           ; THIS SOFTWARE, EVEN IF ADVISED OF THE POSSIBILITY OF SUCH DAMAGE.
    54                           ; 
    55                           ; 
    56                           ; Code-generator required, PIC16F887 Definitions
    57                           ; 
    58                           ; SFR Addresses
    59  0000                     	;# 
    60  0001                     	;# 
    61  0002                     	;# 
    62  0003                     	;# 
    63  0004                     	;# 
    64  0005                     	;# 
    65  0006                     	;# 
    66  0007                     	;# 
    67  0008                     	;# 
    68  0009                     	;# 
    69  000A                     	;# 
    70  000B                     	;# 
    71  000C                     	;# 
    72  000D                     	;# 
    73  000E                     	;# 
    74  000E                     	;# 
    75  000F                     	;# 
    76  0010                     	;# 
    77  0011                     	;# 
    78  0012                     	;# 
    79  0013                     	;# 
    80  0014                     	;# 
    81  0015                     	;# 
    82  0015                     	;# 
    83  0016                     	;# 
    84  0017                     	;# 
    85  0018                     	;# 
    86  0019                     	;# 
    87  001A                     	;# 
    88  001B                     	;# 
    89  001B                     	;# 
    90  001C                     	;# 
    91  001D                     	;# 
    92  001E                     	;# 
    93  001F                     	;# 
    94  0081                     	;# 
    95  0085                     	;# 
    96  0086                     	;# 
    97  0087                     	;# 
    98  0088                     	;# 
    99  0089                     	;# 
   100  008C                     	;# 
   101  008D                     	;# 
   102  008E                     	;# 
   103  008F                     	;# 
   104  0090                     	;# 
   105  0091                     	;# 
   106  0092                     	;# 
   107  0093                     	;# 
   108  0093                     	;# 
   109  0093                     	;# 
   110  0094                     	;# 
   111  0095                     	;# 
   112  0096                     	;# 
   113  0097                     	;# 
   114  0098                     	;# 
   115  0099                     	;# 
   116  009A                     	;# 
   117  009B                     	;# 
   118  009C                     	;# 
   119  009D                     	;# 
   120  009E                     	;# 
   121  009F                     	;# 
   122  0105                     	;# 
   123  0107                     	;# 
   124  0108                     	;# 
   125  0109                     	;# 
   126  010C                     	;# 
   127  010C                     	;# 
   128  010D                     	;# 
   129  010E                     	;# 
   130  010F                     	;# 
   131  0185                     	;# 
   132  0187                     	;# 
   133  0188                     	;# 
   134  0189                     	;# 
   135  018C                     	;# 
   136  018D                     	;# 
   137  0000                     	;# 
   138  0001                     	;# 
   139  0002                     	;# 
   140  0003                     	;# 
   141  0004                     	;# 
   142  0005                     	;# 
   143  0006                     	;# 
   144  0007                     	;# 
   145  0008                     	;# 
   146  0009                     	;# 
   147  000A                     	;# 
   148  000B                     	;# 
   149  000C                     	;# 
   150  000D                     	;# 
   151  000E                     	;# 
   152  000E                     	;# 
   153  000F                     	;# 
   154  0010                     	;# 
   155  0011                     	;# 
   156  0012                     	;# 
   157  0013                     	;# 
   158  0014                     	;# 
   159  0015                     	;# 
   160  0015                     	;# 
   161  0016                     	;# 
   162  0017                     	;# 
   163  0018                     	;# 
   164  0019                     	;# 
   165  001A                     	;# 
   166  001B                     	;# 
   167  001B                     	;# 
   168  001C                     	;# 
   169  001D                     	;# 
   170  001E                     	;# 
   171  001F                     	;# 
   172  0081                     	;# 
   173  0085                     	;# 
   174  0086                     	;# 
   175  0087                     	;# 
   176  0088                     	;# 
   177  0089                     	;# 
   178  008C                     	;# 
   179  008D                     	;# 
   180  008E                     	;# 
   181  008F                     	;# 
   182  0090                     	;# 
   183  0091                     	;# 
   184  0092                     	;# 
   185  0093                     	;# 
   186  0093                     	;# 
   187  0093                     	;# 
   188  0094                     	;# 
   189  0095                     	;# 
   190  0096                     	;# 
   191  0097                     	;# 
   192  0098                     	;# 
   193  0099                     	;# 
   194  009A                     	;# 
   195  009B                     	;# 
   196  009C                     	;# 
   197  009D                     	;# 
   198  009E                     	;# 
   199  009F                     	;# 
   200  0105                     	;# 
   201  0107                     	;# 
   202  0108                     	;# 
   203  0109                     	;# 
   204  010C                     	;# 
   205  010C                     	;# 
   206  010D                     	;# 
   207  010E                     	;# 
   208  010F                     	;# 
   209  0185                     	;# 
   210  0187                     	;# 
   211  0188                     	;# 
   212  0189                     	;# 
   213  018C                     	;# 
   214  018D                     	;# 
   215  0000                     	;# 
   216  0001                     	;# 
   217  0002                     	;# 
   218  0003                     	;# 
   219  0004                     	;# 
   220  0005                     	;# 
   221  0006                     	;# 
   222  0007                     	;# 
   223  0008                     	;# 
   224  0009                     	;# 
   225  000A                     	;# 
   226  000B                     	;# 
   227  000C                     	;# 
   228  000D                     	;# 
   229  000E                     	;# 
   230  000E                     	;# 
   231  000F                     	;# 
   232  0010                     	;# 
   233  0011                     	;# 
   234  0012                     	;# 
   235  0013                     	;# 
   236  0014                     	;# 
   237  0015                     	;# 
   238  0015                     	;# 
   239  0016                     	;# 
   240  0017                     	;# 
   241  0018                     	;# 
   242  0019                     	;# 
   243  001A                     	;# 
   244  001B                     	;# 
   245  001B                     	;# 
   246  001C                     	;# 
   247  001D                     	;# 
   248  001E                     	;# 
   249  001F                     	;# 
   250  0081                     	;# 
   251  0085                     	;# 
   252  0086                     	;# 
   253  0087                     	;# 
   254  0088                     	;# 
   255  0089                     	;# 
   256  008C                     	;# 
   257  008D                     	;# 
   258  008E                     	;# 
   259  008F                     	;# 
   260  0090                     	;# 
   261  0091                     	;# 
   262  0092                     	;# 
   263  0093                     	;# 
   264  0093                     	;# 
   265  0093                     	;# 
   266  0094                     	;# 
   267  0095                     	;# 
   268  0096                     	;# 
   269  0097                     	;# 
   270  0098                     	;# 
   271  0099                     	;# 
   272  009A                     	;# 
   273  009B                     	;# 
   274  009C                     	;# 
   275  009D                     	;# 
   276  009E                     	;# 
   277  009F                     	;# 
   278  0105                     	;# 
   279  0107                     	;# 
   280  0108                     	;# 
   281  0109                     	;# 
   282  010C                     	;# 
   283  010C                     	;# 
   284  010D                     	;# 
   285  010E                     	;# 
   286  010F                     	;# 
   287  0185                     	;# 
   288  0187                     	;# 
   289  0188                     	;# 
   290  0189                     	;# 
   291  018C                     	;# 
   292  018D                     	;# 
   293  0000                     	;# 
   294  0001                     	;# 
   295  0002                     	;# 
   296  0003                     	;# 
   297  0004                     	;# 
   298  0005                     	;# 
   299  0006                     	;# 
   300  0007                     	;# 
   301  0008                     	;# 
   302  0009                     	;# 
   303  000A                     	;# 
   304  000B                     	;# 
   305  000C                     	;# 
   306  000D                     	;# 
   307  000E                     	;# 
   308  000E                     	;# 
   309  000F                     	;# 
   310  0010                     	;# 
   311  0011                     	;# 
   312  0012                     	;# 
   313  0013                     	;# 
   314  0014                     	;# 
   315  0015                     	;# 
   316  0015                     	;# 
   317  0016                     	;# 
   318  0017                     	;# 
   319  0018                     	;# 
   320  0019                     	;# 
   321  001A                     	;# 
   322  001B                     	;# 
   323  001B                     	;# 
   324  001C                     	;# 
   325  001D                     	;# 
   326  001E                     	;# 
   327  001F                     	;# 
   328  0081                     	;# 
   329  0085                     	;# 
   330  0086                     	;# 
   331  0087                     	;# 
   332  0088                     	;# 
   333  0089                     	;# 
   334  008C                     	;# 
   335  008D                     	;# 
   336  008E                     	;# 
   337  008F                     	;# 
   338  0090                     	;# 
   339  0091                     	;# 
   340  0092                     	;# 
   341  0093                     	;# 
   342  0093                     	;# 
   343  0093                     	;# 
   344  0094                     	;# 
   345  0095                     	;# 
   346  0096                     	;# 
   347  0097                     	;# 
   348  0098                     	;# 
   349  0099                     	;# 
   350  009A                     	;# 
   351  009B                     	;# 
   352  009C                     	;# 
   353  009D                     	;# 
   354  009E                     	;# 
   355  009F                     	;# 
   356  0105                     	;# 
   357  0107                     	;# 
   358  0108                     	;# 
   359  0109                     	;# 
   360  010C                     	;# 
   361  010C                     	;# 
   362  010D                     	;# 
   363  010E                     	;# 
   364  010F                     	;# 
   365  0185                     	;# 
   366  0187                     	;# 
   367  0188                     	;# 
   368  0189                     	;# 
   369  018C                     	;# 
   370  018D                     	;# 
   371  0013                     _SSPBUF	set	19
   372  0014                     _SSPCON	set	20
   373  0008                     _PORTDbits	set	8
   374  0008                     _PORTD	set	8
   375  0006                     _PORTB	set	6
   376  000B                     _INTCONbits	set	11
   377  001F                     _ADCON0bits	set	31
   378  001E                     _ADRESH	set	30
   379  000C                     _PIR1bits	set	12
   380  0063                     _SSPIF	set	99
   381  0094                     _SSPSTATbits	set	148
   382  0094                     _SSPSTAT	set	148
   383  009F                     _ADCON1bits	set	159
   384  0086                     _TRISB	set	134
   385  0088                     _TRISD	set	136
   386  0085                     _TRISAbits	set	133
   387  008C                     _PIE1bits	set	140
   388  009E                     _ADRESL	set	158
   389  043B                     _TRISC3	set	1083
   390  043D                     _TRISC5	set	1085
   391  0189                     _ANSELHbits	set	393
   392  0188                     _ANSELbits	set	392
   393  0189                     _ANSELH	set	393
   394  0188                     _ANSEL	set	392
   395                           
   396                           	psect	cinit
   397  0011                     start_initialization:	
   398                           ; #config settings
   399                           
   400  0011                     __initialization:
   401                           
   402                           ; Clear objects allocated to BANK0
   403  0011  1283               	bcf	3,5	;RP0=0, select bank0
   404  0012  1303               	bcf	3,6	;RP1=0, select bank0
   405  0013  01D1               	clrf	__pbssBANK0& (0+127)
   406  0014  01D2               	clrf	(__pbssBANK0+1)& (0+127)
   407  0015  01D3               	clrf	(__pbssBANK0+2)& (0+127)
   408  0016  01D4               	clrf	(__pbssBANK0+3)& (0+127)
   409  0017  01D5               	clrf	(__pbssBANK0+4)& (0+127)
   410  0018  01D6               	clrf	(__pbssBANK0+5)& (0+127)
   411  0019                     end_of_initialization:	
   412                           ;End of C runtime variable initialization code
   413                           
   414  0019                     __end_of__initialization:
   415  0019  0183               	clrf	3
   416  001A  120A  118A  2C3A   	ljmp	_main	;jump to C main() function
   417                           
   418                           	psect	bssBANK0
   419  0051                     __pbssBANK0:
   420  0051                     _temperature:
   421  0051                     	ds	4
   422  0055                     _voltageLM35:
   423  0055                     	ds	2
   424                           
   425                           	psect	cstackCOMMON
   426  0070                     __pcstackCOMMON:
   427  0070                     ?_spiWrite:
   428  0070                     ??_spiWrite:	
   429                           ; 1 bytes @ 0x0
   430                           
   431  0070                     ?_start_ch:	
   432                           ; 1 bytes @ 0x0
   433                           
   434  0070                     ?_Select_ch:	
   435                           ; 1 bytes @ 0x0
   436                           
   437  0070                     ?_isr:	
   438                           ; 1 bytes @ 0x0
   439                           
   440  0070                     ?_main:	
   441                           ; 1 bytes @ 0x0
   442                           
   443  0070                     ?___fltol:	
   444                           ; 1 bytes @ 0x0
   445                           
   446  0070                     spiWrite@dat:	
   447                           ; 4 bytes @ 0x0
   448                           
   449  0070                     ___fltol@f1:	
   450                           ; 1 bytes @ 0x0
   451                           
   452                           
   453                           ; 4 bytes @ 0x0
   454  0070                     	ds	4
   455  0074                     ??___fltol:
   456                           
   457                           ; 1 bytes @ 0x4
   458  0074                     	ds	5
   459  0079                     ___fltol@sign1:
   460                           
   461                           ; 1 bytes @ 0x9
   462  0079                     	ds	1
   463  007A                     ___fltol@exp1:
   464                           
   465                           ; 1 bytes @ 0xA
   466  007A                     	ds	1
   467                           
   468                           	psect	cstackBANK0
   469  0020                     __pcstackBANK0:
   470  0020                     ??_isr:
   471                           
   472                           ; 1 bytes @ 0x0
   473  0020                     	ds	9
   474  0029                     ?___flge:
   475  0029                     ?_start_adc:	
   476                           ; 1 bit 
   477                           
   478  0029                     ??_start_ch:	
   479                           ; 1 bytes @ 0x9
   480                           
   481  0029                     ??_Select_ch:	
   482                           ; 1 bytes @ 0x9
   483                           
   484  0029                     ?_spiInit:	
   485                           ; 1 bytes @ 0x9
   486                           
   487  0029                     ?__Umul8_16:	
   488                           ; 1 bytes @ 0x9
   489                           
   490  0029                     ?___xxtofl:	
   491                           ; 2 bytes @ 0x9
   492                           
   493  0029                     start_adc@isr:	
   494                           ; 4 bytes @ 0x9
   495                           
   496  0029                     spiInit@sDataSample:	
   497                           ; 1 bytes @ 0x9
   498                           
   499  0029                     __Umul8_16@multiplicand:	
   500                           ; 1 bytes @ 0x9
   501                           
   502  0029                     ___flge@ff1:	
   503                           ; 1 bytes @ 0x9
   504                           
   505  0029                     ___xxtofl@val:	
   506                           ; 4 bytes @ 0x9
   507                           
   508                           
   509                           ; 4 bytes @ 0x9
   510  0029                     	ds	1
   511  002A                     start_adc@Vref:
   512  002A                     spiInit@sClockIdle:	
   513                           ; 1 bytes @ 0xA
   514                           
   515                           
   516                           ; 1 bytes @ 0xA
   517  002A                     	ds	1
   518  002B                     ??__Umul8_16:
   519  002B                     start_adc@justRL:	
   520                           ; 1 bytes @ 0xB
   521                           
   522  002B                     start_ch@channel:	
   523                           ; 1 bytes @ 0xB
   524                           
   525  002B                     Select_ch@channel:	
   526                           ; 1 bytes @ 0xB
   527                           
   528  002B                     spiInit@sTransmitEdge:	
   529                           ; 1 bytes @ 0xB
   530                           
   531                           
   532                           ; 1 bytes @ 0xB
   533  002B                     	ds	1
   534  002C                     ??_start_adc:
   535  002C                     ??_spiInit:	
   536                           ; 1 bytes @ 0xC
   537                           
   538  002C                     spiInit@sType:	
   539                           ; 1 bytes @ 0xC
   540                           
   541                           
   542                           ; 1 bytes @ 0xC
   543  002C                     	ds	1
   544  002D                     ??___xxtofl:
   545  002D                     __Umul8_16@product:	
   546                           ; 1 bytes @ 0xD
   547                           
   548  002D                     ___flge@ff2:	
   549                           ; 2 bytes @ 0xD
   550                           
   551                           
   552                           ; 4 bytes @ 0xD
   553  002D                     	ds	1
   554  002E                     start_adc@frec:
   555                           
   556                           ; 1 bytes @ 0xE
   557  002E                     	ds	1
   558  002F                     __Umul8_16@word_mpld:
   559                           
   560                           ; 2 bytes @ 0xF
   561  002F                     	ds	2
   562  0031                     ??___flge:
   563  0031                     __Umul8_16@multiplier:	
   564                           ; 1 bytes @ 0x11
   565                           
   566  0031                     ___xxtofl@sign:	
   567                           ; 1 bytes @ 0x11
   568                           
   569                           
   570                           ; 1 bytes @ 0x11
   571  0031                     	ds	1
   572  0032                     ___xxtofl@exp:
   573                           
   574                           ; 1 bytes @ 0x12
   575  0032                     	ds	1
   576  0033                     ___xxtofl@arg:
   577                           
   578                           ; 4 bytes @ 0x13
   579  0033                     	ds	4
   580  0037                     ?___flmul:
   581  0037                     ___flmul@b:	
   582                           ; 4 bytes @ 0x17
   583                           
   584                           
   585                           ; 4 bytes @ 0x17
   586  0037                     	ds	4
   587  003B                     ___flmul@a:
   588                           
   589                           ; 4 bytes @ 0x1B
   590  003B                     	ds	4
   591  003F                     ??___flmul:
   592                           
   593                           ; 1 bytes @ 0x1F
   594  003F                     	ds	5
   595  0044                     ___flmul@sign:
   596                           
   597                           ; 1 bytes @ 0x24
   598  0044                     	ds	1
   599  0045                     ___flmul@grs:
   600                           
   601                           ; 4 bytes @ 0x25
   602  0045                     	ds	4
   603  0049                     ___flmul@aexp:
   604                           
   605                           ; 1 bytes @ 0x29
   606  0049                     	ds	1
   607  004A                     ___flmul@bexp:
   608                           
   609                           ; 1 bytes @ 0x2A
   610  004A                     	ds	1
   611  004B                     ___flmul@prod:
   612                           
   613                           ; 4 bytes @ 0x2B
   614  004B                     	ds	4
   615  004F                     ___flmul@temp:
   616                           
   617                           ; 2 bytes @ 0x2F
   618  004F                     	ds	2
   619  0051                     ??_main:
   620                           
   621                           	psect	maintext
   622  043A                     __pmaintext:	
   623                           ; 1 bytes @ 0x31
   624 ;;
   625 ;;Main: autosize = 0, tempsize = 0, incstack = 0, save=0
   626 ;;
   627 ;; *************** function _main *****************
   628 ;; Defined at:
   629 ;;		line 51 in file "main.c"
   630 ;; Parameters:    Size  Location     Type
   631 ;;		None
   632 ;; Auto vars:     Size  Location     Type
   633 ;;		None
   634 ;; Return value:  Size  Location     Type
   635 ;;                  1    wreg      void 
   636 ;; Registers used:
   637 ;;		wreg, fsr0l, fsr0h, status,2, status,0, btemp+1, pclath, cstack
   638 ;; Tracked objects:
   639 ;;		On entry : B00/0
   640 ;;		On exit  : 0/0
   641 ;;		Unchanged: 0/0
   642 ;; Data sizes:     COMMON   BANK0   BANK1   BANK3   BANK2
   643 ;;      Params:         0       0       0       0       0
   644 ;;      Locals:         0       0       0       0       0
   645 ;;      Temps:          0       0       0       0       0
   646 ;;      Totals:         0       0       0       0       0
   647 ;;Total ram usage:        0 bytes
   648 ;; Hardware stack levels required when called:    4
   649 ;; This function calls:
   650 ;;		_Select_ch
   651 ;;		___flge
   652 ;;		___flmul
   653 ;;		___xxtofl
   654 ;;		_spiInit
   655 ;;		_start_adc
   656 ;;		_start_ch
   657 ;; This function is called by:
   658 ;;		Startup code after reset
   659 ;; This function uses a non-reentrant model
   660 ;;
   661                           
   662                           
   663                           ;psect for function _main
   664  043A                     _main:
   665  043A                     l1579:	
   666                           ;incstack = 0
   667                           ; Regs used in _main: [wreg-fsr0h+status,2+status,0+btemp+1+pclath+cstack]
   668                           
   669                           
   670                           ;main.c: 53:             PORTDbits.RD2 = 1;
   671  043A  1683               	bsf	3,5	;RP0=1, select bank3
   672  043B  1703               	bsf	3,6	;RP1=1, select bank3
   673  043C  0188               	clrf	8	;volatile
   674                           
   675                           ;main.c: 54:         }
   676  043D  0189               	clrf	9	;volatile
   677  043E                     l1581:
   678                           
   679                           ;main.c: 55:     }
   680  043E  1283               	bcf	3,5	;RP0=0, select bank0
   681  043F  1303               	bcf	3,6	;RP1=0, select bank0
   682  0440  01A9               	clrf	start_adc@isr
   683  0441  0AA9               	incf	start_adc@isr,f
   684  0442  01AA               	clrf	start_adc@Vref
   685  0443  01AB               	clrf	start_adc@justRL
   686  0444  3002               	movlw	2
   687  0445  120A  118A  270D  120A  118A  	fcall	_start_adc
   688  044A                     l1583:
   689                           
   690                           ;main.c: 56: }
   691  044A  300C               	movlw	12
   692  044B  120A  118A  269C  120A  118A  	fcall	_start_ch
   693  0450                     l1585:
   694  0450  300C               	movlw	12
   695  0451  120A  118A  258D  120A  118A  	fcall	_Select_ch
   696  0456                     l1587:
   697  0456  178B               	bsf	11,7	;volatile
   698  0457                     l1589:
   699  0457  170B               	bsf	11,6	;volatile
   700  0458                     l1591:
   701  0458  1283               	bcf	3,5	;RP0=0, select bank0
   702  0459  1303               	bcf	3,6	;RP1=0, select bank0
   703  045A  118C               	bcf	12,3	;volatile
   704  045B                     l1593:
   705  045B  1683               	bsf	3,5	;RP0=1, select bank1
   706  045C  1303               	bcf	3,6	;RP1=0, select bank1
   707  045D  158C               	bsf	12,3	;volatile
   708  045E                     l1595:
   709  045E  1685               	bsf	5,5	;volatile
   710  045F                     l1597:
   711  045F  1283               	bcf	3,5	;RP0=0, select bank0
   712  0460  1303               	bcf	3,6	;RP1=0, select bank0
   713  0461  01A9               	clrf	spiInit@sDataSample
   714  0462  01AA               	clrf	spiInit@sClockIdle
   715  0463  01AB               	clrf	spiInit@sTransmitEdge
   716  0464  3024               	movlw	36
   717  0465  120A  158A  27E2  120A  118A  	fcall	_spiInit
   718  046A                     l1599:
   719  046A  1683               	bsf	3,5	;RP0=1, select bank1
   720  046B  1303               	bcf	3,6	;RP1=0, select bank1
   721  046C  0188               	clrf	8	;volatile
   722  046D                     l1601:
   723  046D  3001               	movlw	1
   724  046E  0086               	movwf	6	;volatile
   725  046F                     l1603:
   726  046F  1283               	bcf	3,5	;RP0=0, select bank0
   727  0470  1303               	bcf	3,6	;RP1=0, select bank0
   728  0471  0186               	clrf	6	;volatile
   729  0472                     l1605:
   730  0472  0188               	clrf	8	;volatile
   731  0473                     l1607:
   732  0473  303E               	movlw	62
   733  0474  00BA               	movwf	___flmul@b+3
   734  0475  30FA               	movlw	250
   735  0476  00B9               	movwf	___flmul@b+2
   736  0477  3043               	movlw	67
   737  0478  00B8               	movwf	___flmul@b+1
   738  0479  30FE               	movlw	254
   739  047A  00B7               	movwf	___flmul@b
   740  047B  0855               	movf	_voltageLM35,w	;volatile
   741  047C  00A9               	movwf	___xxtofl@val
   742  047D  0856               	movf	_voltageLM35+1,w	;volatile
   743  047E  00AA               	movwf	___xxtofl@val+1
   744  047F  3000               	movlw	0
   745  0480  1BAA               	btfsc	___xxtofl@val+1,7
   746  0481  30FF               	movlw	255
   747  0482  00AB               	movwf	___xxtofl@val+2
   748  0483  00AC               	movwf	___xxtofl@val+3
   749  0484  3001               	movlw	1
   750  0485  120A  118A  237E  120A  118A  	fcall	___xxtofl
   751  048A  1283               	bcf	3,5	;RP0=0, select bank0
   752  048B  1303               	bcf	3,6	;RP1=0, select bank0
   753  048C  082C               	movf	?___xxtofl+3,w
   754  048D  00BE               	movwf	___flmul@a+3
   755  048E  082B               	movf	?___xxtofl+2,w
   756  048F  00BD               	movwf	___flmul@a+2
   757  0490  082A               	movf	?___xxtofl+1,w
   758  0491  00BC               	movwf	___flmul@a+1
   759  0492  0829               	movf	?___xxtofl,w
   760  0493  00BB               	movwf	___flmul@a
   761  0494  120A  118A  201D  120A  118A  	fcall	___flmul
   762  0499  1283               	bcf	3,5	;RP0=0, select bank0
   763  049A  1303               	bcf	3,6	;RP1=0, select bank0
   764  049B  083A               	movf	?___flmul+3,w
   765  049C  00D4               	movwf	_temperature+3
   766  049D  0839               	movf	?___flmul+2,w
   767  049E  00D3               	movwf	_temperature+2
   768  049F  0838               	movf	?___flmul+1,w
   769  04A0  00D2               	movwf	_temperature+1
   770  04A1  0837               	movf	?___flmul,w
   771  04A2  00D1               	movwf	_temperature
   772  04A3                     l1609:
   773  04A3  0854               	movf	_temperature+3,w
   774  04A4  00AC               	movwf	___flge@ff1+3
   775  04A5  0853               	movf	_temperature+2,w
   776  04A6  00AB               	movwf	___flge@ff1+2
   777  04A7  0852               	movf	_temperature+1,w
   778  04A8  00AA               	movwf	___flge@ff1+1
   779  04A9  0851               	movf	_temperature,w
   780  04AA  00A9               	movwf	___flge@ff1
   781  04AB  3041               	movlw	65
   782  04AC  00B0               	movwf	___flge@ff2+3
   783  04AD  30C8               	movlw	200
   784  04AE  00AF               	movwf	___flge@ff2+2
   785  04AF  3000               	movlw	0
   786  04B0  00AE               	movwf	___flge@ff2+1
   787  04B1  3000               	movlw	0
   788  04B2  00AD               	movwf	___flge@ff2
   789  04B3  120A  118A  24E9  120A  118A  	fcall	___flge
   790  04B8  1803               	btfsc	3,0
   791  04B9  2CBB               	goto	u1581
   792  04BA  2CBC               	goto	u1580
   793  04BB                     u1581:
   794  04BB  2CC1               	goto	l1615
   795  04BC                     u1580:
   796  04BC                     l1611:
   797  04BC  1283               	bcf	3,5	;RP0=0, select bank0
   798  04BD  1303               	bcf	3,6	;RP1=0, select bank0
   799  04BE  0188               	clrf	8	;volatile
   800  04BF                     l1613:
   801  04BF  1408               	bsf	8,0	;volatile
   802  04C0  2C73               	goto	l1607
   803  04C1                     l1615:
   804  04C1  1283               	bcf	3,5	;RP0=0, select bank0
   805  04C2  1303               	bcf	3,6	;RP1=0, select bank0
   806  04C3  0854               	movf	_temperature+3,w
   807  04C4  00AC               	movwf	___flge@ff1+3
   808  04C5  0853               	movf	_temperature+2,w
   809  04C6  00AB               	movwf	___flge@ff1+2
   810  04C7  0852               	movf	_temperature+1,w
   811  04C8  00AA               	movwf	___flge@ff1+1
   812  04C9  0851               	movf	_temperature,w
   813  04CA  00A9               	movwf	___flge@ff1
   814  04CB  3042               	movlw	66
   815  04CC  00B0               	movwf	___flge@ff2+3
   816  04CD  3010               	movlw	16
   817  04CE  00AF               	movwf	___flge@ff2+2
   818  04CF  3000               	movlw	0
   819  04D0  00AE               	movwf	___flge@ff2+1
   820  04D1  3000               	movlw	0
   821  04D2  00AD               	movwf	___flge@ff2
   822  04D3  120A  118A  24E9  120A  118A  	fcall	___flge
   823  04D8  1803               	btfsc	3,0
   824  04D9  2CDB               	goto	u1591
   825  04DA  2CDC               	goto	u1590
   826  04DB                     u1591:
   827  04DB  2CE1               	goto	l1621
   828  04DC                     u1590:
   829  04DC                     l1617:
   830  04DC  1283               	bcf	3,5	;RP0=0, select bank0
   831  04DD  1303               	bcf	3,6	;RP1=0, select bank0
   832  04DE  0188               	clrf	8	;volatile
   833  04DF                     l1619:
   834  04DF  1488               	bsf	8,1	;volatile
   835  04E0  2C73               	goto	l1607
   836  04E1                     l1621:
   837  04E1  1283               	bcf	3,5	;RP0=0, select bank0
   838  04E2  1303               	bcf	3,6	;RP1=0, select bank0
   839  04E3  0188               	clrf	8	;volatile
   840  04E4                     l1623:
   841  04E4  1508               	bsf	8,2	;volatile
   842  04E5  2C73               	goto	l1607
   843  04E6  120A  118A  280E   	ljmp	start
   844  04E9                     __end_of_main:
   845                           
   846                           	psect	text1
   847  069C                     __ptext1:	
   848 ;; *************** function _start_ch *****************
   849 ;; Defined at:
   850 ;;		line 60 in file "ADC_LIB.c"
   851 ;; Parameters:    Size  Location     Type
   852 ;;  channel         1    wreg     unsigned char 
   853 ;; Auto vars:     Size  Location     Type
   854 ;;  channel         1   11[BANK0 ] unsigned char 
   855 ;; Return value:  Size  Location     Type
   856 ;;                  1    wreg      void 
   857 ;; Registers used:
   858 ;;		wreg, fsr0l, fsr0h, status,2, status,0
   859 ;; Tracked objects:
   860 ;;		On entry : 0/0
   861 ;;		On exit  : 0/0
   862 ;;		Unchanged: 0/0
   863 ;; Data sizes:     COMMON   BANK0   BANK1   BANK3   BANK2
   864 ;;      Params:         0       0       0       0       0
   865 ;;      Locals:         0       1       0       0       0
   866 ;;      Temps:          0       2       0       0       0
   867 ;;      Totals:         0       3       0       0       0
   868 ;;Total ram usage:        3 bytes
   869 ;; Hardware stack levels used:    1
   870 ;; Hardware stack levels required when called:    2
   871 ;; This function calls:
   872 ;;		Nothing
   873 ;; This function is called by:
   874 ;;		_main
   875 ;; This function uses a non-reentrant model
   876 ;;
   877                           
   878                           
   879                           ;psect for function _start_ch
   880  069C                     _start_ch:
   881                           
   882                           ;incstack = 0
   883                           ; Regs used in _start_ch: [wreg-fsr0h+status,2+status,0]
   884                           ;start_ch@channel stored from wreg
   885  069C  1283               	bcf	3,5	;RP0=0, select bank0
   886  069D  1303               	bcf	3,6	;RP1=0, select bank0
   887  069E  00AB               	movwf	start_ch@channel
   888  069F                     l1289:
   889                           
   890                           ;ADC_LIB.c: 61:     switch (channel) {
   891  069F  2ED8               	goto	l1293
   892  06A0                     l101:	
   893                           ;ADC_LIB.c: 62:         case 0:
   894                           
   895                           
   896                           ;ADC_LIB.c: 63:             ANSELbits.ANS0 = 1;
   897  06A0  1683               	bsf	3,5	;RP0=1, select bank3
   898  06A1  1703               	bsf	3,6	;RP1=1, select bank3
   899  06A2  1408               	bsf	8,0	;volatile
   900                           
   901                           ;ADC_LIB.c: 64:             break;
   902  06A3  2F0C               	goto	l116
   903  06A4                     l103:	
   904                           ;ADC_LIB.c: 65:         case 1:
   905                           
   906                           
   907                           ;ADC_LIB.c: 66:             ANSELbits.ANS1 = 1;
   908  06A4  1683               	bsf	3,5	;RP0=1, select bank3
   909  06A5  1703               	bsf	3,6	;RP1=1, select bank3
   910  06A6  1488               	bsf	8,1	;volatile
   911                           
   912                           ;ADC_LIB.c: 67:             break;
   913  06A7  2F0C               	goto	l116
   914  06A8                     l104:	
   915                           ;ADC_LIB.c: 68:         case 2:
   916                           
   917                           
   918                           ;ADC_LIB.c: 69:             ANSELbits.ANS2 = 1;
   919  06A8  1683               	bsf	3,5	;RP0=1, select bank3
   920  06A9  1703               	bsf	3,6	;RP1=1, select bank3
   921  06AA  1508               	bsf	8,2	;volatile
   922                           
   923                           ;ADC_LIB.c: 70:             break;
   924  06AB  2F0C               	goto	l116
   925  06AC                     l105:	
   926                           ;ADC_LIB.c: 71:         case 3:
   927                           
   928                           
   929                           ;ADC_LIB.c: 72:             ANSELbits.ANS3 = 1;
   930  06AC  1683               	bsf	3,5	;RP0=1, select bank3
   931  06AD  1703               	bsf	3,6	;RP1=1, select bank3
   932  06AE  1588               	bsf	8,3	;volatile
   933                           
   934                           ;ADC_LIB.c: 73:             break;
   935  06AF  2F0C               	goto	l116
   936  06B0                     l106:	
   937                           ;ADC_LIB.c: 74:         case 4:
   938                           
   939                           
   940                           ;ADC_LIB.c: 75:             ANSELbits.ANS4 = 1;
   941  06B0  1683               	bsf	3,5	;RP0=1, select bank3
   942  06B1  1703               	bsf	3,6	;RP1=1, select bank3
   943  06B2  1608               	bsf	8,4	;volatile
   944                           
   945                           ;ADC_LIB.c: 76:             break;
   946  06B3  2F0C               	goto	l116
   947  06B4                     l107:	
   948                           ;ADC_LIB.c: 77:         case 5:
   949                           
   950                           
   951                           ;ADC_LIB.c: 78:             ANSELbits.ANS5 = 1;
   952  06B4  1683               	bsf	3,5	;RP0=1, select bank3
   953  06B5  1703               	bsf	3,6	;RP1=1, select bank3
   954  06B6  1688               	bsf	8,5	;volatile
   955                           
   956                           ;ADC_LIB.c: 79:             break;
   957  06B7  2F0C               	goto	l116
   958  06B8                     l108:	
   959                           ;ADC_LIB.c: 80:         case 6:
   960                           
   961                           
   962                           ;ADC_LIB.c: 81:             ANSELbits.ANS6 = 1;
   963  06B8  1683               	bsf	3,5	;RP0=1, select bank3
   964  06B9  1703               	bsf	3,6	;RP1=1, select bank3
   965  06BA  1708               	bsf	8,6	;volatile
   966                           
   967                           ;ADC_LIB.c: 82:             break;
   968  06BB  2F0C               	goto	l116
   969  06BC                     l109:	
   970                           ;ADC_LIB.c: 83:         case 7:
   971                           
   972                           
   973                           ;ADC_LIB.c: 84:             ANSELbits.ANS7 = 1;
   974  06BC  1683               	bsf	3,5	;RP0=1, select bank3
   975  06BD  1703               	bsf	3,6	;RP1=1, select bank3
   976  06BE  1788               	bsf	8,7	;volatile
   977                           
   978                           ;ADC_LIB.c: 85:             break;
   979  06BF  2F0C               	goto	l116
   980  06C0                     l110:	
   981                           ;ADC_LIB.c: 86:         case 8:
   982                           
   983                           
   984                           ;ADC_LIB.c: 87:             ANSELHbits.ANS8 = 1;
   985  06C0  1683               	bsf	3,5	;RP0=1, select bank3
   986  06C1  1703               	bsf	3,6	;RP1=1, select bank3
   987  06C2  1409               	bsf	9,0	;volatile
   988                           
   989                           ;ADC_LIB.c: 88:             break;
   990  06C3  2F0C               	goto	l116
   991  06C4                     l111:	
   992                           ;ADC_LIB.c: 89:         case 9:
   993                           
   994                           
   995                           ;ADC_LIB.c: 90:             ANSELHbits.ANS9 = 1;
   996  06C4  1683               	bsf	3,5	;RP0=1, select bank3
   997  06C5  1703               	bsf	3,6	;RP1=1, select bank3
   998  06C6  1489               	bsf	9,1	;volatile
   999                           
  1000                           ;ADC_LIB.c: 91:             break;
  1001  06C7  2F0C               	goto	l116
  1002  06C8                     l112:	
  1003                           ;ADC_LIB.c: 92:         case 10:
  1004                           
  1005                           
  1006                           ;ADC_LIB.c: 93:             ANSELHbits.ANS10 = 1;
  1007  06C8  1683               	bsf	3,5	;RP0=1, select bank3
  1008  06C9  1703               	bsf	3,6	;RP1=1, select bank3
  1009  06CA  1509               	bsf	9,2	;volatile
  1010                           
  1011                           ;ADC_LIB.c: 94:             break;
  1012  06CB  2F0C               	goto	l116
  1013  06CC                     l113:	
  1014                           ;ADC_LIB.c: 95:         case 11:
  1015                           
  1016                           
  1017                           ;ADC_LIB.c: 96:             ANSELHbits.ANS11 = 1;
  1018  06CC  1683               	bsf	3,5	;RP0=1, select bank3
  1019  06CD  1703               	bsf	3,6	;RP1=1, select bank3
  1020  06CE  1589               	bsf	9,3	;volatile
  1021                           
  1022                           ;ADC_LIB.c: 97:             break;
  1023  06CF  2F0C               	goto	l116
  1024  06D0                     l114:	
  1025                           ;ADC_LIB.c: 98:         case 12:
  1026                           
  1027                           
  1028                           ;ADC_LIB.c: 99:             ANSELHbits.ANS12 = 1;
  1029  06D0  1683               	bsf	3,5	;RP0=1, select bank3
  1030  06D1  1703               	bsf	3,6	;RP1=1, select bank3
  1031  06D2  1609               	bsf	9,4	;volatile
  1032                           
  1033                           ;ADC_LIB.c: 100:             break;
  1034  06D3  2F0C               	goto	l116
  1035  06D4                     l115:	
  1036                           ;ADC_LIB.c: 101:         case 13:
  1037                           
  1038                           
  1039                           ;ADC_LIB.c: 102:             ANSELHbits.ANS13 = 1;
  1040  06D4  1683               	bsf	3,5	;RP0=1, select bank3
  1041  06D5  1703               	bsf	3,6	;RP1=1, select bank3
  1042  06D6  1689               	bsf	9,5	;volatile
  1043                           
  1044                           ;ADC_LIB.c: 103:             break;
  1045  06D7  2F0C               	goto	l116
  1046  06D8                     l1293:
  1047  06D8  082B               	movf	start_ch@channel,w
  1048  06D9  00A9               	movwf	??_start_ch
  1049  06DA  01AA               	clrf	??_start_ch+1
  1050                           
  1051                           ; Switch on 2 bytes has been partitioned into a top level switch of size 1, and 1 sub-sw
      +                          itches
  1052                           ; Switch size 1, requested type "simple"
  1053                           ; Number of cases is 1, Range of values is 0 to 0
  1054                           ; switch strategies available:
  1055                           ; Name         Instructions Cycles
  1056                           ; simple_byte            4     3 (average)
  1057                           ; direct_byte           11     8 (fixed)
  1058                           ; jumptable            260     6 (fixed)
  1059                           ;	Chosen strategy is simple_byte
  1060  06DB  082A               	movf	??_start_ch+1,w
  1061  06DC  3A00               	xorlw	0	; case 0
  1062  06DD  1903               	skipnz
  1063  06DE  2EE0               	goto	l1725
  1064  06DF  2F0C               	goto	l116
  1065  06E0                     l1725:
  1066                           
  1067                           ; Switch size 1, requested type "simple"
  1068                           ; Number of cases is 14, Range of values is 0 to 13
  1069                           ; switch strategies available:
  1070                           ; Name         Instructions Cycles
  1071                           ; simple_byte           43    22 (average)
  1072                           ; direct_byte           50     8 (fixed)
  1073                           ; jumptable            260     6 (fixed)
  1074                           ;	Chosen strategy is simple_byte
  1075  06E0  0829               	movf	??_start_ch,w
  1076  06E1  3A00               	xorlw	0	; case 0
  1077  06E2  1903               	skipnz
  1078  06E3  2EA0               	goto	l101
  1079  06E4  3A01               	xorlw	1	; case 1
  1080  06E5  1903               	skipnz
  1081  06E6  2EA4               	goto	l103
  1082  06E7  3A03               	xorlw	3	; case 2
  1083  06E8  1903               	skipnz
  1084  06E9  2EA8               	goto	l104
  1085  06EA  3A01               	xorlw	1	; case 3
  1086  06EB  1903               	skipnz
  1087  06EC  2EAC               	goto	l105
  1088  06ED  3A07               	xorlw	7	; case 4
  1089  06EE  1903               	skipnz
  1090  06EF  2EB0               	goto	l106
  1091  06F0  3A01               	xorlw	1	; case 5
  1092  06F1  1903               	skipnz
  1093  06F2  2EB4               	goto	l107
  1094  06F3  3A03               	xorlw	3	; case 6
  1095  06F4  1903               	skipnz
  1096  06F5  2EB8               	goto	l108
  1097  06F6  3A01               	xorlw	1	; case 7
  1098  06F7  1903               	skipnz
  1099  06F8  2EBC               	goto	l109
  1100  06F9  3A0F               	xorlw	15	; case 8
  1101  06FA  1903               	skipnz
  1102  06FB  2EC0               	goto	l110
  1103  06FC  3A01               	xorlw	1	; case 9
  1104  06FD  1903               	skipnz
  1105  06FE  2EC4               	goto	l111
  1106  06FF  3A03               	xorlw	3	; case 10
  1107  0700  1903               	skipnz
  1108  0701  2EC8               	goto	l112
  1109  0702  3A01               	xorlw	1	; case 11
  1110  0703  1903               	skipnz
  1111  0704  2ECC               	goto	l113
  1112  0705  3A07               	xorlw	7	; case 12
  1113  0706  1903               	skipnz
  1114  0707  2ED0               	goto	l114
  1115  0708  3A01               	xorlw	1	; case 13
  1116  0709  1903               	skipnz
  1117  070A  2ED4               	goto	l115
  1118  070B  2F0C               	goto	l116
  1119  070C                     l116:
  1120  070C  0008               	return
  1121  070D                     __end_of_start_ch:
  1122                           
  1123                           	psect	text2
  1124  070D                     __ptext2:	
  1125 ;; *************** function _start_adc *****************
  1126 ;; Defined at:
  1127 ;;		line 11 in file "ADC_LIB.c"
  1128 ;; Parameters:    Size  Location     Type
  1129 ;;  frec            1    wreg     unsigned char 
  1130 ;;  isr             1    9[BANK0 ] unsigned char 
  1131 ;;  Vref            1   10[BANK0 ] unsigned char 
  1132 ;;  justRL          1   11[BANK0 ] unsigned char 
  1133 ;; Auto vars:     Size  Location     Type
  1134 ;;  frec            1   14[BANK0 ] unsigned char 
  1135 ;; Return value:  Size  Location     Type
  1136 ;;                  1    wreg      void 
  1137 ;; Registers used:
  1138 ;;		wreg, fsr0l, fsr0h, status,2, status,0
  1139 ;; Tracked objects:
  1140 ;;		On entry : 0/0
  1141 ;;		On exit  : 0/0
  1142 ;;		Unchanged: 0/0
  1143 ;; Data sizes:     COMMON   BANK0   BANK1   BANK3   BANK2
  1144 ;;      Params:         0       3       0       0       0
  1145 ;;      Locals:         0       1       0       0       0
  1146 ;;      Temps:          0       2       0       0       0
  1147 ;;      Totals:         0       6       0       0       0
  1148 ;;Total ram usage:        6 bytes
  1149 ;; Hardware stack levels used:    1
  1150 ;; Hardware stack levels required when called:    2
  1151 ;; This function calls:
  1152 ;;		Nothing
  1153 ;; This function is called by:
  1154 ;;		_main
  1155 ;; This function uses a non-reentrant model
  1156 ;;
  1157                           
  1158                           
  1159                           ;psect for function _start_adc
  1160  070D                     _start_adc:
  1161                           
  1162                           ;incstack = 0
  1163                           ; Regs used in _start_adc: [wreg-fsr0h+status,2+status,0]
  1164                           ;start_adc@frec stored from wreg
  1165  070D  1283               	bcf	3,5	;RP0=0, select bank0
  1166  070E  1303               	bcf	3,6	;RP1=0, select bank0
  1167  070F  00AE               	movwf	start_adc@frec
  1168  0710                     l1263:
  1169                           
  1170                           ;ADC_LIB.c: 12:     ADCON0bits.ADON = 1;
  1171  0710  141F               	bsf	31,0	;volatile
  1172                           
  1173                           ;ADC_LIB.c: 13:     switch (frec) {
  1174  0711  2F1E               	goto	l1267
  1175  0712                     l83:	
  1176                           ;ADC_LIB.c: 14:         case 1:
  1177                           
  1178                           
  1179                           ;ADC_LIB.c: 15:             ADCON0bits.ADCS0 = 0;
  1180  0712  131F               	bcf	31,6	;volatile
  1181                           
  1182                           ;ADC_LIB.c: 16:             ADCON0bits.ADCS1 = 0;
  1183  0713  139F               	bcf	31,7	;volatile
  1184                           
  1185                           ;ADC_LIB.c: 17:             break;
  1186  0714  2F34               	goto	l1269
  1187  0715                     l85:	
  1188                           ;ADC_LIB.c: 18:         case 2:
  1189                           
  1190                           
  1191                           ;ADC_LIB.c: 19:             ADCON0bits.ADCS0 = 1;
  1192  0715  171F               	bsf	31,6	;volatile
  1193                           
  1194                           ;ADC_LIB.c: 20:             ADCON0bits.ADCS1 = 0;
  1195  0716  139F               	bcf	31,7	;volatile
  1196                           
  1197                           ;ADC_LIB.c: 21:             break;
  1198  0717  2F34               	goto	l1269
  1199  0718                     l86:	
  1200                           ;ADC_LIB.c: 22:         case 3:
  1201                           
  1202                           
  1203                           ;ADC_LIB.c: 23:             ADCON0bits.ADCS0 = 0;
  1204  0718  131F               	bcf	31,6	;volatile
  1205                           
  1206                           ;ADC_LIB.c: 24:             ADCON0bits.ADCS1 = 1;
  1207  0719  179F               	bsf	31,7	;volatile
  1208                           
  1209                           ;ADC_LIB.c: 25:             break;
  1210  071A  2F34               	goto	l1269
  1211  071B                     l87:	
  1212                           ;ADC_LIB.c: 26:         case 4:
  1213                           
  1214                           
  1215                           ;ADC_LIB.c: 27:             ADCON0bits.ADCS0 = 1;
  1216  071B  171F               	bsf	31,6	;volatile
  1217                           
  1218                           ;ADC_LIB.c: 28:             ADCON0bits.ADCS1 = 1;
  1219  071C  179F               	bsf	31,7	;volatile
  1220                           
  1221                           ;ADC_LIB.c: 29:             break;
  1222  071D  2F34               	goto	l1269
  1223  071E                     l1267:
  1224  071E  082E               	movf	start_adc@frec,w
  1225  071F  00AC               	movwf	??_start_adc
  1226  0720  01AD               	clrf	??_start_adc+1
  1227                           
  1228                           ; Switch on 2 bytes has been partitioned into a top level switch of size 1, and 1 sub-sw
      +                          itches
  1229                           ; Switch size 1, requested type "simple"
  1230                           ; Number of cases is 1, Range of values is 0 to 0
  1231                           ; switch strategies available:
  1232                           ; Name         Instructions Cycles
  1233                           ; simple_byte            4     3 (average)
  1234                           ; direct_byte           11     8 (fixed)
  1235                           ; jumptable            260     6 (fixed)
  1236                           ;	Chosen strategy is simple_byte
  1237  0721  082D               	movf	??_start_adc+1,w
  1238  0722  3A00               	xorlw	0	; case 0
  1239  0723  1903               	skipnz
  1240  0724  2F26               	goto	l1727
  1241  0725  2F34               	goto	l1269
  1242  0726                     l1727:
  1243                           
  1244                           ; Switch size 1, requested type "simple"
  1245                           ; Number of cases is 4, Range of values is 1 to 4
  1246                           ; switch strategies available:
  1247                           ; Name         Instructions Cycles
  1248                           ; simple_byte           13     7 (average)
  1249                           ; direct_byte           23    11 (fixed)
  1250                           ; jumptable            263     9 (fixed)
  1251                           ;	Chosen strategy is simple_byte
  1252  0726  082C               	movf	??_start_adc,w
  1253  0727  3A01               	xorlw	1	; case 1
  1254  0728  1903               	skipnz
  1255  0729  2F12               	goto	l83
  1256  072A  3A03               	xorlw	3	; case 2
  1257  072B  1903               	skipnz
  1258  072C  2F15               	goto	l85
  1259  072D  3A01               	xorlw	1	; case 3
  1260  072E  1903               	skipnz
  1261  072F  2F18               	goto	l86
  1262  0730  3A07               	xorlw	7	; case 4
  1263  0731  1903               	skipnz
  1264  0732  2F1B               	goto	l87
  1265  0733  2F34               	goto	l1269
  1266  0734                     l1269:
  1267                           
  1268                           ;ADC_LIB.c: 31:     if (isr == 1) {
  1269  0734  0329               	decf	start_adc@isr,w
  1270  0735  1D03               	btfss	3,2
  1271  0736  2F38               	goto	u841
  1272  0737  2F39               	goto	u840
  1273  0738                     u841:
  1274  0738  2F3F               	goto	l1273
  1275  0739                     u840:
  1276  0739                     l1271:
  1277                           
  1278                           ;ADC_LIB.c: 32:         PIE1bits.ADIE = 1;
  1279  0739  1683               	bsf	3,5	;RP0=1, select bank1
  1280  073A  1303               	bcf	3,6	;RP1=0, select bank1
  1281  073B  170C               	bsf	12,6	;volatile
  1282                           
  1283                           ;ADC_LIB.c: 33:         PIR1bits.ADIF = 0;
  1284  073C  1283               	bcf	3,5	;RP0=0, select bank0
  1285  073D  1303               	bcf	3,6	;RP1=0, select bank0
  1286  073E  130C               	bcf	12,6	;volatile
  1287  073F                     l1273:
  1288                           
  1289                           ;ADC_LIB.c: 35:     if (justRL == 0) {
  1290  073F  082B               	movf	start_adc@justRL,w
  1291  0740  1D03               	btfss	3,2
  1292  0741  2F43               	goto	u851
  1293  0742  2F44               	goto	u850
  1294  0743                     u851:
  1295  0743  2F48               	goto	l89
  1296  0744                     u850:
  1297  0744                     l1275:
  1298                           
  1299                           ;ADC_LIB.c: 36:         ADCON1bits.ADFM = 0;
  1300  0744  1683               	bsf	3,5	;RP0=1, select bank1
  1301  0745  1303               	bcf	3,6	;RP1=0, select bank1
  1302  0746  139F               	bcf	31,7	;volatile
  1303                           
  1304                           ;ADC_LIB.c: 37:     } else {
  1305  0747  2F60               	goto	l1279
  1306  0748                     l89:
  1307                           
  1308                           ;ADC_LIB.c: 38:         ADCON1bits.ADFM = 1;
  1309  0748  1683               	bsf	3,5	;RP0=1, select bank1
  1310  0749  1303               	bcf	3,6	;RP1=0, select bank1
  1311  074A  179F               	bsf	31,7	;volatile
  1312  074B  2F60               	goto	l1279
  1313  074C                     l92:	
  1314                           ;ADC_LIB.c: 41:         case 0:
  1315                           
  1316                           
  1317                           ;ADC_LIB.c: 42:             ADCON1bits.VCFG0 = 0;
  1318  074C  1683               	bsf	3,5	;RP0=1, select bank1
  1319  074D  1303               	bcf	3,6	;RP1=0, select bank1
  1320  074E  121F               	bcf	31,4	;volatile
  1321                           
  1322                           ;ADC_LIB.c: 43:             ADCON1bits.VCFG1 = 0;
  1323  074F  129F               	bcf	31,5	;volatile
  1324                           
  1325                           ;ADC_LIB.c: 44:             break;
  1326  0750  2F78               	goto	l97
  1327  0751                     l94:	
  1328                           ;ADC_LIB.c: 45:         case 1:
  1329                           
  1330                           
  1331                           ;ADC_LIB.c: 46:             ADCON1bits.VCFG0 = 1;
  1332  0751  1683               	bsf	3,5	;RP0=1, select bank1
  1333  0752  1303               	bcf	3,6	;RP1=0, select bank1
  1334  0753  161F               	bsf	31,4	;volatile
  1335                           
  1336                           ;ADC_LIB.c: 47:             ADCON1bits.VCFG1 = 0;
  1337  0754  129F               	bcf	31,5	;volatile
  1338                           
  1339                           ;ADC_LIB.c: 48:             break;
  1340  0755  2F78               	goto	l97
  1341  0756                     l95:	
  1342                           ;ADC_LIB.c: 49:         case 2:
  1343                           
  1344                           
  1345                           ;ADC_LIB.c: 50:             ADCON1bits.VCFG0 = 0;
  1346  0756  1683               	bsf	3,5	;RP0=1, select bank1
  1347  0757  1303               	bcf	3,6	;RP1=0, select bank1
  1348  0758  121F               	bcf	31,4	;volatile
  1349                           
  1350                           ;ADC_LIB.c: 51:             ADCON1bits.VCFG1 = 1;
  1351  0759  169F               	bsf	31,5	;volatile
  1352                           
  1353                           ;ADC_LIB.c: 52:             break;
  1354  075A  2F78               	goto	l97
  1355  075B                     l96:	
  1356                           ;ADC_LIB.c: 53:         case 3:
  1357                           
  1358                           
  1359                           ;ADC_LIB.c: 54:             ADCON1bits.VCFG0 = 1;
  1360  075B  1683               	bsf	3,5	;RP0=1, select bank1
  1361  075C  1303               	bcf	3,6	;RP1=0, select bank1
  1362  075D  161F               	bsf	31,4	;volatile
  1363                           
  1364                           ;ADC_LIB.c: 55:             ADCON1bits.VCFG1 = 1;
  1365  075E  169F               	bsf	31,5	;volatile
  1366                           
  1367                           ;ADC_LIB.c: 56:             break;
  1368  075F  2F78               	goto	l97
  1369  0760                     l1279:
  1370  0760  1283               	bcf	3,5	;RP0=0, select bank0
  1371  0761  1303               	bcf	3,6	;RP1=0, select bank0
  1372  0762  082A               	movf	start_adc@Vref,w
  1373  0763  00AC               	movwf	??_start_adc
  1374  0764  01AD               	clrf	??_start_adc+1
  1375                           
  1376                           ; Switch on 2 bytes has been partitioned into a top level switch of size 1, and 1 sub-sw
      +                          itches
  1377                           ; Switch size 1, requested type "simple"
  1378                           ; Number of cases is 1, Range of values is 0 to 0
  1379                           ; switch strategies available:
  1380                           ; Name         Instructions Cycles
  1381                           ; simple_byte            4     3 (average)
  1382                           ; direct_byte           11     8 (fixed)
  1383                           ; jumptable            260     6 (fixed)
  1384                           ;	Chosen strategy is simple_byte
  1385  0765  082D               	movf	??_start_adc+1,w
  1386  0766  3A00               	xorlw	0	; case 0
  1387  0767  1903               	skipnz
  1388  0768  2F6A               	goto	l1729
  1389  0769  2F78               	goto	l97
  1390  076A                     l1729:
  1391                           
  1392                           ; Switch size 1, requested type "simple"
  1393                           ; Number of cases is 4, Range of values is 0 to 3
  1394                           ; switch strategies available:
  1395                           ; Name         Instructions Cycles
  1396                           ; simple_byte           13     7 (average)
  1397                           ; direct_byte           20     8 (fixed)
  1398                           ; jumptable            260     6 (fixed)
  1399                           ;	Chosen strategy is simple_byte
  1400  076A  082C               	movf	??_start_adc,w
  1401  076B  3A00               	xorlw	0	; case 0
  1402  076C  1903               	skipnz
  1403  076D  2F4C               	goto	l92
  1404  076E  3A01               	xorlw	1	; case 1
  1405  076F  1903               	skipnz
  1406  0770  2F51               	goto	l94
  1407  0771  3A03               	xorlw	3	; case 2
  1408  0772  1903               	skipnz
  1409  0773  2F56               	goto	l95
  1410  0774  3A01               	xorlw	1	; case 3
  1411  0775  1903               	skipnz
  1412  0776  2F5B               	goto	l96
  1413  0777  2F78               	goto	l97
  1414  0778                     l97:
  1415  0778  0008               	return
  1416  0779                     __end_of_start_adc:
  1417                           
  1418                           	psect	text3
  1419  0FE2                     __ptext3:	
  1420 ;; *************** function _spiInit *****************
  1421 ;; Defined at:
  1422 ;;		line 12 in file "SPI.c"
  1423 ;; Parameters:    Size  Location     Type
  1424 ;;  sType           1    wreg     enum E1292
  1425 ;;  sDataSample     1    9[BANK0 ] enum E1300
  1426 ;;  sClockIdle      1   10[BANK0 ] enum E1304
  1427 ;;  sTransmitEdg    1   11[BANK0 ] enum E1308
  1428 ;; Auto vars:     Size  Location     Type
  1429 ;;  sType           1   12[BANK0 ] enum E1292
  1430 ;; Return value:  Size  Location     Type
  1431 ;;                  1    wreg      void 
  1432 ;; Registers used:
  1433 ;;		wreg, status,2, status,0
  1434 ;; Tracked objects:
  1435 ;;		On entry : 0/0
  1436 ;;		On exit  : 0/0
  1437 ;;		Unchanged: 0/0
  1438 ;; Data sizes:     COMMON   BANK0   BANK1   BANK3   BANK2
  1439 ;;      Params:         0       3       0       0       0
  1440 ;;      Locals:         0       1       0       0       0
  1441 ;;      Temps:          0       0       0       0       0
  1442 ;;      Totals:         0       4       0       0       0
  1443 ;;Total ram usage:        4 bytes
  1444 ;; Hardware stack levels used:    1
  1445 ;; Hardware stack levels required when called:    2
  1446 ;; This function calls:
  1447 ;;		Nothing
  1448 ;; This function is called by:
  1449 ;;		_main
  1450 ;; This function uses a non-reentrant model
  1451 ;;
  1452                           
  1453                           
  1454                           ;psect for function _spiInit
  1455  0FE2                     _spiInit:
  1456                           
  1457                           ;incstack = 0
  1458                           ; Regs used in _spiInit: [wreg+status,2+status,0]
  1459                           ;spiInit@sType stored from wreg
  1460  0FE2  1283               	bcf	3,5	;RP0=0, select bank0
  1461  0FE3  1303               	bcf	3,6	;RP1=0, select bank0
  1462  0FE4  00AC               	movwf	spiInit@sType
  1463  0FE5                     l1313:
  1464                           
  1465                           ;SPI.c: 12: void spiInit(Spi_Type sType, Spi_Data_Sample sDataSample, Spi_Clock_Idle sCl
      +                          ockIdle, Spi_Transmit_Edge sTransmitEdge);SPI.c: 13: {;SPI.c: 14:     TRISC5 = 0;
  1466  0FE5  1683               	bsf	3,5	;RP0=1, select bank1
  1467  0FE6  1303               	bcf	3,6	;RP1=0, select bank1
  1468  0FE7  1287               	bcf	7,5	;volatile
  1469                           
  1470                           ;SPI.c: 15:     if(sType & 0b00000100)
  1471  0FE8  1283               	bcf	3,5	;RP0=0, select bank0
  1472  0FE9  1303               	bcf	3,6	;RP1=0, select bank0
  1473  0FEA  1D2C               	btfss	spiInit@sType,2
  1474  0FEB  2FED               	goto	u861
  1475  0FEC  2FEE               	goto	u860
  1476  0FED                     u861:
  1477  0FED  2FF4               	goto	l1319
  1478  0FEE                     u860:
  1479  0FEE                     l1315:
  1480                           
  1481                           ;SPI.c: 16:     {;SPI.c: 17:         SSPSTAT = sTransmitEdge;
  1482  0FEE  082B               	movf	spiInit@sTransmitEdge,w
  1483  0FEF  1683               	bsf	3,5	;RP0=1, select bank1
  1484  0FF0  1303               	bcf	3,6	;RP1=0, select bank1
  1485  0FF1  0094               	movwf	20	;volatile
  1486  0FF2                     l1317:
  1487                           
  1488                           ;SPI.c: 18:         TRISC3 = 1;
  1489  0FF2  1587               	bsf	7,3	;volatile
  1490                           
  1491                           ;SPI.c: 19:     }
  1492  0FF3  2FFA               	goto	l153
  1493  0FF4                     l1319:
  1494                           
  1495                           ;SPI.c: 21:     {;SPI.c: 22:         SSPSTAT = sDataSample | sTransmitEdge;
  1496  0FF4  0829               	movf	spiInit@sDataSample,w
  1497  0FF5  042B               	iorwf	spiInit@sTransmitEdge,w
  1498  0FF6  1683               	bsf	3,5	;RP0=1, select bank1
  1499  0FF7  1303               	bcf	3,6	;RP1=0, select bank1
  1500  0FF8  0094               	movwf	20	;volatile
  1501  0FF9                     l1321:
  1502                           
  1503                           ;SPI.c: 23:         TRISC3 = 0;
  1504  0FF9  1187               	bcf	7,3	;volatile
  1505  0FFA                     l153:	
  1506                           ;SPI.c: 24:     }
  1507                           
  1508                           
  1509                           ;SPI.c: 26:     SSPCON = sType | sClockIdle;
  1510  0FFA  1283               	bcf	3,5	;RP0=0, select bank0
  1511  0FFB  1303               	bcf	3,6	;RP1=0, select bank0
  1512  0FFC  082C               	movf	spiInit@sType,w
  1513  0FFD  042A               	iorwf	spiInit@sClockIdle,w
  1514  0FFE  0094               	movwf	20	;volatile
  1515  0FFF                     l154:
  1516  0FFF  0008               	return
  1517  1000                     __end_of_spiInit:
  1518                           
  1519                           	psect	text4
  1520  037E                     __ptext4:	
  1521 ;; *************** function ___xxtofl *****************
  1522 ;; Defined at:
  1523 ;;		line 10 in file "C:\Program Files\Microchip\xc8\v2.31\pic\sources\c90\common\xxtofl.c"
  1524 ;; Parameters:    Size  Location     Type
  1525 ;;  sign            1    wreg     unsigned char 
  1526 ;;  val             4    9[BANK0 ] long 
  1527 ;; Auto vars:     Size  Location     Type
  1528 ;;  sign            1   17[BANK0 ] unsigned char 
  1529 ;;  arg             4   19[BANK0 ] unsigned long 
  1530 ;;  exp             1   18[BANK0 ] unsigned char 
  1531 ;; Return value:  Size  Location     Type
  1532 ;;                  4    9[BANK0 ] unsigned char 
  1533 ;; Registers used:
  1534 ;;		wreg, status,2, status,0
  1535 ;; Tracked objects:
  1536 ;;		On entry : 0/0
  1537 ;;		On exit  : 0/0
  1538 ;;		Unchanged: 0/0
  1539 ;; Data sizes:     COMMON   BANK0   BANK1   BANK3   BANK2
  1540 ;;      Params:         0       4       0       0       0
  1541 ;;      Locals:         0       6       0       0       0
  1542 ;;      Temps:          0       4       0       0       0
  1543 ;;      Totals:         0      14       0       0       0
  1544 ;;Total ram usage:       14 bytes
  1545 ;; Hardware stack levels used:    1
  1546 ;; Hardware stack levels required when called:    2
  1547 ;; This function calls:
  1548 ;;		Nothing
  1549 ;; This function is called by:
  1550 ;;		_main
  1551 ;; This function uses a non-reentrant model
  1552 ;;
  1553                           
  1554                           
  1555                           ;psect for function ___xxtofl
  1556  037E                     ___xxtofl:
  1557                           
  1558                           ;incstack = 0
  1559                           ; Regs used in ___xxtofl: [wreg+status,2+status,0]
  1560                           ;___xxtofl@sign stored from wreg
  1561  037E  1283               	bcf	3,5	;RP0=0, select bank0
  1562  037F  1303               	bcf	3,6	;RP1=0, select bank0
  1563  0380  00B1               	movwf	___xxtofl@sign
  1564  0381                     l1519:
  1565  0381  0831               	movf	___xxtofl@sign,w
  1566  0382  1903               	btfsc	3,2
  1567  0383  2B85               	goto	u1411
  1568  0384  2B86               	goto	u1410
  1569  0385                     u1411:
  1570  0385  2B9A               	goto	l1525
  1571  0386                     u1410:
  1572  0386                     l1521:
  1573  0386  1FAC               	btfss	___xxtofl@val+3,7
  1574  0387  2B89               	goto	u1421
  1575  0388  2B8A               	goto	u1420
  1576  0389                     u1421:
  1577  0389  2B9A               	goto	l1525
  1578  038A                     u1420:
  1579  038A                     l1523:
  1580  038A  0929               	comf	___xxtofl@val,w
  1581  038B  00B3               	movwf	___xxtofl@arg
  1582  038C  092A               	comf	___xxtofl@val+1,w
  1583  038D  00B4               	movwf	___xxtofl@arg+1
  1584  038E  092B               	comf	___xxtofl@val+2,w
  1585  038F  00B5               	movwf	___xxtofl@arg+2
  1586  0390  092C               	comf	___xxtofl@val+3,w
  1587  0391  00B6               	movwf	___xxtofl@arg+3
  1588  0392  0AB3               	incf	___xxtofl@arg,f
  1589  0393  1903               	skipnz
  1590  0394  0AB4               	incf	___xxtofl@arg+1,f
  1591  0395  1903               	skipnz
  1592  0396  0AB5               	incf	___xxtofl@arg+2,f
  1593  0397  1903               	skipnz
  1594  0398  0AB6               	incf	___xxtofl@arg+3,f
  1595  0399  2BA2               	goto	l690
  1596  039A                     l1525:
  1597  039A  082C               	movf	___xxtofl@val+3,w
  1598  039B  00B6               	movwf	___xxtofl@arg+3
  1599  039C  082B               	movf	___xxtofl@val+2,w
  1600  039D  00B5               	movwf	___xxtofl@arg+2
  1601  039E  082A               	movf	___xxtofl@val+1,w
  1602  039F  00B4               	movwf	___xxtofl@arg+1
  1603  03A0  0829               	movf	___xxtofl@val,w
  1604  03A1  00B3               	movwf	___xxtofl@arg
  1605  03A2                     l690:
  1606  03A2  082C               	movf	___xxtofl@val+3,w
  1607  03A3  042B               	iorwf	___xxtofl@val+2,w
  1608  03A4  042A               	iorwf	___xxtofl@val+1,w
  1609  03A5  0429               	iorwf	___xxtofl@val,w
  1610  03A6  1D03               	skipz
  1611  03A7  2BA9               	goto	u1431
  1612  03A8  2BAA               	goto	u1430
  1613  03A9                     u1431:
  1614  03A9  2BB3               	goto	l1531
  1615  03AA                     u1430:
  1616  03AA                     l1527:
  1617  03AA  3000               	movlw	0
  1618  03AB  00AC               	movwf	?___xxtofl+3
  1619  03AC  3000               	movlw	0
  1620  03AD  00AB               	movwf	?___xxtofl+2
  1621  03AE  3000               	movlw	0
  1622  03AF  00AA               	movwf	?___xxtofl+1
  1623  03B0  3000               	movlw	0
  1624  03B1  00A9               	movwf	?___xxtofl
  1625  03B2  2C39               	goto	l692
  1626  03B3                     l1531:
  1627  03B3  3096               	movlw	150
  1628  03B4  00AD               	movwf	??___xxtofl
  1629  03B5  082D               	movf	??___xxtofl,w
  1630  03B6  00B2               	movwf	___xxtofl@exp
  1631  03B7  2BC5               	goto	l1535
  1632  03B8                     l1533:
  1633  03B8  3001               	movlw	1
  1634  03B9  00AD               	movwf	??___xxtofl
  1635  03BA  082D               	movf	??___xxtofl,w
  1636  03BB  07B2               	addwf	___xxtofl@exp,f
  1637  03BC  3001               	movlw	1
  1638  03BD                     u1445:
  1639  03BD  1003               	clrc
  1640  03BE  0CB6               	rrf	___xxtofl@arg+3,f
  1641  03BF  0CB5               	rrf	___xxtofl@arg+2,f
  1642  03C0  0CB4               	rrf	___xxtofl@arg+1,f
  1643  03C1  0CB3               	rrf	___xxtofl@arg,f
  1644  03C2  3EFF               	addlw	-1
  1645  03C3  1D03               	skipz
  1646  03C4  2BBD               	goto	u1445
  1647  03C5                     l1535:
  1648  03C5  30FE               	movlw	254
  1649  03C6  0536               	andwf	___xxtofl@arg+3,w
  1650  03C7  1D03               	btfss	3,2
  1651  03C8  2BCA               	goto	u1451
  1652  03C9  2BCB               	goto	u1450
  1653  03CA                     u1451:
  1654  03CA  2BB8               	goto	l1533
  1655  03CB                     u1450:
  1656  03CB  2BE7               	goto	l696
  1657  03CC                     l1537:
  1658  03CC  3001               	movlw	1
  1659  03CD  00AD               	movwf	??___xxtofl
  1660  03CE  082D               	movf	??___xxtofl,w
  1661  03CF  07B2               	addwf	___xxtofl@exp,f
  1662  03D0                     l1539:
  1663  03D0  3001               	movlw	1
  1664  03D1  07B3               	addwf	___xxtofl@arg,f
  1665  03D2  3000               	movlw	0
  1666  03D3  1803               	skipnc
  1667  03D4  3001               	movlw	1
  1668  03D5  07B4               	addwf	___xxtofl@arg+1,f
  1669  03D6  3000               	movlw	0
  1670  03D7  1803               	skipnc
  1671  03D8  3001               	movlw	1
  1672  03D9  07B5               	addwf	___xxtofl@arg+2,f
  1673  03DA  3000               	movlw	0
  1674  03DB  1803               	skipnc
  1675  03DC  3001               	movlw	1
  1676  03DD  07B6               	addwf	___xxtofl@arg+3,f
  1677  03DE                     l1541:
  1678  03DE  3001               	movlw	1
  1679  03DF                     u1465:
  1680  03DF  1003               	clrc
  1681  03E0  0CB6               	rrf	___xxtofl@arg+3,f
  1682  03E1  0CB5               	rrf	___xxtofl@arg+2,f
  1683  03E2  0CB4               	rrf	___xxtofl@arg+1,f
  1684  03E3  0CB3               	rrf	___xxtofl@arg,f
  1685  03E4  3EFF               	addlw	-1
  1686  03E5  1D03               	skipz
  1687  03E6  2BDF               	goto	u1465
  1688  03E7                     l696:
  1689  03E7  30FF               	movlw	255
  1690  03E8  0536               	andwf	___xxtofl@arg+3,w
  1691  03E9  1D03               	btfss	3,2
  1692  03EA  2BEC               	goto	u1471
  1693  03EB  2BED               	goto	u1470
  1694  03EC                     u1471:
  1695  03EC  2BCC               	goto	l1537
  1696  03ED                     u1470:
  1697  03ED  2BF9               	goto	l1545
  1698  03EE                     l1543:
  1699  03EE  3001               	movlw	1
  1700  03EF  02B2               	subwf	___xxtofl@exp,f
  1701  03F0  3001               	movlw	1
  1702  03F1  00AD               	movwf	??___xxtofl
  1703  03F2                     u1485:
  1704  03F2  1003               	clrc
  1705  03F3  0DB3               	rlf	___xxtofl@arg,f
  1706  03F4  0DB4               	rlf	___xxtofl@arg+1,f
  1707  03F5  0DB5               	rlf	___xxtofl@arg+2,f
  1708  03F6  0DB6               	rlf	___xxtofl@arg+3,f
  1709  03F7  0BAD               	decfsz	??___xxtofl,f
  1710  03F8  2BF2               	goto	u1485
  1711  03F9                     l1545:
  1712  03F9  1BB5               	btfsc	___xxtofl@arg+2,7
  1713  03FA  2BFC               	goto	u1491
  1714  03FB  2BFD               	goto	u1490
  1715  03FC                     u1491:
  1716  03FC  2C03               	goto	l703
  1717  03FD                     u1490:
  1718  03FD                     l1547:
  1719  03FD  3002               	movlw	2
  1720  03FE  0232               	subwf	___xxtofl@exp,w
  1721  03FF  1803               	skipnc
  1722  0400  2C02               	goto	u1501
  1723  0401  2C03               	goto	u1500
  1724  0402                     u1501:
  1725  0402  2BEE               	goto	l1543
  1726  0403                     u1500:
  1727  0403                     l703:
  1728  0403  1832               	btfsc	___xxtofl@exp,0
  1729  0404  2C06               	goto	u1511
  1730  0405  2C07               	goto	u1510
  1731  0406                     u1511:
  1732  0406  2C0F               	goto	l704
  1733  0407                     u1510:
  1734  0407                     l1549:
  1735  0407  30FF               	movlw	255
  1736  0408  05B3               	andwf	___xxtofl@arg,f
  1737  0409  30FF               	movlw	255
  1738  040A  05B4               	andwf	___xxtofl@arg+1,f
  1739  040B  307F               	movlw	127
  1740  040C  05B5               	andwf	___xxtofl@arg+2,f
  1741  040D  30FF               	movlw	255
  1742  040E  05B6               	andwf	___xxtofl@arg+3,f
  1743  040F                     l704:
  1744  040F  1003               	clrc
  1745  0410  0CB2               	rrf	___xxtofl@exp,f
  1746  0411                     l1551:
  1747  0411  0832               	movf	___xxtofl@exp,w
  1748  0412  00AD               	movwf	??___xxtofl
  1749  0413  01AE               	clrf	??___xxtofl+1
  1750  0414  01AF               	clrf	??___xxtofl+2
  1751  0415  01B0               	clrf	??___xxtofl+3
  1752  0416  3018               	movlw	24
  1753  0417                     u1525:
  1754  0417  1003               	clrc
  1755  0418  0DAD               	rlf	??___xxtofl,f
  1756  0419  0DAE               	rlf	??___xxtofl+1,f
  1757  041A  0DAF               	rlf	??___xxtofl+2,f
  1758  041B  0DB0               	rlf	??___xxtofl+3,f
  1759  041C                     u1520:
  1760  041C  3EFF               	addlw	-1
  1761  041D  1D03               	skipz
  1762  041E  2C17               	goto	u1525
  1763  041F  082D               	movf	??___xxtofl,w
  1764  0420  04B3               	iorwf	___xxtofl@arg,f
  1765  0421  082E               	movf	??___xxtofl+1,w
  1766  0422  04B4               	iorwf	___xxtofl@arg+1,f
  1767  0423  082F               	movf	??___xxtofl+2,w
  1768  0424  04B5               	iorwf	___xxtofl@arg+2,f
  1769  0425  0830               	movf	??___xxtofl+3,w
  1770  0426  04B6               	iorwf	___xxtofl@arg+3,f
  1771  0427                     l1553:
  1772  0427  0831               	movf	___xxtofl@sign,w
  1773  0428  1903               	btfsc	3,2
  1774  0429  2C2B               	goto	u1531
  1775  042A  2C2C               	goto	u1530
  1776  042B                     u1531:
  1777  042B  2C31               	goto	l1559
  1778  042C                     u1530:
  1779  042C                     l1555:
  1780  042C  1FAC               	btfss	___xxtofl@val+3,7
  1781  042D  2C2F               	goto	u1541
  1782  042E  2C30               	goto	u1540
  1783  042F                     u1541:
  1784  042F  2C31               	goto	l1559
  1785  0430                     u1540:
  1786  0430                     l1557:
  1787  0430  17B6               	bsf	___xxtofl@arg+3,7
  1788  0431                     l1559:
  1789  0431  0836               	movf	___xxtofl@arg+3,w
  1790  0432  00AC               	movwf	?___xxtofl+3
  1791  0433  0835               	movf	___xxtofl@arg+2,w
  1792  0434  00AB               	movwf	?___xxtofl+2
  1793  0435  0834               	movf	___xxtofl@arg+1,w
  1794  0436  00AA               	movwf	?___xxtofl+1
  1795  0437  0833               	movf	___xxtofl@arg,w
  1796  0438  00A9               	movwf	?___xxtofl
  1797  0439                     l692:
  1798  0439  0008               	return
  1799  043A                     __end_of___xxtofl:
  1800                           
  1801                           	psect	text5
  1802  001D                     __ptext5:	
  1803 ;; *************** function ___flmul *****************
  1804 ;; Defined at:
  1805 ;;		line 8 in file "C:\Program Files\Microchip\xc8\v2.31\pic\sources\c90\common\sprcmul.c"
  1806 ;; Parameters:    Size  Location     Type
  1807 ;;  b               4   23[BANK0 ] unsigned char 
  1808 ;;  a               4   27[BANK0 ] unsigned char 
  1809 ;; Auto vars:     Size  Location     Type
  1810 ;;  prod            4   43[BANK0 ] struct .
  1811 ;;  grs             4   37[BANK0 ] unsigned long 
  1812 ;;  temp            2   47[BANK0 ] struct .
  1813 ;;  bexp            1   42[BANK0 ] unsigned char 
  1814 ;;  aexp            1   41[BANK0 ] unsigned char 
  1815 ;;  sign            1   36[BANK0 ] unsigned char 
  1816 ;; Return value:  Size  Location     Type
  1817 ;;                  4   23[BANK0 ] unsigned char 
  1818 ;; Registers used:
  1819 ;;		wreg, status,2, status,0, btemp+1, pclath, cstack
  1820 ;; Tracked objects:
  1821 ;;		On entry : 0/0
  1822 ;;		On exit  : 0/0
  1823 ;;		Unchanged: 0/0
  1824 ;; Data sizes:     COMMON   BANK0   BANK1   BANK3   BANK2
  1825 ;;      Params:         0       8       0       0       0
  1826 ;;      Locals:         0      13       0       0       0
  1827 ;;      Temps:          0       5       0       0       0
  1828 ;;      Totals:         0      26       0       0       0
  1829 ;;Total ram usage:       26 bytes
  1830 ;; Hardware stack levels used:    1
  1831 ;; Hardware stack levels required when called:    3
  1832 ;; This function calls:
  1833 ;;		__Umul8_16
  1834 ;; This function is called by:
  1835 ;;		_main
  1836 ;; This function uses a non-reentrant model
  1837 ;;
  1838                           
  1839                           
  1840                           ;psect for function ___flmul
  1841  001D                     ___flmul:
  1842  001D                     l1379:	
  1843                           ;incstack = 0
  1844                           ; Regs used in ___flmul: [wreg+status,2+status,0+btemp+1+pclath+cstack]
  1845                           
  1846  001D  1283               	bcf	3,5	;RP0=0, select bank0
  1847  001E  1303               	bcf	3,6	;RP1=0, select bank0
  1848  001F  083A               	movf	___flmul@b+3,w
  1849  0020  3980               	andlw	128
  1850  0021  00BF               	movwf	??___flmul
  1851  0022  083F               	movf	??___flmul,w
  1852  0023  00C4               	movwf	___flmul@sign
  1853  0024                     l1381:
  1854  0024  083A               	movf	___flmul@b+3,w
  1855  0025  00BF               	movwf	??___flmul
  1856  0026  073F               	addwf	??___flmul,w
  1857  0027  00C0               	movwf	??___flmul+1
  1858  0028  0840               	movf	??___flmul+1,w
  1859  0029  00CA               	movwf	___flmul@bexp
  1860  002A                     l1383:
  1861  002A  1FB9               	btfss	___flmul@b+2,7
  1862  002B  282D               	goto	u1041
  1863  002C  282E               	goto	u1040
  1864  002D                     u1041:
  1865  002D  282F               	goto	l1387
  1866  002E                     u1040:
  1867  002E                     l1385:
  1868  002E  144A               	bsf	___flmul@bexp,0
  1869  002F                     l1387:
  1870  002F  084A               	movf	___flmul@bexp,w
  1871  0030  1903               	btfsc	3,2
  1872  0031  2833               	goto	u1051
  1873  0032  2834               	goto	u1050
  1874  0033                     u1051:
  1875  0033  2843               	goto	l1395
  1876  0034                     u1050:
  1877  0034                     l1389:
  1878  0034  0A4A               	incf	___flmul@bexp,w
  1879  0035  1D03               	btfss	3,2
  1880  0036  2838               	goto	u1061
  1881  0037  2839               	goto	u1060
  1882  0038                     u1061:
  1883  0038  2841               	goto	l1393
  1884  0039                     u1060:
  1885  0039                     l1391:
  1886  0039  3000               	movlw	0
  1887  003A  00BA               	movwf	___flmul@b+3
  1888  003B  3000               	movlw	0
  1889  003C  00B9               	movwf	___flmul@b+2
  1890  003D  3000               	movlw	0
  1891  003E  00B8               	movwf	___flmul@b+1
  1892  003F  3000               	movlw	0
  1893  0040  00B7               	movwf	___flmul@b
  1894  0041                     l1393:
  1895  0041  17B9               	bsf	___flmul@b+2,7
  1896  0042  284B               	goto	l1397
  1897  0043                     l1395:
  1898  0043  3000               	movlw	0
  1899  0044  00BA               	movwf	___flmul@b+3
  1900  0045  3000               	movlw	0
  1901  0046  00B9               	movwf	___flmul@b+2
  1902  0047  3000               	movlw	0
  1903  0048  00B8               	movwf	___flmul@b+1
  1904  0049  3000               	movlw	0
  1905  004A  00B7               	movwf	___flmul@b
  1906  004B                     l1397:
  1907  004B  083E               	movf	___flmul@a+3,w
  1908  004C  3980               	andlw	128
  1909  004D  00BF               	movwf	??___flmul
  1910  004E  083F               	movf	??___flmul,w
  1911  004F  06C4               	xorwf	___flmul@sign,f
  1912  0050                     l1399:
  1913  0050  083E               	movf	___flmul@a+3,w
  1914  0051  00BF               	movwf	??___flmul
  1915  0052  073F               	addwf	??___flmul,w
  1916  0053  00C0               	movwf	??___flmul+1
  1917  0054  0840               	movf	??___flmul+1,w
  1918  0055  00C9               	movwf	___flmul@aexp
  1919  0056                     l1401:
  1920  0056  1FBD               	btfss	___flmul@a+2,7
  1921  0057  2859               	goto	u1071
  1922  0058  285A               	goto	u1070
  1923  0059                     u1071:
  1924  0059  285B               	goto	l1405
  1925  005A                     u1070:
  1926  005A                     l1403:
  1927  005A  1449               	bsf	___flmul@aexp,0
  1928  005B                     l1405:
  1929  005B  0849               	movf	___flmul@aexp,w
  1930  005C  1903               	btfsc	3,2
  1931  005D  285F               	goto	u1081
  1932  005E  2860               	goto	u1080
  1933  005F                     u1081:
  1934  005F  286F               	goto	l1413
  1935  0060                     u1080:
  1936  0060                     l1407:
  1937  0060  0A49               	incf	___flmul@aexp,w
  1938  0061  1D03               	btfss	3,2
  1939  0062  2864               	goto	u1091
  1940  0063  2865               	goto	u1090
  1941  0064                     u1091:
  1942  0064  286D               	goto	l1411
  1943  0065                     u1090:
  1944  0065                     l1409:
  1945  0065  3000               	movlw	0
  1946  0066  00BE               	movwf	___flmul@a+3
  1947  0067  3000               	movlw	0
  1948  0068  00BD               	movwf	___flmul@a+2
  1949  0069  3000               	movlw	0
  1950  006A  00BC               	movwf	___flmul@a+1
  1951  006B  3000               	movlw	0
  1952  006C  00BB               	movwf	___flmul@a
  1953  006D                     l1411:
  1954  006D  17BD               	bsf	___flmul@a+2,7
  1955  006E  2877               	goto	l1415
  1956  006F                     l1413:
  1957  006F  3000               	movlw	0
  1958  0070  00BE               	movwf	___flmul@a+3
  1959  0071  3000               	movlw	0
  1960  0072  00BD               	movwf	___flmul@a+2
  1961  0073  3000               	movlw	0
  1962  0074  00BC               	movwf	___flmul@a+1
  1963  0075  3000               	movlw	0
  1964  0076  00BB               	movwf	___flmul@a
  1965  0077                     l1415:
  1966  0077  0849               	movf	___flmul@aexp,w
  1967  0078  1903               	btfsc	3,2
  1968  0079  287B               	goto	u1101
  1969  007A  287C               	goto	u1100
  1970  007B                     u1101:
  1971  007B  2881               	goto	l1419
  1972  007C                     u1100:
  1973  007C                     l1417:
  1974  007C  084A               	movf	___flmul@bexp,w
  1975  007D  1D03               	btfss	3,2
  1976  007E  2880               	goto	u1111
  1977  007F  2881               	goto	u1110
  1978  0080                     u1111:
  1979  0080  288A               	goto	l1423
  1980  0081                     u1110:
  1981  0081                     l1419:
  1982  0081  3000               	movlw	0
  1983  0082  00BA               	movwf	?___flmul+3
  1984  0083  3000               	movlw	0
  1985  0084  00B9               	movwf	?___flmul+2
  1986  0085  3000               	movlw	0
  1987  0086  00B8               	movwf	?___flmul+1
  1988  0087  3000               	movlw	0
  1989  0088  00B7               	movwf	?___flmul
  1990  0089  2B7D               	goto	l646
  1991  008A                     l1423:
  1992  008A  0837               	movf	___flmul@b,w
  1993  008B  00BF               	movwf	??___flmul
  1994  008C  083F               	movf	??___flmul,w
  1995  008D  00A9               	movwf	__Umul8_16@multiplicand
  1996  008E  083D               	movf	___flmul@a+2,w
  1997  008F  120A  118A  27CB  120A  118A  	fcall	__Umul8_16
  1998  0094  1283               	bcf	3,5	;RP0=0, select bank0
  1999  0095  1303               	bcf	3,6	;RP1=0, select bank0
  2000  0096  082A               	movf	?__Umul8_16+1,w
  2001  0097  00D0               	movwf	___flmul@temp+1
  2002  0098  0829               	movf	?__Umul8_16,w
  2003  0099  00CF               	movwf	___flmul@temp
  2004  009A                     l1425:
  2005  009A  084F               	movf	___flmul@temp,w
  2006  009B  00BF               	movwf	??___flmul
  2007  009C  01C0               	clrf	??___flmul+1
  2008  009D  01C1               	clrf	??___flmul+2
  2009  009E  01C2               	clrf	??___flmul+3
  2010  009F  0842               	movf	??___flmul+3,w
  2011  00A0  00C8               	movwf	___flmul@grs+3
  2012  00A1  0841               	movf	??___flmul+2,w
  2013  00A2  00C7               	movwf	___flmul@grs+2
  2014  00A3  0840               	movf	??___flmul+1,w
  2015  00A4  00C6               	movwf	___flmul@grs+1
  2016  00A5  083F               	movf	??___flmul,w
  2017  00A6  00C5               	movwf	___flmul@grs
  2018  00A7                     l1427:
  2019  00A7  0850               	movf	___flmul@temp+1,w
  2020  00A8  00BF               	movwf	??___flmul
  2021  00A9  01C0               	clrf	??___flmul+1
  2022  00AA  01C1               	clrf	??___flmul+2
  2023  00AB  01C2               	clrf	??___flmul+3
  2024  00AC  0842               	movf	??___flmul+3,w
  2025  00AD  00CE               	movwf	___flmul@prod+3
  2026  00AE  0841               	movf	??___flmul+2,w
  2027  00AF  00CD               	movwf	___flmul@prod+2
  2028  00B0  0840               	movf	??___flmul+1,w
  2029  00B1  00CC               	movwf	___flmul@prod+1
  2030  00B2  083F               	movf	??___flmul,w
  2031  00B3  00CB               	movwf	___flmul@prod
  2032  00B4  0838               	movf	___flmul@b+1,w
  2033  00B5  00BF               	movwf	??___flmul
  2034  00B6  083F               	movf	??___flmul,w
  2035  00B7  00A9               	movwf	__Umul8_16@multiplicand
  2036  00B8  083C               	movf	___flmul@a+1,w
  2037  00B9  120A  118A  27CB  120A  118A  	fcall	__Umul8_16
  2038  00BE  1283               	bcf	3,5	;RP0=0, select bank0
  2039  00BF  1303               	bcf	3,6	;RP1=0, select bank0
  2040  00C0  082A               	movf	?__Umul8_16+1,w
  2041  00C1  00D0               	movwf	___flmul@temp+1
  2042  00C2  0829               	movf	?__Umul8_16,w
  2043  00C3  00CF               	movwf	___flmul@temp
  2044  00C4                     l1429:
  2045  00C4  084F               	movf	___flmul@temp,w
  2046  00C5  00BF               	movwf	??___flmul
  2047  00C6  01C0               	clrf	??___flmul+1
  2048  00C7  01C1               	clrf	??___flmul+2
  2049  00C8  01C2               	clrf	??___flmul+3
  2050  00C9  083F               	movf	??___flmul,w
  2051  00CA  07C5               	addwf	___flmul@grs,f
  2052  00CB  0840               	movf	??___flmul+1,w
  2053  00CC  1103               	clrz
  2054  00CD  1803               	skipnc
  2055  00CE  3E01               	addlw	1
  2056  00CF  1903               	skipnz
  2057  00D0  28D2               	goto	u1121
  2058  00D1  07C6               	addwf	___flmul@grs+1,f
  2059  00D2                     u1121:
  2060  00D2  0841               	movf	??___flmul+2,w
  2061  00D3  1103               	clrz
  2062  00D4  1803               	skipnc
  2063  00D5  3E01               	addlw	1
  2064  00D6  1903               	skipnz
  2065  00D7  28D9               	goto	u1122
  2066  00D8  07C7               	addwf	___flmul@grs+2,f
  2067  00D9                     u1122:
  2068  00D9  0842               	movf	??___flmul+3,w
  2069  00DA  1103               	clrz
  2070  00DB  1803               	skipnc
  2071  00DC  3E01               	addlw	1
  2072  00DD  1903               	skipnz
  2073  00DE  28E0               	goto	u1123
  2074  00DF  07C8               	addwf	___flmul@grs+3,f
  2075  00E0                     u1123:
  2076  00E0                     l1431:
  2077  00E0  0850               	movf	___flmul@temp+1,w
  2078  00E1  00BF               	movwf	??___flmul
  2079  00E2  01C0               	clrf	??___flmul+1
  2080  00E3  01C1               	clrf	??___flmul+2
  2081  00E4  01C2               	clrf	??___flmul+3
  2082  00E5  083F               	movf	??___flmul,w
  2083  00E6  07CB               	addwf	___flmul@prod,f
  2084  00E7  0840               	movf	??___flmul+1,w
  2085  00E8  1103               	clrz
  2086  00E9  1803               	skipnc
  2087  00EA  3E01               	addlw	1
  2088  00EB  1903               	skipnz
  2089  00EC  28EE               	goto	u1131
  2090  00ED  07CC               	addwf	___flmul@prod+1,f
  2091  00EE                     u1131:
  2092  00EE  0841               	movf	??___flmul+2,w
  2093  00EF  1103               	clrz
  2094  00F0  1803               	skipnc
  2095  00F1  3E01               	addlw	1
  2096  00F2  1903               	skipnz
  2097  00F3  28F5               	goto	u1132
  2098  00F4  07CD               	addwf	___flmul@prod+2,f
  2099  00F5                     u1132:
  2100  00F5  0842               	movf	??___flmul+3,w
  2101  00F6  1103               	clrz
  2102  00F7  1803               	skipnc
  2103  00F8  3E01               	addlw	1
  2104  00F9  1903               	skipnz
  2105  00FA  28FC               	goto	u1133
  2106  00FB  07CE               	addwf	___flmul@prod+3,f
  2107  00FC                     u1133:
  2108  00FC  0839               	movf	___flmul@b+2,w
  2109  00FD  00BF               	movwf	??___flmul
  2110  00FE  083F               	movf	??___flmul,w
  2111  00FF  00A9               	movwf	__Umul8_16@multiplicand
  2112  0100  083B               	movf	___flmul@a,w
  2113  0101  120A  118A  27CB  120A  118A  	fcall	__Umul8_16
  2114  0106  1283               	bcf	3,5	;RP0=0, select bank0
  2115  0107  1303               	bcf	3,6	;RP1=0, select bank0
  2116  0108  082A               	movf	?__Umul8_16+1,w
  2117  0109  00D0               	movwf	___flmul@temp+1
  2118  010A  0829               	movf	?__Umul8_16,w
  2119  010B  00CF               	movwf	___flmul@temp
  2120  010C                     l1433:
  2121  010C  084F               	movf	___flmul@temp,w
  2122  010D  00BF               	movwf	??___flmul
  2123  010E  01C0               	clrf	??___flmul+1
  2124  010F  01C1               	clrf	??___flmul+2
  2125  0110  01C2               	clrf	??___flmul+3
  2126  0111  083F               	movf	??___flmul,w
  2127  0112  07C5               	addwf	___flmul@grs,f
  2128  0113  0840               	movf	??___flmul+1,w
  2129  0114  1103               	clrz
  2130  0115  1803               	skipnc
  2131  0116  3E01               	addlw	1
  2132  0117  1903               	skipnz
  2133  0118  291A               	goto	u1141
  2134  0119  07C6               	addwf	___flmul@grs+1,f
  2135  011A                     u1141:
  2136  011A  0841               	movf	??___flmul+2,w
  2137  011B  1103               	clrz
  2138  011C  1803               	skipnc
  2139  011D  3E01               	addlw	1
  2140  011E  1903               	skipnz
  2141  011F  2921               	goto	u1142
  2142  0120  07C7               	addwf	___flmul@grs+2,f
  2143  0121                     u1142:
  2144  0121  0842               	movf	??___flmul+3,w
  2145  0122  1103               	clrz
  2146  0123  1803               	skipnc
  2147  0124  3E01               	addlw	1
  2148  0125  1903               	skipnz
  2149  0126  2928               	goto	u1143
  2150  0127  07C8               	addwf	___flmul@grs+3,f
  2151  0128                     u1143:
  2152  0128                     l1435:
  2153  0128  0850               	movf	___flmul@temp+1,w
  2154  0129  00BF               	movwf	??___flmul
  2155  012A  01C0               	clrf	??___flmul+1
  2156  012B  01C1               	clrf	??___flmul+2
  2157  012C  01C2               	clrf	??___flmul+3
  2158  012D  083F               	movf	??___flmul,w
  2159  012E  07CB               	addwf	___flmul@prod,f
  2160  012F  0840               	movf	??___flmul+1,w
  2161  0130  1103               	clrz
  2162  0131  1803               	skipnc
  2163  0132  3E01               	addlw	1
  2164  0133  1903               	skipnz
  2165  0134  2936               	goto	u1151
  2166  0135  07CC               	addwf	___flmul@prod+1,f
  2167  0136                     u1151:
  2168  0136  0841               	movf	??___flmul+2,w
  2169  0137  1103               	clrz
  2170  0138  1803               	skipnc
  2171  0139  3E01               	addlw	1
  2172  013A  1903               	skipnz
  2173  013B  293D               	goto	u1152
  2174  013C  07CD               	addwf	___flmul@prod+2,f
  2175  013D                     u1152:
  2176  013D  0842               	movf	??___flmul+3,w
  2177  013E  1103               	clrz
  2178  013F  1803               	skipnc
  2179  0140  3E01               	addlw	1
  2180  0141  1903               	skipnz
  2181  0142  2944               	goto	u1153
  2182  0143  07CE               	addwf	___flmul@prod+3,f
  2183  0144                     u1153:
  2184  0144                     l1437:
  2185  0144  3008               	movlw	8
  2186  0145  00BF               	movwf	??___flmul
  2187  0146                     u1165:
  2188  0146  1003               	clrc
  2189  0147  0DC5               	rlf	___flmul@grs,f
  2190  0148  0DC6               	rlf	___flmul@grs+1,f
  2191  0149  0DC7               	rlf	___flmul@grs+2,f
  2192  014A  0DC8               	rlf	___flmul@grs+3,f
  2193  014B  0BBF               	decfsz	??___flmul,f
  2194  014C  2946               	goto	u1165
  2195  014D                     l1439:
  2196  014D  0838               	movf	___flmul@b+1,w
  2197  014E  00BF               	movwf	??___flmul
  2198  014F  083F               	movf	??___flmul,w
  2199  0150  00A9               	movwf	__Umul8_16@multiplicand
  2200  0151  083B               	movf	___flmul@a,w
  2201  0152  120A  118A  27CB  120A  118A  	fcall	__Umul8_16
  2202  0157  1283               	bcf	3,5	;RP0=0, select bank0
  2203  0158  1303               	bcf	3,6	;RP1=0, select bank0
  2204  0159  082A               	movf	?__Umul8_16+1,w
  2205  015A  00D0               	movwf	___flmul@temp+1
  2206  015B  0829               	movf	?__Umul8_16,w
  2207  015C  00CF               	movwf	___flmul@temp
  2208  015D                     l1441:
  2209  015D  084F               	movf	___flmul@temp,w
  2210  015E  00BF               	movwf	??___flmul
  2211  015F  0850               	movf	___flmul@temp+1,w
  2212  0160  00C0               	movwf	??___flmul+1
  2213  0161  01C1               	clrf	??___flmul+2
  2214  0162  01C2               	clrf	??___flmul+3
  2215  0163  083F               	movf	??___flmul,w
  2216  0164  07C5               	addwf	___flmul@grs,f
  2217  0165  0840               	movf	??___flmul+1,w
  2218  0166  1103               	clrz
  2219  0167  1803               	skipnc
  2220  0168  3E01               	addlw	1
  2221  0169  1903               	skipnz
  2222  016A  296C               	goto	u1171
  2223  016B  07C6               	addwf	___flmul@grs+1,f
  2224  016C                     u1171:
  2225  016C  0841               	movf	??___flmul+2,w
  2226  016D  1103               	clrz
  2227  016E  1803               	skipnc
  2228  016F  3E01               	addlw	1
  2229  0170  1903               	skipnz
  2230  0171  2973               	goto	u1172
  2231  0172  07C7               	addwf	___flmul@grs+2,f
  2232  0173                     u1172:
  2233  0173  0842               	movf	??___flmul+3,w
  2234  0174  1103               	clrz
  2235  0175  1803               	skipnc
  2236  0176  3E01               	addlw	1
  2237  0177  1903               	skipnz
  2238  0178  297A               	goto	u1173
  2239  0179  07C8               	addwf	___flmul@grs+3,f
  2240  017A                     u1173:
  2241  017A                     l1443:
  2242  017A  0837               	movf	___flmul@b,w
  2243  017B  00BF               	movwf	??___flmul
  2244  017C  083F               	movf	??___flmul,w
  2245  017D  00A9               	movwf	__Umul8_16@multiplicand
  2246  017E  083C               	movf	___flmul@a+1,w
  2247  017F  120A  118A  27CB  120A  118A  	fcall	__Umul8_16
  2248  0184  1283               	bcf	3,5	;RP0=0, select bank0
  2249  0185  1303               	bcf	3,6	;RP1=0, select bank0
  2250  0186  082A               	movf	?__Umul8_16+1,w
  2251  0187  00D0               	movwf	___flmul@temp+1
  2252  0188  0829               	movf	?__Umul8_16,w
  2253  0189  00CF               	movwf	___flmul@temp
  2254  018A                     l1445:
  2255  018A  084F               	movf	___flmul@temp,w
  2256  018B  00BF               	movwf	??___flmul
  2257  018C  0850               	movf	___flmul@temp+1,w
  2258  018D  00C0               	movwf	??___flmul+1
  2259  018E  01C1               	clrf	??___flmul+2
  2260  018F  01C2               	clrf	??___flmul+3
  2261  0190  083F               	movf	??___flmul,w
  2262  0191  07C5               	addwf	___flmul@grs,f
  2263  0192  0840               	movf	??___flmul+1,w
  2264  0193  1103               	clrz
  2265  0194  1803               	skipnc
  2266  0195  3E01               	addlw	1
  2267  0196  1903               	skipnz
  2268  0197  2999               	goto	u1181
  2269  0198  07C6               	addwf	___flmul@grs+1,f
  2270  0199                     u1181:
  2271  0199  0841               	movf	??___flmul+2,w
  2272  019A  1103               	clrz
  2273  019B  1803               	skipnc
  2274  019C  3E01               	addlw	1
  2275  019D  1903               	skipnz
  2276  019E  29A0               	goto	u1182
  2277  019F  07C7               	addwf	___flmul@grs+2,f
  2278  01A0                     u1182:
  2279  01A0  0842               	movf	??___flmul+3,w
  2280  01A1  1103               	clrz
  2281  01A2  1803               	skipnc
  2282  01A3  3E01               	addlw	1
  2283  01A4  1903               	skipnz
  2284  01A5  29A7               	goto	u1183
  2285  01A6  07C8               	addwf	___flmul@grs+3,f
  2286  01A7                     u1183:
  2287  01A7                     l1447:
  2288  01A7  3008               	movlw	8
  2289  01A8  00BF               	movwf	??___flmul
  2290  01A9                     u1195:
  2291  01A9  1003               	clrc
  2292  01AA  0DC5               	rlf	___flmul@grs,f
  2293  01AB  0DC6               	rlf	___flmul@grs+1,f
  2294  01AC  0DC7               	rlf	___flmul@grs+2,f
  2295  01AD  0DC8               	rlf	___flmul@grs+3,f
  2296  01AE  0BBF               	decfsz	??___flmul,f
  2297  01AF  29A9               	goto	u1195
  2298  01B0  0837               	movf	___flmul@b,w
  2299  01B1  00BF               	movwf	??___flmul
  2300  01B2  083F               	movf	??___flmul,w
  2301  01B3  00A9               	movwf	__Umul8_16@multiplicand
  2302  01B4  083B               	movf	___flmul@a,w
  2303  01B5  120A  118A  27CB  120A  118A  	fcall	__Umul8_16
  2304  01BA  1283               	bcf	3,5	;RP0=0, select bank0
  2305  01BB  1303               	bcf	3,6	;RP1=0, select bank0
  2306  01BC  082A               	movf	?__Umul8_16+1,w
  2307  01BD  00D0               	movwf	___flmul@temp+1
  2308  01BE  0829               	movf	?__Umul8_16,w
  2309  01BF  00CF               	movwf	___flmul@temp
  2310  01C0                     l1449:
  2311  01C0  084F               	movf	___flmul@temp,w
  2312  01C1  00BF               	movwf	??___flmul
  2313  01C2  0850               	movf	___flmul@temp+1,w
  2314  01C3  00C0               	movwf	??___flmul+1
  2315  01C4  01C1               	clrf	??___flmul+2
  2316  01C5  01C2               	clrf	??___flmul+3
  2317  01C6  083F               	movf	??___flmul,w
  2318  01C7  07C5               	addwf	___flmul@grs,f
  2319  01C8  0840               	movf	??___flmul+1,w
  2320  01C9  1103               	clrz
  2321  01CA  1803               	skipnc
  2322  01CB  3E01               	addlw	1
  2323  01CC  1903               	skipnz
  2324  01CD  29CF               	goto	u1201
  2325  01CE  07C6               	addwf	___flmul@grs+1,f
  2326  01CF                     u1201:
  2327  01CF  0841               	movf	??___flmul+2,w
  2328  01D0  1103               	clrz
  2329  01D1  1803               	skipnc
  2330  01D2  3E01               	addlw	1
  2331  01D3  1903               	skipnz
  2332  01D4  29D6               	goto	u1202
  2333  01D5  07C7               	addwf	___flmul@grs+2,f
  2334  01D6                     u1202:
  2335  01D6  0842               	movf	??___flmul+3,w
  2336  01D7  1103               	clrz
  2337  01D8  1803               	skipnc
  2338  01D9  3E01               	addlw	1
  2339  01DA  1903               	skipnz
  2340  01DB  29DD               	goto	u1203
  2341  01DC  07C8               	addwf	___flmul@grs+3,f
  2342  01DD                     u1203:
  2343  01DD                     l1451:
  2344  01DD  0838               	movf	___flmul@b+1,w
  2345  01DE  00BF               	movwf	??___flmul
  2346  01DF  083F               	movf	??___flmul,w
  2347  01E0  00A9               	movwf	__Umul8_16@multiplicand
  2348  01E1  083D               	movf	___flmul@a+2,w
  2349  01E2  120A  118A  27CB  120A  118A  	fcall	__Umul8_16
  2350  01E7  1283               	bcf	3,5	;RP0=0, select bank0
  2351  01E8  1303               	bcf	3,6	;RP1=0, select bank0
  2352  01E9  082A               	movf	?__Umul8_16+1,w
  2353  01EA  00D0               	movwf	___flmul@temp+1
  2354  01EB  0829               	movf	?__Umul8_16,w
  2355  01EC  00CF               	movwf	___flmul@temp
  2356  01ED  084F               	movf	___flmul@temp,w
  2357  01EE  00BF               	movwf	??___flmul
  2358  01EF  0850               	movf	___flmul@temp+1,w
  2359  01F0  00C0               	movwf	??___flmul+1
  2360  01F1  01C1               	clrf	??___flmul+2
  2361  01F2  01C2               	clrf	??___flmul+3
  2362  01F3  083F               	movf	??___flmul,w
  2363  01F4  07CB               	addwf	___flmul@prod,f
  2364  01F5  0840               	movf	??___flmul+1,w
  2365  01F6  1103               	clrz
  2366  01F7  1803               	skipnc
  2367  01F8  3E01               	addlw	1
  2368  01F9  1903               	skipnz
  2369  01FA  29FC               	goto	u1211
  2370  01FB  07CC               	addwf	___flmul@prod+1,f
  2371  01FC                     u1211:
  2372  01FC  0841               	movf	??___flmul+2,w
  2373  01FD  1103               	clrz
  2374  01FE  1803               	skipnc
  2375  01FF  3E01               	addlw	1
  2376  0200  1903               	skipnz
  2377  0201  2A03               	goto	u1212
  2378  0202  07CD               	addwf	___flmul@prod+2,f
  2379  0203                     u1212:
  2380  0203  0842               	movf	??___flmul+3,w
  2381  0204  1103               	clrz
  2382  0205  1803               	skipnc
  2383  0206  3E01               	addlw	1
  2384  0207  1903               	skipnz
  2385  0208  2A0A               	goto	u1213
  2386  0209  07CE               	addwf	___flmul@prod+3,f
  2387  020A                     u1213:
  2388  020A                     l1453:
  2389  020A  0839               	movf	___flmul@b+2,w
  2390  020B  00BF               	movwf	??___flmul
  2391  020C  083F               	movf	??___flmul,w
  2392  020D  00A9               	movwf	__Umul8_16@multiplicand
  2393  020E  083C               	movf	___flmul@a+1,w
  2394  020F  120A  118A  27CB  120A  118A  	fcall	__Umul8_16
  2395  0214  1283               	bcf	3,5	;RP0=0, select bank0
  2396  0215  1303               	bcf	3,6	;RP1=0, select bank0
  2397  0216  082A               	movf	?__Umul8_16+1,w
  2398  0217  00D0               	movwf	___flmul@temp+1
  2399  0218  0829               	movf	?__Umul8_16,w
  2400  0219  00CF               	movwf	___flmul@temp
  2401  021A                     l1455:
  2402  021A  084F               	movf	___flmul@temp,w
  2403  021B  00BF               	movwf	??___flmul
  2404  021C  0850               	movf	___flmul@temp+1,w
  2405  021D  00C0               	movwf	??___flmul+1
  2406  021E  01C1               	clrf	??___flmul+2
  2407  021F  01C2               	clrf	??___flmul+3
  2408  0220  083F               	movf	??___flmul,w
  2409  0221  07CB               	addwf	___flmul@prod,f
  2410  0222  0840               	movf	??___flmul+1,w
  2411  0223  1103               	clrz
  2412  0224  1803               	skipnc
  2413  0225  3E01               	addlw	1
  2414  0226  1903               	skipnz
  2415  0227  2A29               	goto	u1221
  2416  0228  07CC               	addwf	___flmul@prod+1,f
  2417  0229                     u1221:
  2418  0229  0841               	movf	??___flmul+2,w
  2419  022A  1103               	clrz
  2420  022B  1803               	skipnc
  2421  022C  3E01               	addlw	1
  2422  022D  1903               	skipnz
  2423  022E  2A30               	goto	u1222
  2424  022F  07CD               	addwf	___flmul@prod+2,f
  2425  0230                     u1222:
  2426  0230  0842               	movf	??___flmul+3,w
  2427  0231  1103               	clrz
  2428  0232  1803               	skipnc
  2429  0233  3E01               	addlw	1
  2430  0234  1903               	skipnz
  2431  0235  2A37               	goto	u1223
  2432  0236  07CE               	addwf	___flmul@prod+3,f
  2433  0237                     u1223:
  2434  0237  0839               	movf	___flmul@b+2,w
  2435  0238  00BF               	movwf	??___flmul
  2436  0239  083F               	movf	??___flmul,w
  2437  023A  00A9               	movwf	__Umul8_16@multiplicand
  2438  023B  083D               	movf	___flmul@a+2,w
  2439  023C  120A  118A  27CB  120A  118A  	fcall	__Umul8_16
  2440  0241  1283               	bcf	3,5	;RP0=0, select bank0
  2441  0242  1303               	bcf	3,6	;RP1=0, select bank0
  2442  0243  082A               	movf	?__Umul8_16+1,w
  2443  0244  00D0               	movwf	___flmul@temp+1
  2444  0245  0829               	movf	?__Umul8_16,w
  2445  0246  00CF               	movwf	___flmul@temp
  2446  0247                     l1457:
  2447  0247  084F               	movf	___flmul@temp,w
  2448  0248  00BF               	movwf	??___flmul
  2449  0249  0850               	movf	___flmul@temp+1,w
  2450  024A  00C0               	movwf	??___flmul+1
  2451  024B  01C1               	clrf	??___flmul+2
  2452  024C  01C2               	clrf	??___flmul+3
  2453  024D  3008               	movlw	8
  2454  024E                     u1235:
  2455  024E  1003               	clrc
  2456  024F  0DBF               	rlf	??___flmul,f
  2457  0250  0DC0               	rlf	??___flmul+1,f
  2458  0251  0DC1               	rlf	??___flmul+2,f
  2459  0252  0DC2               	rlf	??___flmul+3,f
  2460  0253                     u1230:
  2461  0253  3EFF               	addlw	-1
  2462  0254  1D03               	skipz
  2463  0255  2A4E               	goto	u1235
  2464  0256  083F               	movf	??___flmul,w
  2465  0257  07CB               	addwf	___flmul@prod,f
  2466  0258  0840               	movf	??___flmul+1,w
  2467  0259  1103               	clrz
  2468  025A  1803               	skipnc
  2469  025B  3E01               	addlw	1
  2470  025C  1903               	skipnz
  2471  025D  2A5F               	goto	u1241
  2472  025E  07CC               	addwf	___flmul@prod+1,f
  2473  025F                     u1241:
  2474  025F  0841               	movf	??___flmul+2,w
  2475  0260  1103               	clrz
  2476  0261  1803               	skipnc
  2477  0262  3E01               	addlw	1
  2478  0263  1903               	skipnz
  2479  0264  2A66               	goto	u1242
  2480  0265  07CD               	addwf	___flmul@prod+2,f
  2481  0266                     u1242:
  2482  0266  0842               	movf	??___flmul+3,w
  2483  0267  1103               	clrz
  2484  0268  1803               	skipnc
  2485  0269  3E01               	addlw	1
  2486  026A  1903               	skipnz
  2487  026B  2A6D               	goto	u1243
  2488  026C  07CE               	addwf	___flmul@prod+3,f
  2489  026D                     u1243:
  2490  026D                     l1459:
  2491  026D  0845               	movf	___flmul@grs,w
  2492  026E  00BF               	movwf	??___flmul
  2493  026F  0846               	movf	___flmul@grs+1,w
  2494  0270  00C0               	movwf	??___flmul+1
  2495  0271  0847               	movf	___flmul@grs+2,w
  2496  0272  00C1               	movwf	??___flmul+2
  2497  0273  0848               	movf	___flmul@grs+3,w
  2498  0274  00C2               	movwf	??___flmul+3
  2499  0275  3018               	movlw	24
  2500  0276                     u1255:
  2501  0276  1003               	clrc
  2502  0277  0CC2               	rrf	??___flmul+3,f
  2503  0278  0CC1               	rrf	??___flmul+2,f
  2504  0279  0CC0               	rrf	??___flmul+1,f
  2505  027A  0CBF               	rrf	??___flmul,f
  2506  027B                     u1250:
  2507  027B  3EFF               	addlw	-1
  2508  027C  1D03               	skipz
  2509  027D  2A76               	goto	u1255
  2510  027E  083F               	movf	??___flmul,w
  2511  027F  07CB               	addwf	___flmul@prod,f
  2512  0280  0840               	movf	??___flmul+1,w
  2513  0281  1103               	clrz
  2514  0282  1803               	skipnc
  2515  0283  3E01               	addlw	1
  2516  0284  1903               	skipnz
  2517  0285  2A87               	goto	u1261
  2518  0286  07CC               	addwf	___flmul@prod+1,f
  2519  0287                     u1261:
  2520  0287  0841               	movf	??___flmul+2,w
  2521  0288  1103               	clrz
  2522  0289  1803               	skipnc
  2523  028A  3E01               	addlw	1
  2524  028B  1903               	skipnz
  2525  028C  2A8E               	goto	u1262
  2526  028D  07CD               	addwf	___flmul@prod+2,f
  2527  028E                     u1262:
  2528  028E  0842               	movf	??___flmul+3,w
  2529  028F  1103               	clrz
  2530  0290  1803               	skipnc
  2531  0291  3E01               	addlw	1
  2532  0292  1903               	skipnz
  2533  0293  2A95               	goto	u1263
  2534  0294  07CE               	addwf	___flmul@prod+3,f
  2535  0295                     u1263:
  2536  0295                     l1461:
  2537  0295  3008               	movlw	8
  2538  0296  00BF               	movwf	??___flmul
  2539  0297                     u1275:
  2540  0297  1003               	clrc
  2541  0298  0DC5               	rlf	___flmul@grs,f
  2542  0299  0DC6               	rlf	___flmul@grs+1,f
  2543  029A  0DC7               	rlf	___flmul@grs+2,f
  2544  029B  0DC8               	rlf	___flmul@grs+3,f
  2545  029C  0BBF               	decfsz	??___flmul,f
  2546  029D  2A97               	goto	u1275
  2547  029E                     l1463:
  2548  029E  084A               	movf	___flmul@bexp,w
  2549  029F  0749               	addwf	___flmul@aexp,w
  2550  02A0  00BF               	movwf	??___flmul
  2551  02A1  01C0               	clrf	??___flmul+1
  2552  02A2  0DC0               	rlf	??___flmul+1,f
  2553  02A3  083F               	movf	??___flmul,w
  2554  02A4  3E82               	addlw	130
  2555  02A5  00CF               	movwf	___flmul@temp
  2556  02A6  0840               	movf	??___flmul+1,w
  2557  02A7  1803               	skipnc
  2558  02A8  3E01               	addlw	1
  2559  02A9  3EFF               	addlw	255
  2560  02AA  00D0               	movwf	___flmul@temp+1
  2561  02AB  2AC9               	goto	l1475
  2562  02AC                     l1465:
  2563  02AC  3001               	movlw	1
  2564  02AD  00BF               	movwf	??___flmul
  2565  02AE                     u1285:
  2566  02AE  1003               	clrc
  2567  02AF  0DCB               	rlf	___flmul@prod,f
  2568  02B0  0DCC               	rlf	___flmul@prod+1,f
  2569  02B1  0DCD               	rlf	___flmul@prod+2,f
  2570  02B2  0DCE               	rlf	___flmul@prod+3,f
  2571  02B3  0BBF               	decfsz	??___flmul,f
  2572  02B4  2AAE               	goto	u1285
  2573  02B5                     l1467:
  2574  02B5  1FC8               	btfss	___flmul@grs+3,7
  2575  02B6  2AB8               	goto	u1291
  2576  02B7  2AB9               	goto	u1290
  2577  02B8                     u1291:
  2578  02B8  2ABA               	goto	l1471
  2579  02B9                     u1290:
  2580  02B9                     l1469:
  2581  02B9  144B               	bsf	___flmul@prod,0
  2582  02BA                     l1471:
  2583  02BA  3001               	movlw	1
  2584  02BB  00BF               	movwf	??___flmul
  2585  02BC                     u1305:
  2586  02BC  1003               	clrc
  2587  02BD  0DC5               	rlf	___flmul@grs,f
  2588  02BE  0DC6               	rlf	___flmul@grs+1,f
  2589  02BF  0DC7               	rlf	___flmul@grs+2,f
  2590  02C0  0DC8               	rlf	___flmul@grs+3,f
  2591  02C1  0BBF               	decfsz	??___flmul,f
  2592  02C2  2ABC               	goto	u1305
  2593  02C3                     l1473:
  2594  02C3  30FF               	movlw	255
  2595  02C4  07CF               	addwf	___flmul@temp,f
  2596  02C5  1803               	skipnc
  2597  02C6  0AD0               	incf	___flmul@temp+1,f
  2598  02C7  30FF               	movlw	255
  2599  02C8  07D0               	addwf	___flmul@temp+1,f
  2600  02C9                     l1475:
  2601  02C9  1FCD               	btfss	___flmul@prod+2,7
  2602  02CA  2ACC               	goto	u1311
  2603  02CB  2ACD               	goto	u1310
  2604  02CC                     u1311:
  2605  02CC  2AAC               	goto	l1465
  2606  02CD                     u1310:
  2607  02CD                     l1477:
  2608  02CD  01C9               	clrf	___flmul@aexp
  2609  02CE                     l1479:
  2610  02CE  1FC8               	btfss	___flmul@grs+3,7
  2611  02CF  2AD1               	goto	u1321
  2612  02D0  2AD2               	goto	u1320
  2613  02D1                     u1321:
  2614  02D1  2AEE               	goto	l1487
  2615  02D2                     u1320:
  2616  02D2                     l1481:
  2617  02D2  30FF               	movlw	255
  2618  02D3  0545               	andwf	___flmul@grs,w
  2619  02D4  00BF               	movwf	??___flmul
  2620  02D5  30FF               	movlw	255
  2621  02D6  0546               	andwf	___flmul@grs+1,w
  2622  02D7  00C0               	movwf	??___flmul+1
  2623  02D8  30FF               	movlw	255
  2624  02D9  0547               	andwf	___flmul@grs+2,w
  2625  02DA  00C1               	movwf	??___flmul+2
  2626  02DB  307F               	movlw	127
  2627  02DC  0548               	andwf	___flmul@grs+3,w
  2628  02DD  00C2               	movwf	??___flmul+3
  2629  02DE  0842               	movf	??___flmul+3,w
  2630  02DF  0441               	iorwf	??___flmul+2,w
  2631  02E0  0440               	iorwf	??___flmul+1,w
  2632  02E1  043F               	iorwf	??___flmul,w
  2633  02E2  1903               	skipnz
  2634  02E3  2AE5               	goto	u1331
  2635  02E4  2AE6               	goto	u1330
  2636  02E5                     u1331:
  2637  02E5  2AE9               	goto	l652
  2638  02E6                     u1330:
  2639  02E6                     l1483:
  2640  02E6  01C9               	clrf	___flmul@aexp
  2641  02E7  0AC9               	incf	___flmul@aexp,f
  2642  02E8  2AEE               	goto	l1487
  2643  02E9                     l652:
  2644  02E9  1C4B               	btfss	___flmul@prod,0
  2645  02EA  2AEC               	goto	u1341
  2646  02EB  2AED               	goto	u1340
  2647  02EC                     u1341:
  2648  02EC  2AEE               	goto	l1487
  2649  02ED                     u1340:
  2650  02ED  2AE6               	goto	l1483
  2651  02EE                     l1487:
  2652  02EE  0849               	movf	___flmul@aexp,w
  2653  02EF  1903               	btfsc	3,2
  2654  02F0  2AF2               	goto	u1351
  2655  02F1  2AF3               	goto	u1350
  2656  02F2                     u1351:
  2657  02F2  2B24               	goto	l1497
  2658  02F3                     u1350:
  2659  02F3                     l1489:
  2660  02F3  3001               	movlw	1
  2661  02F4  07CB               	addwf	___flmul@prod,f
  2662  02F5  3000               	movlw	0
  2663  02F6  1803               	skipnc
  2664  02F7  3001               	movlw	1
  2665  02F8  07CC               	addwf	___flmul@prod+1,f
  2666  02F9  3000               	movlw	0
  2667  02FA  1803               	skipnc
  2668  02FB  3001               	movlw	1
  2669  02FC  07CD               	addwf	___flmul@prod+2,f
  2670  02FD  3000               	movlw	0
  2671  02FE  1803               	skipnc
  2672  02FF  3001               	movlw	1
  2673  0300  07CE               	addwf	___flmul@prod+3,f
  2674  0301                     l1491:
  2675  0301  1C4E               	btfss	___flmul@prod+3,0
  2676  0302  2B04               	goto	u1361
  2677  0303  2B05               	goto	u1360
  2678  0304                     u1361:
  2679  0304  2B24               	goto	l1497
  2680  0305                     u1360:
  2681  0305                     l1493:
  2682  0305  084B               	movf	___flmul@prod,w
  2683  0306  00BF               	movwf	??___flmul
  2684  0307  084C               	movf	___flmul@prod+1,w
  2685  0308  00C0               	movwf	??___flmul+1
  2686  0309  084D               	movf	___flmul@prod+2,w
  2687  030A  00C1               	movwf	??___flmul+2
  2688  030B  084E               	movf	___flmul@prod+3,w
  2689  030C  00C2               	movwf	??___flmul+3
  2690  030D  3001               	movlw	1
  2691  030E  00C3               	movwf	??___flmul+4
  2692  030F                     u1375:
  2693  030F  0D42               	rlf	??___flmul+3,w
  2694  0310  0CC2               	rrf	??___flmul+3,f
  2695  0311  0CC1               	rrf	??___flmul+2,f
  2696  0312  0CC0               	rrf	??___flmul+1,f
  2697  0313  0CBF               	rrf	??___flmul,f
  2698  0314                     u1370:
  2699  0314  0BC3               	decfsz	??___flmul+4,f
  2700  0315  2B0F               	goto	u1375
  2701  0316  0842               	movf	??___flmul+3,w
  2702  0317  00CE               	movwf	___flmul@prod+3
  2703  0318  0841               	movf	??___flmul+2,w
  2704  0319  00CD               	movwf	___flmul@prod+2
  2705  031A  0840               	movf	??___flmul+1,w
  2706  031B  00CC               	movwf	___flmul@prod+1
  2707  031C  083F               	movf	??___flmul,w
  2708  031D  00CB               	movwf	___flmul@prod
  2709  031E                     l1495:
  2710  031E  3001               	movlw	1
  2711  031F  07CF               	addwf	___flmul@temp,f
  2712  0320  1803               	skipnc
  2713  0321  0AD0               	incf	___flmul@temp+1,f
  2714  0322  3000               	movlw	0
  2715  0323  07D0               	addwf	___flmul@temp+1,f
  2716  0324                     l1497:
  2717  0324  0850               	movf	___flmul@temp+1,w
  2718  0325  3A80               	xorlw	128
  2719  0326  00FF               	movwf	btemp+1
  2720  0327  3080               	movlw	128
  2721  0328  027F               	subwf	btemp+1,w
  2722  0329  1D03               	skipz
  2723  032A  2B2D               	goto	u1385
  2724  032B  30FF               	movlw	255
  2725  032C  024F               	subwf	___flmul@temp,w
  2726  032D                     u1385:
  2727  032D  1C03               	skipc
  2728  032E  2B30               	goto	u1381
  2729  032F  2B31               	goto	u1380
  2730  0330                     u1381:
  2731  0330  2B3C               	goto	l1501
  2732  0331                     u1380:
  2733  0331                     l1499:
  2734  0331  307F               	movlw	127
  2735  0332  1283               	bcf	3,5	;RP0=0, select bank0
  2736  0333  1303               	bcf	3,6	;RP1=0, select bank0
  2737  0334  00CE               	movwf	___flmul@prod+3
  2738  0335  3080               	movlw	128
  2739  0336  00CD               	movwf	___flmul@prod+2
  2740  0337  3000               	movlw	0
  2741  0338  00CC               	movwf	___flmul@prod+1
  2742  0339  3000               	movlw	0
  2743  033A  00CB               	movwf	___flmul@prod
  2744  033B  2B71               	goto	l658
  2745  033C                     l1501:
  2746  033C  1283               	bcf	3,5	;RP0=0, select bank0
  2747  033D  1303               	bcf	3,6	;RP1=0, select bank0
  2748  033E  0850               	movf	___flmul@temp+1,w
  2749  033F  3A80               	xorlw	128
  2750  0340  00FF               	movwf	btemp+1
  2751  0341  3080               	movlw	128
  2752  0342  027F               	subwf	btemp+1,w
  2753  0343  1D03               	skipz
  2754  0344  2B47               	goto	u1395
  2755  0345  3001               	movlw	1
  2756  0346  024F               	subwf	___flmul@temp,w
  2757  0347                     u1395:
  2758  0347  1803               	skipnc
  2759  0348  2B4A               	goto	u1391
  2760  0349  2B4B               	goto	u1390
  2761  034A                     u1391:
  2762  034A  2B57               	goto	l1507
  2763  034B                     u1390:
  2764  034B                     l1503:
  2765  034B  3000               	movlw	0
  2766  034C  1283               	bcf	3,5	;RP0=0, select bank0
  2767  034D  1303               	bcf	3,6	;RP1=0, select bank0
  2768  034E  00CE               	movwf	___flmul@prod+3
  2769  034F  3000               	movlw	0
  2770  0350  00CD               	movwf	___flmul@prod+2
  2771  0351  3000               	movlw	0
  2772  0352  00CC               	movwf	___flmul@prod+1
  2773  0353  3000               	movlw	0
  2774  0354  00CB               	movwf	___flmul@prod
  2775  0355                     l1505:
  2776  0355  01C4               	clrf	___flmul@sign
  2777  0356  2B71               	goto	l658
  2778  0357                     l1507:
  2779  0357  1283               	bcf	3,5	;RP0=0, select bank0
  2780  0358  1303               	bcf	3,6	;RP1=0, select bank0
  2781  0359  084F               	movf	___flmul@temp,w
  2782  035A  00BF               	movwf	??___flmul
  2783  035B  083F               	movf	??___flmul,w
  2784  035C  00CA               	movwf	___flmul@bexp
  2785  035D  30FF               	movlw	255
  2786  035E  05CB               	andwf	___flmul@prod,f
  2787  035F  30FF               	movlw	255
  2788  0360  05CC               	andwf	___flmul@prod+1,f
  2789  0361  307F               	movlw	127
  2790  0362  05CD               	andwf	___flmul@prod+2,f
  2791  0363  3000               	movlw	0
  2792  0364  05CE               	andwf	___flmul@prod+3,f
  2793  0365                     l1509:
  2794  0365  1C4A               	btfss	___flmul@bexp,0
  2795  0366  2B68               	goto	u1401
  2796  0367  2B69               	goto	u1400
  2797  0368                     u1401:
  2798  0368  2B6A               	goto	l1513
  2799  0369                     u1400:
  2800  0369                     l1511:
  2801  0369  17CD               	bsf	___flmul@prod+2,7
  2802  036A                     l1513:
  2803  036A  084A               	movf	___flmul@bexp,w
  2804  036B  00BF               	movwf	??___flmul
  2805  036C  1003               	clrc
  2806  036D  0C3F               	rrf	??___flmul,w
  2807  036E  00C0               	movwf	??___flmul+1
  2808  036F  0840               	movf	??___flmul+1,w
  2809  0370  00CE               	movwf	___flmul@prod+3
  2810  0371                     l658:
  2811  0371  0844               	movf	___flmul@sign,w
  2812  0372  00BF               	movwf	??___flmul
  2813  0373  083F               	movf	??___flmul,w
  2814  0374  04CE               	iorwf	___flmul@prod+3,f
  2815  0375                     l1515:
  2816  0375  084E               	movf	___flmul@prod+3,w
  2817  0376  00BA               	movwf	?___flmul+3
  2818  0377  084D               	movf	___flmul@prod+2,w
  2819  0378  00B9               	movwf	?___flmul+2
  2820  0379  084C               	movf	___flmul@prod+1,w
  2821  037A  00B8               	movwf	?___flmul+1
  2822  037B  084B               	movf	___flmul@prod,w
  2823  037C  00B7               	movwf	?___flmul
  2824  037D                     l646:
  2825  037D  0008               	return
  2826  037E                     __end_of___flmul:
  2827                           
  2828                           	psect	text6
  2829  07CB                     __ptext6:	
  2830 ;; *************** function __Umul8_16 *****************
  2831 ;; Defined at:
  2832 ;;		line 4 in file "C:\Program Files\Microchip\xc8\v2.31\pic\sources\c90\common\Umul8_16.c"
  2833 ;; Parameters:    Size  Location     Type
  2834 ;;  multiplier      1    wreg     unsigned char 
  2835 ;;  multiplicand    1    9[BANK0 ] unsigned char 
  2836 ;; Auto vars:     Size  Location     Type
  2837 ;;  multiplier      1   17[BANK0 ] unsigned char 
  2838 ;;  word_mpld       2   15[BANK0 ] unsigned int 
  2839 ;;  product         2   13[BANK0 ] unsigned int 
  2840 ;; Return value:  Size  Location     Type
  2841 ;;                  2    9[BANK0 ] unsigned int 
  2842 ;; Registers used:
  2843 ;;		wreg, status,2, status,0
  2844 ;; Tracked objects:
  2845 ;;		On entry : 0/0
  2846 ;;		On exit  : 0/0
  2847 ;;		Unchanged: 0/0
  2848 ;; Data sizes:     COMMON   BANK0   BANK1   BANK3   BANK2
  2849 ;;      Params:         0       2       0       0       0
  2850 ;;      Locals:         0       5       0       0       0
  2851 ;;      Temps:          0       2       0       0       0
  2852 ;;      Totals:         0       9       0       0       0
  2853 ;;Total ram usage:        9 bytes
  2854 ;; Hardware stack levels used:    1
  2855 ;; Hardware stack levels required when called:    2
  2856 ;; This function calls:
  2857 ;;		Nothing
  2858 ;; This function is called by:
  2859 ;;		___flmul
  2860 ;; This function uses a non-reentrant model
  2861 ;;
  2862                           
  2863                           
  2864                           ;psect for function __Umul8_16
  2865  07CB                     __Umul8_16:
  2866                           
  2867                           ;incstack = 0
  2868                           ; Regs used in __Umul8_16: [wreg+status,2+status,0]
  2869                           ;__Umul8_16@multiplier stored from wreg
  2870  07CB  1283               	bcf	3,5	;RP0=0, select bank0
  2871  07CC  1303               	bcf	3,6	;RP1=0, select bank0
  2872  07CD  00B1               	movwf	__Umul8_16@multiplier
  2873  07CE                     l1247:
  2874  07CE  01AD               	clrf	__Umul8_16@product
  2875  07CF  01AE               	clrf	__Umul8_16@product+1
  2876  07D0                     l1249:
  2877  07D0  0829               	movf	__Umul8_16@multiplicand,w
  2878  07D1  00AB               	movwf	??__Umul8_16
  2879  07D2  01AC               	clrf	??__Umul8_16+1
  2880  07D3  082B               	movf	??__Umul8_16,w
  2881  07D4  00AF               	movwf	__Umul8_16@word_mpld
  2882  07D5  082C               	movf	??__Umul8_16+1,w
  2883  07D6  00B0               	movwf	__Umul8_16@word_mpld+1
  2884  07D7                     l1251:
  2885  07D7  1C31               	btfss	__Umul8_16@multiplier,0
  2886  07D8  2FDA               	goto	u811
  2887  07D9  2FDB               	goto	u810
  2888  07DA                     u811:
  2889  07DA  2FE1               	goto	l665
  2890  07DB                     u810:
  2891  07DB                     l1253:
  2892  07DB  082F               	movf	__Umul8_16@word_mpld,w
  2893  07DC  07AD               	addwf	__Umul8_16@product,f
  2894  07DD  1803               	skipnc
  2895  07DE  0AAE               	incf	__Umul8_16@product+1,f
  2896  07DF  0830               	movf	__Umul8_16@word_mpld+1,w
  2897  07E0  07AE               	addwf	__Umul8_16@product+1,f
  2898  07E1                     l665:
  2899  07E1  3001               	movlw	1
  2900  07E2                     u825:
  2901  07E2  1003               	clrc
  2902  07E3  0DAF               	rlf	__Umul8_16@word_mpld,f
  2903  07E4  0DB0               	rlf	__Umul8_16@word_mpld+1,f
  2904  07E5  3EFF               	addlw	-1
  2905  07E6  1D03               	skipz
  2906  07E7  2FE2               	goto	u825
  2907  07E8  1003               	clrc
  2908  07E9  0CB1               	rrf	__Umul8_16@multiplier,f
  2909  07EA                     l1255:
  2910  07EA  0831               	movf	__Umul8_16@multiplier,w
  2911  07EB  1D03               	btfss	3,2
  2912  07EC  2FEE               	goto	u831
  2913  07ED  2FEF               	goto	u830
  2914  07EE                     u831:
  2915  07EE  2FD7               	goto	l1251
  2916  07EF                     u830:
  2917  07EF                     l1257:
  2918  07EF  082E               	movf	__Umul8_16@product+1,w
  2919  07F0  00AA               	movwf	?__Umul8_16+1
  2920  07F1  082D               	movf	__Umul8_16@product,w
  2921  07F2  00A9               	movwf	?__Umul8_16
  2922  07F3                     l667:
  2923  07F3  0008               	return
  2924  07F4                     __end_of__Umul8_16:
  2925                           
  2926                           	psect	text7
  2927  04E9                     __ptext7:	
  2928 ;; *************** function ___flge *****************
  2929 ;; Defined at:
  2930 ;;		line 4 in file "C:\Program Files\Microchip\xc8\v2.31\pic\sources\c90\common\flge.c"
  2931 ;; Parameters:    Size  Location     Type
  2932 ;;  ff1             4    9[BANK0 ] unsigned int 
  2933 ;;  ff2             4   13[BANK0 ] unsigned int 
  2934 ;; Auto vars:     Size  Location     Type
  2935 ;;		None
  2936 ;; Return value:  Size  Location     Type
  2937 ;;		None               void
  2938 ;; Registers used:
  2939 ;;		wreg, status,2, status,0
  2940 ;; Tracked objects:
  2941 ;;		On entry : 0/0
  2942 ;;		On exit  : 0/0
  2943 ;;		Unchanged: 0/0
  2944 ;; Data sizes:     COMMON   BANK0   BANK1   BANK3   BANK2
  2945 ;;      Params:         0       8       0       0       0
  2946 ;;      Locals:         0       0       0       0       0
  2947 ;;      Temps:          0       4       0       0       0
  2948 ;;      Totals:         0      12       0       0       0
  2949 ;;Total ram usage:       12 bytes
  2950 ;; Hardware stack levels used:    1
  2951 ;; Hardware stack levels required when called:    2
  2952 ;; This function calls:
  2953 ;;		Nothing
  2954 ;; This function is called by:
  2955 ;;		_main
  2956 ;; This function uses a non-reentrant model
  2957 ;;
  2958                           
  2959                           
  2960                           ;psect for function ___flge
  2961  04E9                     ___flge:
  2962  04E9                     l1323:	
  2963                           ;incstack = 0
  2964                           ; Regs used in ___flge: [wreg+status,2+status,0]
  2965                           
  2966  04E9  3000               	movlw	0
  2967  04EA  1283               	bcf	3,5	;RP0=0, select bank0
  2968  04EB  1303               	bcf	3,6	;RP1=0, select bank0
  2969  04EC  0529               	andwf	___flge@ff1,w
  2970  04ED  00B1               	movwf	??___flge
  2971  04EE  3000               	movlw	0
  2972  04EF  052A               	andwf	___flge@ff1+1,w
  2973  04F0  00B2               	movwf	??___flge+1
  2974  04F1  3080               	movlw	128
  2975  04F2  052B               	andwf	___flge@ff1+2,w
  2976  04F3  00B3               	movwf	??___flge+2
  2977  04F4  307F               	movlw	127
  2978  04F5  052C               	andwf	___flge@ff1+3,w
  2979  04F6  00B4               	movwf	??___flge+3
  2980  04F7  0834               	movf	??___flge+3,w
  2981  04F8  0433               	iorwf	??___flge+2,w
  2982  04F9  0432               	iorwf	??___flge+1,w
  2983  04FA  0431               	iorwf	??___flge,w
  2984  04FB  1D03               	skipz
  2985  04FC  2CFE               	goto	u871
  2986  04FD  2CFF               	goto	u870
  2987  04FE                     u871:
  2988  04FE  2D07               	goto	l431
  2989  04FF                     u870:
  2990  04FF                     l1325:
  2991  04FF  3000               	movlw	0
  2992  0500  00AC               	movwf	___flge@ff1+3
  2993  0501  3000               	movlw	0
  2994  0502  00AB               	movwf	___flge@ff1+2
  2995  0503  3000               	movlw	0
  2996  0504  00AA               	movwf	___flge@ff1+1
  2997  0505  3000               	movlw	0
  2998  0506  00A9               	movwf	___flge@ff1
  2999  0507                     l431:
  3000  0507  3000               	movlw	0
  3001  0508  052D               	andwf	___flge@ff2,w
  3002  0509  00B1               	movwf	??___flge
  3003  050A  3000               	movlw	0
  3004  050B  052E               	andwf	___flge@ff2+1,w
  3005  050C  00B2               	movwf	??___flge+1
  3006  050D  3080               	movlw	128
  3007  050E  052F               	andwf	___flge@ff2+2,w
  3008  050F  00B3               	movwf	??___flge+2
  3009  0510  307F               	movlw	127
  3010  0511  0530               	andwf	___flge@ff2+3,w
  3011  0512  00B4               	movwf	??___flge+3
  3012  0513  0834               	movf	??___flge+3,w
  3013  0514  0433               	iorwf	??___flge+2,w
  3014  0515  0432               	iorwf	??___flge+1,w
  3015  0516  0431               	iorwf	??___flge,w
  3016  0517  1D03               	skipz
  3017  0518  2D1A               	goto	u881
  3018  0519  2D1B               	goto	u880
  3019  051A                     u881:
  3020  051A  2D23               	goto	l1329
  3021  051B                     u880:
  3022  051B                     l1327:
  3023  051B  3000               	movlw	0
  3024  051C  00B0               	movwf	___flge@ff2+3
  3025  051D  3000               	movlw	0
  3026  051E  00AF               	movwf	___flge@ff2+2
  3027  051F  3000               	movlw	0
  3028  0520  00AE               	movwf	___flge@ff2+1
  3029  0521  3000               	movlw	0
  3030  0522  00AD               	movwf	___flge@ff2
  3031  0523                     l1329:
  3032  0523  1FAC               	btfss	___flge@ff1+3,7
  3033  0524  2D26               	goto	u891
  3034  0525  2D27               	goto	u890
  3035  0526                     u891:
  3036  0526  2D4B               	goto	l1333
  3037  0527                     u890:
  3038  0527                     l1331:
  3039  0527  3000               	movlw	0
  3040  0528  00B1               	movwf	??___flge
  3041  0529  3000               	movlw	0
  3042  052A  00B2               	movwf	??___flge+1
  3043  052B  3000               	movlw	0
  3044  052C  00B3               	movwf	??___flge+2
  3045  052D  3080               	movlw	128
  3046  052E  00B4               	movwf	??___flge+3
  3047  052F  0829               	movf	___flge@ff1,w
  3048  0530  02B1               	subwf	??___flge,f
  3049  0531  082A               	movf	___flge@ff1+1,w
  3050  0532  1C03               	skipc
  3051  0533  0F2A               	incfsz	___flge@ff1+1,w
  3052  0534  2D36               	goto	u901
  3053  0535  2D37               	goto	u902
  3054  0536                     u901:
  3055  0536  02B2               	subwf	??___flge+1,f
  3056  0537                     u902:
  3057  0537  082B               	movf	___flge@ff1+2,w
  3058  0538  1C03               	skipc
  3059  0539  0F2B               	incfsz	___flge@ff1+2,w
  3060  053A  2D3C               	goto	u903
  3061  053B  2D3D               	goto	u904
  3062  053C                     u903:
  3063  053C  02B3               	subwf	??___flge+2,f
  3064  053D                     u904:
  3065  053D  082C               	movf	___flge@ff1+3,w
  3066  053E  1C03               	skipc
  3067  053F  0F2C               	incfsz	___flge@ff1+3,w
  3068  0540  2D42               	goto	u905
  3069  0541  2D43               	goto	u906
  3070  0542                     u905:
  3071  0542  02B4               	subwf	??___flge+3,f
  3072  0543                     u906:
  3073  0543  0834               	movf	??___flge+3,w
  3074  0544  00AC               	movwf	___flge@ff1+3
  3075  0545  0833               	movf	??___flge+2,w
  3076  0546  00AB               	movwf	___flge@ff1+2
  3077  0547  0832               	movf	??___flge+1,w
  3078  0548  00AA               	movwf	___flge@ff1+1
  3079  0549  0831               	movf	??___flge,w
  3080  054A  00A9               	movwf	___flge@ff1
  3081  054B                     l1333:
  3082  054B  1FB0               	btfss	___flge@ff2+3,7
  3083  054C  2D4E               	goto	u911
  3084  054D  2D4F               	goto	u910
  3085  054E                     u911:
  3086  054E  2D73               	goto	l434
  3087  054F                     u910:
  3088  054F                     l1335:
  3089  054F  3000               	movlw	0
  3090  0550  00B1               	movwf	??___flge
  3091  0551  3000               	movlw	0
  3092  0552  00B2               	movwf	??___flge+1
  3093  0553  3000               	movlw	0
  3094  0554  00B3               	movwf	??___flge+2
  3095  0555  3080               	movlw	128
  3096  0556  00B4               	movwf	??___flge+3
  3097  0557  082D               	movf	___flge@ff2,w
  3098  0558  02B1               	subwf	??___flge,f
  3099  0559  082E               	movf	___flge@ff2+1,w
  3100  055A  1C03               	skipc
  3101  055B  0F2E               	incfsz	___flge@ff2+1,w
  3102  055C  2D5E               	goto	u921
  3103  055D  2D5F               	goto	u922
  3104  055E                     u921:
  3105  055E  02B2               	subwf	??___flge+1,f
  3106  055F                     u922:
  3107  055F  082F               	movf	___flge@ff2+2,w
  3108  0560  1C03               	skipc
  3109  0561  0F2F               	incfsz	___flge@ff2+2,w
  3110  0562  2D64               	goto	u923
  3111  0563  2D65               	goto	u924
  3112  0564                     u923:
  3113  0564  02B3               	subwf	??___flge+2,f
  3114  0565                     u924:
  3115  0565  0830               	movf	___flge@ff2+3,w
  3116  0566  1C03               	skipc
  3117  0567  0F30               	incfsz	___flge@ff2+3,w
  3118  0568  2D6A               	goto	u925
  3119  0569  2D6B               	goto	u926
  3120  056A                     u925:
  3121  056A  02B4               	subwf	??___flge+3,f
  3122  056B                     u926:
  3123  056B  0834               	movf	??___flge+3,w
  3124  056C  00B0               	movwf	___flge@ff2+3
  3125  056D  0833               	movf	??___flge+2,w
  3126  056E  00AF               	movwf	___flge@ff2+2
  3127  056F  0832               	movf	??___flge+1,w
  3128  0570  00AE               	movwf	___flge@ff2+1
  3129  0571  0831               	movf	??___flge,w
  3130  0572  00AD               	movwf	___flge@ff2
  3131  0573                     l434:
  3132  0573  3080               	movlw	128
  3133  0574  06AC               	xorwf	___flge@ff1+3,f
  3134  0575  3080               	movlw	128
  3135  0576  06B0               	xorwf	___flge@ff2+3,f
  3136  0577  0830               	movf	___flge@ff2+3,w
  3137  0578  022C               	subwf	___flge@ff1+3,w
  3138  0579  1D03               	skipz
  3139  057A  2D85               	goto	u935
  3140  057B  082F               	movf	___flge@ff2+2,w
  3141  057C  022B               	subwf	___flge@ff1+2,w
  3142  057D  1D03               	skipz
  3143  057E  2D85               	goto	u935
  3144  057F  082E               	movf	___flge@ff2+1,w
  3145  0580  022A               	subwf	___flge@ff1+1,w
  3146  0581  1D03               	skipz
  3147  0582  2D85               	goto	u935
  3148  0583  082D               	movf	___flge@ff2,w
  3149  0584  0229               	subwf	___flge@ff1,w
  3150  0585                     u935:
  3151  0585  1803               	skipnc
  3152  0586  2D88               	goto	u931
  3153  0587  2D89               	goto	u930
  3154  0588                     u931:
  3155  0588  2D8B               	goto	l1339
  3156  0589                     u930:
  3157  0589                     l1337:
  3158  0589  1003               	clrc
  3159  058A  2D8C               	goto	l435
  3160  058B                     l1339:
  3161  058B  1403               	setc
  3162  058C                     l435:
  3163  058C  0008               	return
  3164  058D                     __end_of___flge:
  3165                           
  3166                           	psect	text8
  3167  058D                     __ptext8:	
  3168 ;; *************** function _Select_ch *****************
  3169 ;; Defined at:
  3170 ;;		line 107 in file "ADC_LIB.c"
  3171 ;; Parameters:    Size  Location     Type
  3172 ;;  channel         1    wreg     unsigned char 
  3173 ;; Auto vars:     Size  Location     Type
  3174 ;;  channel         1   11[BANK0 ] unsigned char 
  3175 ;; Return value:  Size  Location     Type
  3176 ;;                  1    wreg      void 
  3177 ;; Registers used:
  3178 ;;		wreg, fsr0l, fsr0h, status,2, status,0
  3179 ;; Tracked objects:
  3180 ;;		On entry : 0/0
  3181 ;;		On exit  : 0/0
  3182 ;;		Unchanged: 0/0
  3183 ;; Data sizes:     COMMON   BANK0   BANK1   BANK3   BANK2
  3184 ;;      Params:         0       0       0       0       0
  3185 ;;      Locals:         0       1       0       0       0
  3186 ;;      Temps:          0       2       0       0       0
  3187 ;;      Totals:         0       3       0       0       0
  3188 ;;Total ram usage:        3 bytes
  3189 ;; Hardware stack levels used:    1
  3190 ;; Hardware stack levels required when called:    2
  3191 ;; This function calls:
  3192 ;;		Nothing
  3193 ;; This function is called by:
  3194 ;;		_main
  3195 ;; This function uses a non-reentrant model
  3196 ;;
  3197                           
  3198                           
  3199                           ;psect for function _Select_ch
  3200  058D                     _Select_ch:
  3201                           
  3202                           ;incstack = 0
  3203                           ; Regs used in _Select_ch: [wreg-fsr0h+status,2+status,0]
  3204                           ;Select_ch@channel stored from wreg
  3205  058D  1283               	bcf	3,5	;RP0=0, select bank0
  3206  058E  1303               	bcf	3,6	;RP1=0, select bank0
  3207  058F  00AB               	movwf	Select_ch@channel
  3208  0590                     l1301:
  3209                           
  3210                           ;ADC_LIB.c: 108:     switch (channel) {
  3211  0590  2DE1               	goto	l1305
  3212  0591                     l120:	
  3213                           ;ADC_LIB.c: 109:         case 0:
  3214                           
  3215                           
  3216                           ;ADC_LIB.c: 110:             ADCON0bits.CHS0 = 0;
  3217  0591  111F               	bcf	31,2	;volatile
  3218                           
  3219                           ;ADC_LIB.c: 111:             ADCON0bits.CHS1 = 0;
  3220  0592  119F               	bcf	31,3	;volatile
  3221                           
  3222                           ;ADC_LIB.c: 112:             ADCON0bits.CHS2 = 0;
  3223  0593  121F               	bcf	31,4	;volatile
  3224                           
  3225                           ;ADC_LIB.c: 113:             ADCON0bits.CHS3 = 0;
  3226  0594  129F               	bcf	31,5	;volatile
  3227                           
  3228                           ;ADC_LIB.c: 114:             break;
  3229  0595  2E1B               	goto	l121
  3230  0596                     l122:	
  3231                           ;ADC_LIB.c: 115:         case 1:
  3232                           
  3233                           
  3234                           ;ADC_LIB.c: 116:             ADCON0bits.CHS0 = 1;
  3235  0596  151F               	bsf	31,2	;volatile
  3236                           
  3237                           ;ADC_LIB.c: 117:             ADCON0bits.CHS1 = 0;
  3238  0597  119F               	bcf	31,3	;volatile
  3239                           
  3240                           ;ADC_LIB.c: 118:             ADCON0bits.CHS2 = 0;
  3241  0598  121F               	bcf	31,4	;volatile
  3242                           
  3243                           ;ADC_LIB.c: 119:             ADCON0bits.CHS3 = 0;
  3244  0599  129F               	bcf	31,5	;volatile
  3245                           
  3246                           ;ADC_LIB.c: 120:             break;
  3247  059A  2E1B               	goto	l121
  3248  059B                     l123:	
  3249                           ;ADC_LIB.c: 121:         case 2:
  3250                           
  3251                           
  3252                           ;ADC_LIB.c: 122:             ADCON0bits.CHS0 = 0;
  3253  059B  111F               	bcf	31,2	;volatile
  3254                           
  3255                           ;ADC_LIB.c: 123:             ADCON0bits.CHS1 = 1;
  3256  059C  159F               	bsf	31,3	;volatile
  3257                           
  3258                           ;ADC_LIB.c: 124:             ADCON0bits.CHS2 = 0;
  3259  059D  121F               	bcf	31,4	;volatile
  3260                           
  3261                           ;ADC_LIB.c: 125:             ADCON0bits.CHS3 = 0;
  3262  059E  129F               	bcf	31,5	;volatile
  3263                           
  3264                           ;ADC_LIB.c: 126:             break;
  3265  059F  2E1B               	goto	l121
  3266  05A0                     l124:	
  3267                           ;ADC_LIB.c: 127:         case 3:
  3268                           
  3269                           
  3270                           ;ADC_LIB.c: 128:             ADCON0bits.CHS0 = 1;
  3271  05A0  151F               	bsf	31,2	;volatile
  3272                           
  3273                           ;ADC_LIB.c: 129:             ADCON0bits.CHS1 = 1;
  3274  05A1  159F               	bsf	31,3	;volatile
  3275                           
  3276                           ;ADC_LIB.c: 130:             ADCON0bits.CHS2 = 0;
  3277  05A2  121F               	bcf	31,4	;volatile
  3278                           
  3279                           ;ADC_LIB.c: 131:             ADCON0bits.CHS3 = 0;
  3280  05A3  129F               	bcf	31,5	;volatile
  3281                           
  3282                           ;ADC_LIB.c: 132:             break;
  3283  05A4  2E1B               	goto	l121
  3284  05A5                     l125:	
  3285                           ;ADC_LIB.c: 133:         case 4:
  3286                           
  3287                           
  3288                           ;ADC_LIB.c: 134:             ADCON0bits.CHS0 = 0;
  3289  05A5  111F               	bcf	31,2	;volatile
  3290                           
  3291                           ;ADC_LIB.c: 135:             ADCON0bits.CHS1 = 0;
  3292  05A6  119F               	bcf	31,3	;volatile
  3293                           
  3294                           ;ADC_LIB.c: 136:             ADCON0bits.CHS2 = 1;
  3295  05A7  161F               	bsf	31,4	;volatile
  3296                           
  3297                           ;ADC_LIB.c: 137:             ADCON0bits.CHS3 = 0;
  3298  05A8  129F               	bcf	31,5	;volatile
  3299                           
  3300                           ;ADC_LIB.c: 138:             break;
  3301  05A9  2E1B               	goto	l121
  3302  05AA                     l126:	
  3303                           ;ADC_LIB.c: 139:         case 5:
  3304                           
  3305                           
  3306                           ;ADC_LIB.c: 140:             ADCON0bits.CHS0 = 1;
  3307  05AA  151F               	bsf	31,2	;volatile
  3308                           
  3309                           ;ADC_LIB.c: 141:             ADCON0bits.CHS1 = 0;
  3310  05AB  119F               	bcf	31,3	;volatile
  3311                           
  3312                           ;ADC_LIB.c: 142:             ADCON0bits.CHS2 = 1;
  3313  05AC  161F               	bsf	31,4	;volatile
  3314                           
  3315                           ;ADC_LIB.c: 143:             ADCON0bits.CHS3 = 0;
  3316  05AD  129F               	bcf	31,5	;volatile
  3317                           
  3318                           ;ADC_LIB.c: 144:             break;
  3319  05AE  2E1B               	goto	l121
  3320  05AF                     l127:	
  3321                           ;ADC_LIB.c: 145:         case 6:
  3322                           
  3323                           
  3324                           ;ADC_LIB.c: 146:             ADCON0bits.CHS0 = 0;
  3325  05AF  111F               	bcf	31,2	;volatile
  3326                           
  3327                           ;ADC_LIB.c: 147:             ADCON0bits.CHS1 = 1;
  3328  05B0  159F               	bsf	31,3	;volatile
  3329                           
  3330                           ;ADC_LIB.c: 148:             ADCON0bits.CHS2 = 1;
  3331  05B1  161F               	bsf	31,4	;volatile
  3332                           
  3333                           ;ADC_LIB.c: 149:             ADCON0bits.CHS3 = 0;
  3334  05B2  129F               	bcf	31,5	;volatile
  3335                           
  3336                           ;ADC_LIB.c: 150:             break;
  3337  05B3  2E1B               	goto	l121
  3338  05B4                     l128:	
  3339                           ;ADC_LIB.c: 151:         case 7:
  3340                           
  3341                           
  3342                           ;ADC_LIB.c: 152:             ADCON0bits.CHS0 = 1;
  3343  05B4  151F               	bsf	31,2	;volatile
  3344                           
  3345                           ;ADC_LIB.c: 153:             ADCON0bits.CHS1 = 1;
  3346  05B5  159F               	bsf	31,3	;volatile
  3347                           
  3348                           ;ADC_LIB.c: 154:             ADCON0bits.CHS2 = 1;
  3349  05B6  161F               	bsf	31,4	;volatile
  3350                           
  3351                           ;ADC_LIB.c: 155:             ADCON0bits.CHS3 = 0;
  3352  05B7  129F               	bcf	31,5	;volatile
  3353                           
  3354                           ;ADC_LIB.c: 156:             break;
  3355  05B8  2E1B               	goto	l121
  3356  05B9                     l129:	
  3357                           ;ADC_LIB.c: 157:         case 8:
  3358                           
  3359                           
  3360                           ;ADC_LIB.c: 158:             ADCON0bits.CHS0 = 0;
  3361  05B9  111F               	bcf	31,2	;volatile
  3362                           
  3363                           ;ADC_LIB.c: 159:             ADCON0bits.CHS1 = 0;
  3364  05BA  119F               	bcf	31,3	;volatile
  3365                           
  3366                           ;ADC_LIB.c: 160:             ADCON0bits.CHS2 = 0;
  3367  05BB  121F               	bcf	31,4	;volatile
  3368                           
  3369                           ;ADC_LIB.c: 161:             ADCON0bits.CHS3 = 1;
  3370  05BC  169F               	bsf	31,5	;volatile
  3371                           
  3372                           ;ADC_LIB.c: 162:             break;
  3373  05BD  2E1B               	goto	l121
  3374  05BE                     l130:	
  3375                           ;ADC_LIB.c: 163:         case 9:
  3376                           
  3377                           
  3378                           ;ADC_LIB.c: 164:             ADCON0bits.CHS0 = 1;
  3379  05BE  151F               	bsf	31,2	;volatile
  3380                           
  3381                           ;ADC_LIB.c: 165:             ADCON0bits.CHS1 = 0;
  3382  05BF  119F               	bcf	31,3	;volatile
  3383                           
  3384                           ;ADC_LIB.c: 166:             ADCON0bits.CHS2 = 0;
  3385  05C0  121F               	bcf	31,4	;volatile
  3386                           
  3387                           ;ADC_LIB.c: 167:             ADCON0bits.CHS3 = 1;
  3388  05C1  169F               	bsf	31,5	;volatile
  3389                           
  3390                           ;ADC_LIB.c: 168:             break;
  3391  05C2  2E1B               	goto	l121
  3392  05C3                     l131:	
  3393                           ;ADC_LIB.c: 169:         case 10:
  3394                           
  3395                           
  3396                           ;ADC_LIB.c: 170:             ADCON0bits.CHS0 = 0;
  3397  05C3  111F               	bcf	31,2	;volatile
  3398                           
  3399                           ;ADC_LIB.c: 171:             ADCON0bits.CHS1 = 1;
  3400  05C4  159F               	bsf	31,3	;volatile
  3401                           
  3402                           ;ADC_LIB.c: 172:             ADCON0bits.CHS2 = 0;
  3403  05C5  121F               	bcf	31,4	;volatile
  3404                           
  3405                           ;ADC_LIB.c: 173:             ADCON0bits.CHS3 = 1;
  3406  05C6  169F               	bsf	31,5	;volatile
  3407                           
  3408                           ;ADC_LIB.c: 174:             break;
  3409  05C7  2E1B               	goto	l121
  3410  05C8                     l132:	
  3411                           ;ADC_LIB.c: 175:         case 11:
  3412                           
  3413                           
  3414                           ;ADC_LIB.c: 176:             ADCON0bits.CHS0 = 1;
  3415  05C8  151F               	bsf	31,2	;volatile
  3416                           
  3417                           ;ADC_LIB.c: 177:             ADCON0bits.CHS1 = 1;
  3418  05C9  159F               	bsf	31,3	;volatile
  3419                           
  3420                           ;ADC_LIB.c: 178:             ADCON0bits.CHS2 = 0;
  3421  05CA  121F               	bcf	31,4	;volatile
  3422                           
  3423                           ;ADC_LIB.c: 179:             ADCON0bits.CHS3 = 1;
  3424  05CB  169F               	bsf	31,5	;volatile
  3425                           
  3426                           ;ADC_LIB.c: 180:             break;
  3427  05CC  2E1B               	goto	l121
  3428  05CD                     l133:	
  3429                           ;ADC_LIB.c: 181:         case 12:
  3430                           
  3431                           
  3432                           ;ADC_LIB.c: 182:             ADCON0bits.CHS0 = 0;
  3433  05CD  111F               	bcf	31,2	;volatile
  3434                           
  3435                           ;ADC_LIB.c: 183:             ADCON0bits.CHS1 = 0;
  3436  05CE  119F               	bcf	31,3	;volatile
  3437                           
  3438                           ;ADC_LIB.c: 184:             ADCON0bits.CHS2 = 1;
  3439  05CF  161F               	bsf	31,4	;volatile
  3440                           
  3441                           ;ADC_LIB.c: 185:             ADCON0bits.CHS3 = 1;
  3442  05D0  169F               	bsf	31,5	;volatile
  3443                           
  3444                           ;ADC_LIB.c: 186:             break;
  3445  05D1  2E1B               	goto	l121
  3446  05D2                     l134:	
  3447                           ;ADC_LIB.c: 187:         case 13:
  3448                           
  3449                           
  3450                           ;ADC_LIB.c: 188:             ADCON0bits.CHS0 = 1;
  3451  05D2  151F               	bsf	31,2	;volatile
  3452                           
  3453                           ;ADC_LIB.c: 189:             ADCON0bits.CHS1 = 0;
  3454  05D3  119F               	bcf	31,3	;volatile
  3455                           
  3456                           ;ADC_LIB.c: 190:             ADCON0bits.CHS2 = 1;
  3457  05D4  161F               	bsf	31,4	;volatile
  3458                           
  3459                           ;ADC_LIB.c: 191:             ADCON0bits.CHS3 = 1;
  3460  05D5  169F               	bsf	31,5	;volatile
  3461                           
  3462                           ;ADC_LIB.c: 192:             break;
  3463  05D6  2E1B               	goto	l121
  3464  05D7                     l135:	
  3465                           ;ADC_LIB.c: 193:         case 14:
  3466                           
  3467                           
  3468                           ;ADC_LIB.c: 194:             ADCON0bits.CHS0 = 0;
  3469  05D7  111F               	bcf	31,2	;volatile
  3470                           
  3471                           ;ADC_LIB.c: 195:             ADCON0bits.CHS1 = 1;
  3472  05D8  159F               	bsf	31,3	;volatile
  3473                           
  3474                           ;ADC_LIB.c: 196:             ADCON0bits.CHS2 = 1;
  3475  05D9  161F               	bsf	31,4	;volatile
  3476                           
  3477                           ;ADC_LIB.c: 197:             ADCON0bits.CHS3 = 1;
  3478  05DA  169F               	bsf	31,5	;volatile
  3479                           
  3480                           ;ADC_LIB.c: 198:             break;
  3481  05DB  2E1B               	goto	l121
  3482  05DC                     l136:	
  3483                           ;ADC_LIB.c: 199:         case 15:
  3484                           
  3485                           
  3486                           ;ADC_LIB.c: 200:             ADCON0bits.CHS0 = 1;
  3487  05DC  151F               	bsf	31,2	;volatile
  3488                           
  3489                           ;ADC_LIB.c: 201:             ADCON0bits.CHS1 = 1;
  3490  05DD  159F               	bsf	31,3	;volatile
  3491                           
  3492                           ;ADC_LIB.c: 202:             ADCON0bits.CHS2 = 1;
  3493  05DE  161F               	bsf	31,4	;volatile
  3494                           
  3495                           ;ADC_LIB.c: 203:             ADCON0bits.CHS3 = 1;
  3496  05DF  169F               	bsf	31,5	;volatile
  3497                           
  3498                           ;ADC_LIB.c: 204:             break;
  3499  05E0  2E1B               	goto	l121
  3500  05E1                     l1305:
  3501  05E1  082B               	movf	Select_ch@channel,w
  3502  05E2  00A9               	movwf	??_Select_ch
  3503  05E3  01AA               	clrf	??_Select_ch+1
  3504                           
  3505                           ; Switch on 2 bytes has been partitioned into a top level switch of size 1, and 1 sub-sw
      +                          itches
  3506                           ; Switch size 1, requested type "simple"
  3507                           ; Number of cases is 1, Range of values is 0 to 0
  3508                           ; switch strategies available:
  3509                           ; Name         Instructions Cycles
  3510                           ; simple_byte            4     3 (average)
  3511                           ; direct_byte           11     8 (fixed)
  3512                           ; jumptable            260     6 (fixed)
  3513                           ;	Chosen strategy is simple_byte
  3514  05E4  082A               	movf	??_Select_ch+1,w
  3515  05E5  3A00               	xorlw	0	; case 0
  3516  05E6  1903               	skipnz
  3517  05E7  2DE9               	goto	l1731
  3518  05E8  2E1B               	goto	l121
  3519  05E9                     l1731:
  3520                           
  3521                           ; Switch size 1, requested type "simple"
  3522                           ; Number of cases is 16, Range of values is 0 to 15
  3523                           ; switch strategies available:
  3524                           ; Name         Instructions Cycles
  3525                           ; simple_byte           49    25 (average)
  3526                           ; direct_byte           56     8 (fixed)
  3527                           ; jumptable            260     6 (fixed)
  3528                           ;	Chosen strategy is simple_byte
  3529  05E9  0829               	movf	??_Select_ch,w
  3530  05EA  3A00               	xorlw	0	; case 0
  3531  05EB  1903               	skipnz
  3532  05EC  2D91               	goto	l120
  3533  05ED  3A01               	xorlw	1	; case 1
  3534  05EE  1903               	skipnz
  3535  05EF  2D96               	goto	l122
  3536  05F0  3A03               	xorlw	3	; case 2
  3537  05F1  1903               	skipnz
  3538  05F2  2D9B               	goto	l123
  3539  05F3  3A01               	xorlw	1	; case 3
  3540  05F4  1903               	skipnz
  3541  05F5  2DA0               	goto	l124
  3542  05F6  3A07               	xorlw	7	; case 4
  3543  05F7  1903               	skipnz
  3544  05F8  2DA5               	goto	l125
  3545  05F9  3A01               	xorlw	1	; case 5
  3546  05FA  1903               	skipnz
  3547  05FB  2DAA               	goto	l126
  3548  05FC  3A03               	xorlw	3	; case 6
  3549  05FD  1903               	skipnz
  3550  05FE  2DAF               	goto	l127
  3551  05FF  3A01               	xorlw	1	; case 7
  3552  0600  1903               	skipnz
  3553  0601  2DB4               	goto	l128
  3554  0602  3A0F               	xorlw	15	; case 8
  3555  0603  1903               	skipnz
  3556  0604  2DB9               	goto	l129
  3557  0605  3A01               	xorlw	1	; case 9
  3558  0606  1903               	skipnz
  3559  0607  2DBE               	goto	l130
  3560  0608  3A03               	xorlw	3	; case 10
  3561  0609  1903               	skipnz
  3562  060A  2DC3               	goto	l131
  3563  060B  3A01               	xorlw	1	; case 11
  3564  060C  1903               	skipnz
  3565  060D  2DC8               	goto	l132
  3566  060E  3A07               	xorlw	7	; case 12
  3567  060F  1903               	skipnz
  3568  0610  2DCD               	goto	l133
  3569  0611  3A01               	xorlw	1	; case 13
  3570  0612  1903               	skipnz
  3571  0613  2DD2               	goto	l134
  3572  0614  3A03               	xorlw	3	; case 14
  3573  0615  1903               	skipnz
  3574  0616  2DD7               	goto	l135
  3575  0617  3A01               	xorlw	1	; case 15
  3576  0618  1903               	skipnz
  3577  0619  2DDC               	goto	l136
  3578  061A  2E1B               	goto	l121
  3579  061B                     l121:
  3580                           
  3581                           ;ADC_LIB.c: 206:     _delay((unsigned long)((5)*(4000000/4000000.0)));
  3582  061B  2E1C               	nop2	;2 cycle nop
  3583  061C  2E1D               	nop2	;2 cycle nop
  3584  061D  0000               	nop
  3585                           
  3586                           ;ADC_LIB.c: 207:     ADCON0bits.GO = 1;
  3587  061E  1283               	bcf	3,5	;RP0=0, select bank0
  3588  061F  1303               	bcf	3,6	;RP1=0, select bank0
  3589  0620  149F               	bsf	31,1	;volatile
  3590  0621                     l137:
  3591  0621  0008               	return
  3592  0622                     __end_of_Select_ch:
  3593                           
  3594                           	psect	text9
  3595  0779                     __ptext9:	
  3596 ;; *************** function _isr *****************
  3597 ;; Defined at:
  3598 ;;		line 37 in file "main.c"
  3599 ;; Parameters:    Size  Location     Type
  3600 ;;		None
  3601 ;; Auto vars:     Size  Location     Type
  3602 ;;		None
  3603 ;; Return value:  Size  Location     Type
  3604 ;;                  1    wreg      void 
  3605 ;; Registers used:
  3606 ;;		wreg, status,2, status,0, pclath, cstack
  3607 ;; Tracked objects:
  3608 ;;		On entry : 0/0
  3609 ;;		On exit  : 0/0
  3610 ;;		Unchanged: 0/0
  3611 ;; Data sizes:     COMMON   BANK0   BANK1   BANK3   BANK2
  3612 ;;      Params:         0       0       0       0       0
  3613 ;;      Locals:         0       0       0       0       0
  3614 ;;      Temps:          0       9       0       0       0
  3615 ;;      Totals:         0       9       0       0       0
  3616 ;;Total ram usage:        9 bytes
  3617 ;; Hardware stack levels used:    1
  3618 ;; Hardware stack levels required when called:    1
  3619 ;; This function calls:
  3620 ;;		___fltol
  3621 ;;		_spiWrite
  3622 ;; This function is called by:
  3623 ;;		Interrupt level 1
  3624 ;; This function uses a non-reentrant model
  3625 ;;
  3626                           
  3627                           
  3628                           ;psect for function _isr
  3629  0779                     _isr:
  3630  0779                     i1l1563:
  3631                           
  3632                           ;main.c: 38:     TRISB = 1;
  3633  0779  1F0C               	btfss	12,6	;volatile
  3634  077A  2F7C               	goto	u155_21
  3635  077B  2F7D               	goto	u155_20
  3636  077C                     u155_21:
  3637  077C  2FAA               	goto	i1l1573
  3638  077D                     u155_20:
  3639  077D                     i1l1565:
  3640                           
  3641                           ;main.c: 39: 
  3642  077D  1683               	bsf	3,5	;RP0=1, select bank1
  3643  077E  1303               	bcf	3,6	;RP1=0, select bank1
  3644  077F  081E               	movf	30,w	;volatile
  3645  0780  1283               	bcf	3,5	;RP0=0, select bank0
  3646  0781  1303               	bcf	3,6	;RP1=0, select bank0
  3647  0782  00A0               	movwf	??_isr
  3648  0783  3006               	movlw	6
  3649  0784                     u156_25:
  3650  0784  1003               	clrc
  3651  0785  0CA0               	rrf	??_isr,f
  3652  0786  3EFF               	addlw	-1
  3653  0787  1D03               	skipz
  3654  0788  2F84               	goto	u156_25
  3655  0789  0820               	movf	??_isr,w
  3656  078A  00A1               	movwf	??_isr+1
  3657  078B  01A2               	clrf	??_isr+2
  3658  078C  081E               	movf	30,w	;volatile
  3659  078D  00A3               	movwf	??_isr+3
  3660  078E  01A4               	clrf	??_isr+4
  3661  078F  1003               	clrc
  3662  0790  0DA3               	rlf	??_isr+3,f
  3663  0791  0DA4               	rlf	??_isr+4,f
  3664  0792  1003               	clrc
  3665  0793  0DA3               	rlf	??_isr+3,f
  3666  0794  0DA4               	rlf	??_isr+4,f
  3667  0795  0821               	movf	??_isr+1,w
  3668  0796  0423               	iorwf	??_isr+3,w
  3669  0797  00A5               	movwf	??_isr+5
  3670  0798  0822               	movf	??_isr+2,w
  3671  0799  0424               	iorwf	??_isr+4,w
  3672  079A  00A6               	movwf	??_isr+6
  3673  079B  0825               	movf	??_isr+5,w
  3674  079C  00D5               	movwf	_voltageLM35	;volatile
  3675  079D  0826               	movf	??_isr+6,w
  3676  079E  00D6               	movwf	_voltageLM35+1	;volatile
  3677  079F                     i1l1567:
  3678                           
  3679                           ;main.c: 40:     PORTB = 0;
  3680  079F  130C               	bcf	12,6	;volatile
  3681  07A0                     i1l1569:
  3682                           
  3683                           ;main.c: 41:     PORTD = 0;
  3684  07A0  300F               	movlw	15
  3685  07A1  1283               	bcf	3,5	;RP0=0, select bank0
  3686  07A2  1303               	bcf	3,6	;RP1=0, select bank0
  3687  07A3  00A0               	movwf	??_isr
  3688  07A4                     u160_27:
  3689  07A4  0BA0               	decfsz	??_isr,f
  3690  07A5  2FA4               	goto	u160_27
  3691  07A6  2FA7               	nop2
  3692  07A7                     i1l1571:
  3693                           
  3694                           ;main.c: 42:     while (1) {
  3695  07A7  1283               	bcf	3,5	;RP0=0, select bank0
  3696  07A8  1303               	bcf	3,6	;RP1=0, select bank0
  3697  07A9  149F               	bsf	31,1	;volatile
  3698  07AA                     i1l1573:
  3699                           
  3700                           ;main.c: 44: 
  3701  07AA  1D8C               	btfss	12,3	;volatile
  3702  07AB  2FAD               	goto	u157_21
  3703  07AC  2FAE               	goto	u157_20
  3704  07AD                     u157_21:
  3705  07AD  2FC4               	goto	i1l53
  3706  07AE                     u157_20:
  3707  07AE                     i1l1575:
  3708                           
  3709                           ;main.c: 45:         if (temperature < 25) {
  3710  07AE  0854               	movf	_temperature+3,w
  3711  07AF  00F3               	movwf	___fltol@f1+3
  3712  07B0  0853               	movf	_temperature+2,w
  3713  07B1  00F2               	movwf	___fltol@f1+2
  3714  07B2  0852               	movf	_temperature+1,w
  3715  07B3  00F1               	movwf	___fltol@f1+1
  3716  07B4  0851               	movf	_temperature,w
  3717  07B5  00F0               	movwf	___fltol@f1
  3718  07B6  120A  118A  2622  120A  118A  	fcall	___fltol
  3719  07BB  0870               	movf	?___fltol,w
  3720  07BC  120A  118A  27F4  120A  118A  	fcall	_spiWrite
  3721  07C1                     i1l1577:
  3722                           
  3723                           ;main.c: 46:             PORTD = 0;
  3724  07C1  1283               	bcf	3,5	;RP0=0, select bank0
  3725  07C2  1303               	bcf	3,6	;RP1=0, select bank0
  3726  07C3  118C               	bcf	12,3	;volatile
  3727  07C4                     i1l53:
  3728  07C4  0828               	movf	??_isr+8,w
  3729  07C5  008A               	movwf	10
  3730  07C6  0E27               	swapf	??_isr+7,w
  3731  07C7  0083               	movwf	3
  3732  07C8  0EFE               	swapf	btemp,f
  3733  07C9  0E7E               	swapf	btemp,w
  3734  07CA  0009               	retfie
  3735  07CB                     __end_of_isr:
  3736                           
  3737                           	psect	intentry
  3738  0004                     __pintentry:	
  3739                           ;incstack = 0
  3740                           ; Regs used in _isr: [wreg+status,2+status,0+pclath+cstack]
  3741                           
  3742  0004                     interrupt_function:
  3743  007E                     saved_w	set	btemp
  3744  0004  00FE               	movwf	btemp
  3745  0005  0E03               	swapf	3,w
  3746  0006  1283               	bcf	3,5	;RP0=0, select bank0
  3747  0007  1303               	bcf	3,6	;RP1=0, select bank0
  3748  0008  00A7               	movwf	??_isr+7
  3749  0009  080A               	movf	10,w
  3750  000A  00A8               	movwf	??_isr+8
  3751  000B  120A  118A  2F79   	ljmp	_isr
  3752                           
  3753                           	psect	text10
  3754  07F4                     __ptext10:	
  3755 ;; *************** function _spiWrite *****************
  3756 ;; Defined at:
  3757 ;;		line 34 in file "SPI.c"
  3758 ;; Parameters:    Size  Location     Type
  3759 ;;  dat             1    wreg     unsigned char 
  3760 ;; Auto vars:     Size  Location     Type
  3761 ;;  dat             1    0[COMMON] unsigned char 
  3762 ;; Return value:  Size  Location     Type
  3763 ;;                  1    wreg      void 
  3764 ;; Registers used:
  3765 ;;		wreg
  3766 ;; Tracked objects:
  3767 ;;		On entry : 0/0
  3768 ;;		On exit  : 0/0
  3769 ;;		Unchanged: 0/0
  3770 ;; Data sizes:     COMMON   BANK0   BANK1   BANK3   BANK2
  3771 ;;      Params:         0       0       0       0       0
  3772 ;;      Locals:         1       0       0       0       0
  3773 ;;      Temps:          0       0       0       0       0
  3774 ;;      Totals:         1       0       0       0       0
  3775 ;;Total ram usage:        1 bytes
  3776 ;; Hardware stack levels used:    1
  3777 ;; This function calls:
  3778 ;;		Nothing
  3779 ;; This function is called by:
  3780 ;;		_isr
  3781 ;; This function uses a non-reentrant model
  3782 ;;
  3783                           
  3784                           
  3785                           ;psect for function _spiWrite
  3786  07F4                     _spiWrite:
  3787                           
  3788                           ;incstack = 0
  3789                           ; Regs used in _spiWrite: [wreg]
  3790                           ;spiWrite@dat stored from wreg
  3791  07F4  00F0               	movwf	spiWrite@dat
  3792  07F5                     i1l1261:
  3793                           
  3794                           ;SPI.c: 34: void spiWrite(char dat);SPI.c: 35: {;SPI.c: 36:     SSPBUF = dat;
  3795  07F5  0870               	movf	spiWrite@dat,w
  3796  07F6  1283               	bcf	3,5	;RP0=0, select bank0
  3797  07F7  1303               	bcf	3,6	;RP1=0, select bank0
  3798  07F8  0093               	movwf	19	;volatile
  3799  07F9                     i1l163:
  3800  07F9  0008               	return
  3801  07FA                     __end_of_spiWrite:
  3802                           
  3803                           	psect	text11
  3804  0622                     __ptext11:	
  3805 ;; *************** function ___fltol *****************
  3806 ;; Defined at:
  3807 ;;		line 43 in file "C:\Program Files\Microchip\xc8\v2.31\pic\sources\c90\common\fltol.c"
  3808 ;; Parameters:    Size  Location     Type
  3809 ;;  f1              4    0[COMMON] void 
  3810 ;; Auto vars:     Size  Location     Type
  3811 ;;  exp1            1   10[COMMON] unsigned char 
  3812 ;;  sign1           1    9[COMMON] unsigned char 
  3813 ;; Return value:  Size  Location     Type
  3814 ;;                  4    0[COMMON] long 
  3815 ;; Registers used:
  3816 ;;		wreg, status,2, status,0
  3817 ;; Tracked objects:
  3818 ;;		On entry : 0/0
  3819 ;;		On exit  : 0/0
  3820 ;;		Unchanged: 0/0
  3821 ;; Data sizes:     COMMON   BANK0   BANK1   BANK3   BANK2
  3822 ;;      Params:         4       0       0       0       0
  3823 ;;      Locals:         2       0       0       0       0
  3824 ;;      Temps:          5       0       0       0       0
  3825 ;;      Totals:        11       0       0       0       0
  3826 ;;Total ram usage:       11 bytes
  3827 ;; Hardware stack levels used:    1
  3828 ;; This function calls:
  3829 ;;		Nothing
  3830 ;; This function is called by:
  3831 ;;		_isr
  3832 ;; This function uses a non-reentrant model
  3833 ;;
  3834                           
  3835                           
  3836                           ;psect for function ___fltol
  3837  0622                     ___fltol:
  3838  0622                     i1l1343:	
  3839                           ;incstack = 0
  3840                           ; Regs used in ___fltol: [wreg+status,2+status,0]
  3841                           
  3842  0622  1003               	clrc
  3843  0623  0D72               	rlf	___fltol@f1+2,w
  3844  0624  0D73               	rlf	___fltol@f1+3,w
  3845  0625  00F4               	movwf	??___fltol
  3846  0626  0874               	movf	??___fltol,w
  3847  0627  00FA               	movwf	___fltol@exp1
  3848  0628  087A               	movf	___fltol@exp1,w
  3849  0629  1D03               	btfss	3,2
  3850  062A  2E2C               	goto	u94_21
  3851  062B  2E2D               	goto	u94_20
  3852  062C                     u94_21:
  3853  062C  2E36               	goto	i1l1349
  3854  062D                     u94_20:
  3855  062D                     i1l1345:
  3856  062D  3000               	movlw	0
  3857  062E  00F3               	movwf	?___fltol+3
  3858  062F  3000               	movlw	0
  3859  0630  00F2               	movwf	?___fltol+2
  3860  0631  3000               	movlw	0
  3861  0632  00F1               	movwf	?___fltol+1
  3862  0633  3000               	movlw	0
  3863  0634  00F0               	movwf	?___fltol
  3864  0635  2E9B               	goto	i1l443
  3865  0636                     i1l1349:
  3866  0636  0870               	movf	___fltol@f1,w
  3867  0637  00F4               	movwf	??___fltol
  3868  0638  0871               	movf	___fltol@f1+1,w
  3869  0639  00F5               	movwf	??___fltol+1
  3870  063A  0872               	movf	___fltol@f1+2,w
  3871  063B  00F6               	movwf	??___fltol+2
  3872  063C  0873               	movf	___fltol@f1+3,w
  3873  063D  00F7               	movwf	??___fltol+3
  3874  063E  301F               	movlw	31
  3875  063F                     u95_25:
  3876  063F  1003               	clrc
  3877  0640  0CF7               	rrf	??___fltol+3,f
  3878  0641  0CF6               	rrf	??___fltol+2,f
  3879  0642  0CF5               	rrf	??___fltol+1,f
  3880  0643  0CF4               	rrf	??___fltol,f
  3881  0644                     u95_20:
  3882  0644  3EFF               	addlw	-1
  3883  0645  1D03               	skipz
  3884  0646  2E3F               	goto	u95_25
  3885  0647  0874               	movf	??___fltol,w
  3886  0648  00F8               	movwf	??___fltol+4
  3887  0649  0878               	movf	??___fltol+4,w
  3888  064A  00F9               	movwf	___fltol@sign1
  3889  064B                     i1l1351:
  3890  064B  17F2               	bsf	___fltol@f1+2,7
  3891  064C                     i1l1353:
  3892  064C  30FF               	movlw	255
  3893  064D  05F0               	andwf	___fltol@f1,f
  3894  064E  30FF               	movlw	255
  3895  064F  05F1               	andwf	___fltol@f1+1,f
  3896  0650  30FF               	movlw	255
  3897  0651  05F2               	andwf	___fltol@f1+2,f
  3898  0652  3000               	movlw	0
  3899  0653  05F3               	andwf	___fltol@f1+3,f
  3900  0654                     i1l1355:
  3901  0654  3096               	movlw	150
  3902  0655  02FA               	subwf	___fltol@exp1,f
  3903  0656                     i1l1357:
  3904  0656  1FFA               	btfss	___fltol@exp1,7
  3905  0657  2E59               	goto	u96_21
  3906  0658  2E5A               	goto	u96_20
  3907  0659                     u96_21:
  3908  0659  2E74               	goto	i1l1367
  3909  065A                     u96_20:
  3910  065A                     i1l1359:
  3911  065A  087A               	movf	___fltol@exp1,w
  3912  065B  3A80               	xorlw	128
  3913  065C  3E97               	addlw	151
  3914  065D  1803               	skipnc
  3915  065E  2E60               	goto	u97_21
  3916  065F  2E61               	goto	u97_20
  3917  0660                     u97_21:
  3918  0660  2E62               	goto	i1l1365
  3919  0661                     u97_20:
  3920  0661  2E2D               	goto	i1l1345
  3921  0662                     i1l1365:
  3922  0662  3001               	movlw	1
  3923  0663                     u98_25:
  3924  0663  1003               	clrc
  3925  0664  0CF3               	rrf	___fltol@f1+3,f
  3926  0665  0CF2               	rrf	___fltol@f1+2,f
  3927  0666  0CF1               	rrf	___fltol@f1+1,f
  3928  0667  0CF0               	rrf	___fltol@f1,f
  3929  0668  3EFF               	addlw	-1
  3930  0669  1D03               	skipz
  3931  066A  2E63               	goto	u98_25
  3932  066B  3001               	movlw	1
  3933  066C  00F4               	movwf	??___fltol
  3934  066D  0874               	movf	??___fltol,w
  3935  066E  07FA               	addwf	___fltol@exp1,f
  3936  066F  1D03               	btfss	3,2
  3937  0670  2E72               	goto	u99_21
  3938  0671  2E73               	goto	u99_20
  3939  0672                     u99_21:
  3940  0672  2E62               	goto	i1l1365
  3941  0673                     u99_20:
  3942  0673  2E8B               	goto	i1l1375
  3943  0674                     i1l1367:
  3944  0674  3020               	movlw	32
  3945  0675  027A               	subwf	___fltol@exp1,w
  3946  0676  1C03               	skipc
  3947  0677  2E79               	goto	u100_21
  3948  0678  2E7A               	goto	u100_20
  3949  0679                     u100_21:
  3950  0679  2E86               	goto	i1l450
  3951  067A                     u100_20:
  3952  067A  2E2D               	goto	i1l1345
  3953  067B                     i1l1373:
  3954  067B  3001               	movlw	1
  3955  067C  00F4               	movwf	??___fltol
  3956  067D                     u101_25:
  3957  067D  1003               	clrc
  3958  067E  0DF0               	rlf	___fltol@f1,f
  3959  067F  0DF1               	rlf	___fltol@f1+1,f
  3960  0680  0DF2               	rlf	___fltol@f1+2,f
  3961  0681  0DF3               	rlf	___fltol@f1+3,f
  3962  0682  0BF4               	decfsz	??___fltol,f
  3963  0683  2E7D               	goto	u101_25
  3964  0684  3001               	movlw	1
  3965  0685  02FA               	subwf	___fltol@exp1,f
  3966  0686                     i1l450:
  3967  0686  087A               	movf	___fltol@exp1,w
  3968  0687  1D03               	btfss	3,2
  3969  0688  2E8A               	goto	u102_21
  3970  0689  2E8B               	goto	u102_20
  3971  068A                     u102_21:
  3972  068A  2E7B               	goto	i1l1373
  3973  068B                     u102_20:
  3974  068B                     i1l1375:
  3975  068B  0879               	movf	___fltol@sign1,w
  3976  068C  1903               	btfsc	3,2
  3977  068D  2E8F               	goto	u103_21
  3978  068E  2E90               	goto	u103_20
  3979  068F                     u103_21:
  3980  068F  2E9B               	goto	i1l453
  3981  0690                     u103_20:
  3982  0690                     i1l1377:
  3983  0690  09F0               	comf	___fltol@f1,f
  3984  0691  09F1               	comf	___fltol@f1+1,f
  3985  0692  09F2               	comf	___fltol@f1+2,f
  3986  0693  09F3               	comf	___fltol@f1+3,f
  3987  0694  0AF0               	incf	___fltol@f1,f
  3988  0695  1903               	skipnz
  3989  0696  0AF1               	incf	___fltol@f1+1,f
  3990  0697  1903               	skipnz
  3991  0698  0AF2               	incf	___fltol@f1+2,f
  3992  0699  1903               	skipnz
  3993  069A  0AF3               	incf	___fltol@f1+3,f
  3994  069B                     i1l453:
  3995  069B                     i1l443:
  3996  069B  0008               	return
  3997  069C                     __end_of___fltol:
  3998  007E                     btemp	set	126	;btemp
  3999  007E                     wtemp0	set	126
  4000                           
  4001                           	psect	config
  4002                           
  4003                           ;Config register CONFIG1 @ 0x2007
  4004                           ;	Oscillator Selection bits
  4005                           ;	FOSC = INTRC_NOCLKOUT, INTOSCIO oscillator: I/O function on RA6/OSC2/CLKOUT pin, I/O f
      +                          unction on RA7/OSC1/CLKIN
  4006                           ;	Watchdog Timer Enable bit
  4007                           ;	WDTE = OFF, WDT disabled and can be enabled by SWDTEN bit of the WDTCON register
  4008                           ;	Power-up Timer Enable bit
  4009                           ;	PWRTE = OFF, PWRT disabled
  4010                           ;	RE3/MCLR pin function select bit
  4011                           ;	MCLRE = OFF, RE3/MCLR pin function is digital input, MCLR internally tied to VDD
  4012                           ;	Code Protection bit
  4013                           ;	CP = OFF, Program memory code protection is disabled
  4014                           ;	Data Code Protection bit
  4015                           ;	CPD = OFF, Data memory code protection is disabled
  4016                           ;	Brown Out Reset Selection bits
  4017                           ;	BOREN = OFF, BOR disabled
  4018                           ;	Internal External Switchover bit
  4019                           ;	IESO = OFF, Internal/External Switchover mode is disabled
  4020                           ;	Fail-Safe Clock Monitor Enabled bit
  4021                           ;	FCMEN = OFF, Fail-Safe Clock Monitor is disabled
  4022                           ;	Low Voltage Programming Enable bit
  4023                           ;	LVP = OFF, RB3 pin has digital I/O, HV on MCLR must be used for programming
  4024                           ;	In-Circuit Debugger Mode bit
  4025                           ;	DEBUG = 0x1, unprogrammed default
  4026  2007                     	org	8199
  4027  2007  20D4               	dw	8404
  4028                           
  4029                           ;Config register CONFIG2 @ 0x2008
  4030                           ;	Brown-out Reset Selection bit
  4031                           ;	BOR4V = BOR40V, Brown-out Reset set to 4.0V
  4032                           ;	Flash Program Memory Self Write Enable bits
  4033                           ;	WRT = OFF, Write protection off
  4034  2008                     	org	8200
  4035  2008  3FFF               	dw	16383

Data Sizes:
    Strings     0
    Constant    0
    Data        0
    BSS         6
    Persistent  0
    Stack       0

Auto Spaces:
    Space          Size  Autos    Used
    COMMON           14     11      11
    BANK0            80     49      55
    BANK1            80      0       0
    BANK3            96      0       0
    BANK2            96      0       0

Pointer List with Targets:

    None.

Critical Paths under _main in COMMON

    None.

Critical Paths under _isr in COMMON

    _isr->___fltol

Critical Paths under _main in BANK0

    _main->___flmul
    ___flmul->___xxtofl

Critical Paths under _isr in BANK0

    None.

Critical Paths under _main in BANK1

    None.

Critical Paths under _isr in BANK1

    None.

Critical Paths under _main in BANK3

    None.

Critical Paths under _isr in BANK3

    None.

Critical Paths under _main in BANK2

    None.

Critical Paths under _isr in BANK2

    None.

Call Graph Tables:

 ---------------------------------------------------------------------------------
 (Depth) Function   	        Calls       Base Space   Used Autos Params    Refs
 ---------------------------------------------------------------------------------
 (0) _main                                                 0     0      0    4021
                          _Select_ch
                             ___flge
                            ___flmul
                           ___xxtofl
                            _spiInit
                          _start_adc
                           _start_ch
 ---------------------------------------------------------------------------------
 (1) _start_ch                                             3     3      0      22
                                              9 BANK0      3     3      0
 ---------------------------------------------------------------------------------
 (1) _start_adc                                            6     3      3     316
                                              9 BANK0      6     3      3
 ---------------------------------------------------------------------------------
 (1) _spiInit                                              4     1      3     360
                                              9 BANK0      4     1      3
 ---------------------------------------------------------------------------------
 (1) ___xxtofl                                            14    10      4     398
                                              9 BANK0     14    10      4
 ---------------------------------------------------------------------------------
 (1) ___flmul                                             26    18      8    2417
                                             23 BANK0     26    18      8
                          __Umul8_16
                           ___xxtofl (ARG)
 ---------------------------------------------------------------------------------
 (2) __Umul8_16                                            9     7      2     799
                                              9 BANK0      9     7      2
 ---------------------------------------------------------------------------------
 (1) ___flge                                              12     4      8     486
                                              9 BANK0     12     4      8
 ---------------------------------------------------------------------------------
 (1) _Select_ch                                            3     3      0      22
                                              9 BANK0      3     3      0
 ---------------------------------------------------------------------------------
 Estimated maximum stack depth 2
 ---------------------------------------------------------------------------------
 (Depth) Function   	        Calls       Base Space   Used Autos Params    Refs
 ---------------------------------------------------------------------------------
 (3) _isr                                                  9     9      0     327
                                              0 BANK0      9     9      0
                            ___fltol
                           _spiWrite
 ---------------------------------------------------------------------------------
 (4) _spiWrite                                             1     1      0      22
                                              0 COMMON     1     1      0
 ---------------------------------------------------------------------------------
 (4) ___fltol                                             11     7      4     305
                                              0 COMMON    11     7      4
 ---------------------------------------------------------------------------------
 Estimated maximum stack depth 4
 ---------------------------------------------------------------------------------

 Call Graph Graphs:

 _main (ROOT)
   _Select_ch
   ___flge
   ___flmul
     __Umul8_16
     ___xxtofl (ARG)
   ___xxtofl
   _spiInit
   _start_adc
   _start_ch

 _isr (ROOT)
   ___fltol
   _spiWrite

 Address spaces:
Name               Size   Autos  Total    Cost      Usage
BITCOMMON            E      0       0       0        0.0%
EEDATA             100      0       0       0        0.0%
NULL                 0      0       0       0        0.0%
CODE                 0      0       0       0        0.0%
COMMON               E      B       B       1       78.6%
BITSFR0              0      0       0       1        0.0%
SFR0                 0      0       0       1        0.0%
BITSFR1              0      0       0       2        0.0%
SFR1                 0      0       0       2        0.0%
STACK                0      0       0       2        0.0%
ABS                  0      0      42       3        0.0%
BITBANK0            50      0       0       4        0.0%
BITSFR3              0      0       0       4        0.0%
SFR3                 0      0       0       4        0.0%
BANK0               50     31      37       5       68.8%
BITSFR2              0      0       0       5        0.0%
SFR2                 0      0       0       5        0.0%
BITBANK1            50      0       0       6        0.0%
BANK1               50      0       0       7        0.0%
BITBANK3            60      0       0       8        0.0%
BANK3               60      0       0       9        0.0%
BITBANK2            60      0       0      10        0.0%
BANK2               60      0       0      11        0.0%
DATA                 0      0      42      12        0.0%


Microchip Technology PIC Macro Assembler V2.31 build 20201012212115 
Symbol Table                                                                                   Fri Feb 19 01:21:11 2021

            _SSPSTATbits 0094                       l83 0712                       l92 074C  
                     l85 0715                       l94 0751                       l86 0718  
                     l95 0756                       l87 071B                       l96 075B  
                     l97 0778                       l89 0748      __Umul8_16@word_mpld 002F  
                    l101 06A0                      l110 06C0                      l111 06C4  
                    l103 06A4                      l120 0591                      l112 06C8  
                    l104 06A8                      l121 061B                      l113 06CC  
                    l105 06AC                      l130 05BE                      l122 0596  
                    l114 06D0                      l106 06B0                      l131 05C3  
                    l123 059B                      l115 06D4                      l107 06B4  
                    l132 05C8                      l124 05A0                      l108 06B8  
                    l116 070C                      l133 05CD                      l125 05A5  
                    l109 06BC                      l134 05D2                      l126 05AA  
                    l135 05D7                      l127 05AF                      l136 05DC  
                    l128 05B4                      l137 0621                      l129 05B9  
                    l153 0FFA                      l154 0FFF                      l431 0507  
                    l434 0573                      l435 058C                      l703 0403  
                    l704 040F                      l652 02E9                      l646 037D  
                    l665 07E1                      l658 0371                      l690 03A2  
                    l667 07F3                      l692 0439                      l696 03E7  
                    u810 07DB                      u811 07DA                      u901 0536  
                    u910 054F                      u902 0537                      u830 07EF  
                    u911 054E                      u903 053C                      u831 07EE  
                    u904 053D                      u840 0739                      u921 055E  
                    u905 0542                      u825 07E2                      u841 0738  
                    u930 0589                      u922 055F                      u906 0543  
                    u850 0744                      u931 0588                      u923 0564  
                    u851 0743                      u924 0565                      u860 0FEE  
                    u925 056A                      u861 0FED                      u926 056B  
                    u870 04FF                      u935 0585                      u871 04FE  
                    u880 051B                      u881 051A                      u890 0527  
                    u891 0526                      _isr 0779             ___flmul@aexp 0049  
           ___flmul@bexp 004A             ___flmul@sign 0044             ___flmul@temp 004F  
           ___flmul@prod 004B             ___fltol@exp1 007A                     l1301 0590  
                   l1305 05E1                     l1401 0056                     l1321 0FF9  
                   l1313 0FE5                     l1331 0527                     l1323 04E9  
                   l1251 07D7                     l1411 006D                     l1403 005A  
                   l1315 0FEE                     l1333 054B                     l1325 04FF  
                   l1253 07DB                     l1501 033C                     l1413 006F  
                   l1405 005B                     l1317 0FF2                     l1335 054F  
                   l1327 051B                     l1255 07EA                     l1247 07CE  
                   l1511 0369                     l1503 034B                     l1431 00E0  
                   l1423 008A                     l1415 0077                     l1407 0060  
                   l1319 0FF4                     l1271 0739                     l1263 0710  
                   l1337 0589                     l1329 0523                     l1257 07EF  
                   l1249 07D0                     l1513 036A                     l1505 0355  
                   l1441 015D                     l1433 010C                     l1425 009A  
                   l1417 007C                     l1409 0065                     l1521 0386  
                   l1273 073F                     l1601 046D                     l1339 058B  
                   l1515 0375                     l1507 0357                     l1451 01DD  
                   l1443 017A                     l1435 0128                     l1427 00A7  
                   l1419 0081                     l1531 03B3                     l1523 038A  
                   l1275 0744                     l1267 071E                     l1611 04BC  
                   l1603 046F                     l1509 0365                     l1461 0295  
                   l1453 020A                     l1445 018A                     l1437 0144  
                   l1429 00C4                     l1381 0024                     l1541 03DE  
                   l1533 03B8                     l1525 039A                     l1269 0734  
                   l1293 06D8                     l1621 04E1                     l1613 04BF  
                   l1605 0472                     l1471 02BA                     l1463 029E  
                   l1455 021A                     l1447 01A7                     l1439 014D  
                   l1391 0039                     l1383 002A                     l1551 0411  
                   l1543 03EE                     l1535 03C5                     l1527 03AA  
                   l1519 0381                     l1279 0760                     l1623 04E4  
                   l1615 04C1                     l1607 0473                     l1481 02D2  
                   l1473 02C3                     l1465 02AC                     l1457 0247  
                   l1449 01C0                     l1393 0041                     l1385 002E  
                   l1553 0427                     l1545 03F9                     l1537 03CC  
                   l1289 069F                     l1617 04DC                     l1609 04A3  
                   l1731 05E9                     l1491 0301                     l1483 02E6  
                   l1467 02B5                     l1475 02C9                     l1459 026D  
                   l1395 0043                     l1387 002F                     l1379 001D  
                   l1555 042C                     l1547 03FD                     l1539 03D0  
                   l1619 04DF                     l1493 0305                     l1477 02CD  
                   l1469 02B9                     l1397 004B                     l1389 0034  
                   l1557 0430                     l1549 0407                     l1725 06E0  
                   l1581 043E                     l1495 031E                     l1487 02EE  
                   l1479 02CE                     l1399 0050                     l1559 0431  
                   l1727 0726                     l1591 0458                     l1583 044A  
                   l1489 02F3                     l1497 0324                     l1729 076A  
                   l1593 045B                     l1585 0450                     l1499 0331  
                   l1595 045E                     l1587 0456                     l1579 043A  
                   l1597 045F                     l1589 0457                     l1599 046A  
                   ?_isr 0070                     u1100 007C                     u1101 007B  
                   u1110 0081                     u1111 0080                     u1040 002E  
                   u1201 01CF                     u1121 00D2                     u1041 002D  
                   u1202 01D6                     u1122 00D9                     u1050 0034  
                   u1211 01FC                     u1203 01DD                     u1131 00EE  
                   u1123 00E0                     u1051 0033                     u1212 0203  
                   u1132 00F5                     u1060 0039                     u1221 0229  
                   u1213 020A                     u1141 011A                     u1133 00FC  
                   u1061 0038                     u1310 02CD                     u1230 0253  
                   u1222 0230                     u1142 0121                     u1070 005A  
                   u1311 02CC                     u1223 0237                     u1151 0136  
                   u1143 0128                     u1071 0059                     u1400 0369  
                   u1320 02D2                     u1152 013D                     u1080 0060  
                   u1401 0368                     u1321 02D1                     u1305 02BC  
                   u1241 025F                     u1153 0144                     u1081 005F  
                   u1330 02E6                     u1250 027B                     u1242 0266  
                   u1090 0065                     u1410 0386                     u1331 02E5  
                   u1243 026D                     u1235 024E                     u1171 016C  
                   u1091 0064                     u1411 0385                     u1340 02ED  
                   u1172 0173                     u1500 0403                     u1420 038A  
                   u1341 02EC                     u1261 0287                     u1181 0199  
                   u1173 017A                     u1165 0146                     u1501 0402  
                   u1421 0389                     u1350 02F3                     u1262 028E  
                   u1182 01A0                     u1510 0407                     u1430 03AA  
                   u1351 02F2                     u1263 0295                     u1255 0276  
                   u1183 01A7                     u1511 0406                     u1431 03A9  
                   u1360 0305                     u1520 041C                     u1361 0304  
                   u1370 0314                     u1290 02B9                     u1530 042C  
                   u1450 03CB                     u1291 02B8                     u1275 0297  
                   u1195 01A9                     u1531 042B                     u1451 03CA  
                   u1380 0331                     u1540 0430                     u1381 0330  
                   u1285 02AE                     u1541 042F                     u1525 0417  
                   u1445 03BD                     u1390 034B                     u1470 03ED  
                   u1391 034A                     u1375 030F                     u1471 03EC  
                   u1385 032D                     u1465 03DF                     u1490 03FD  
                   u1395 0347                     u1491 03FC                     u1580 04BC  
                   u1485 03F2                     u1581 04BB                     u1590 04DC  
                   u1591 04DB                     i1l53 07C4                     _main 043A  
                   btemp 007E              _voltageLM35 0055                     start 000E  
                  ??_isr 0020            ___fltol@sign1 0079                    ?_main 0070  
        __end_of___flmul 037E          __end_of___fltol 069C                    _ANSEL 0188  
                  i1l163 07F9                    i1l450 0686                    i1l443 069B  
                  i1l453 069B                    _PORTB 0006                    _PORTD 0008  
                  _TRISB 0086                    _TRISD 0088                    _SSPIF 0063  
                  u94_20 062D                    u94_21 062C                    u95_20 0644  
                  u95_25 063F                    u96_20 065A                    u96_21 0659  
                  u97_20 0661                    u97_21 0660                    u98_25 0663  
                  u99_20 0673                    u99_21 0672                    pclath 000A  
        __end_of_spiInit 1000                    status 0003                    wtemp0 007E  
        __initialization 0011             __end_of_main 04E9                   ??_main 0051  
                 _ADRESH 001E                   _ADRESL 009E                   _ANSELH 0189  
                 u100_20 067A                   u100_21 0679                   u101_25 067D  
                 u102_20 068B                   u102_21 068A                   u103_20 0690  
                 u103_21 068F                   i1l1261 07F5                   i1l1351 064B  
                 i1l1343 0622                   i1l1353 064C                   i1l1345 062D  
                 i1l1355 0654                   i1l1373 067B                   i1l1365 0662  
                 i1l1357 0656                   i1l1349 0636                   i1l1375 068B  
                 i1l1359 065A                   i1l1367 0674                   i1l1377 0690  
                 i1l1571 07A7                   i1l1563 0779                   i1l1565 077D  
                 i1l1573 07AA                   i1l1575 07AE                   i1l1567 079F  
                 i1l1577 07C1                   i1l1569 07A0                   u160_27 07A4  
                 u155_20 077D                   u155_21 077C                   u156_25 0784  
                 u157_20 07AE                   u157_21 07AD                   _TRISC3 043B  
                 _TRISC5 043D                   _SSPCON 0014                   _SSPBUF 0013  
       __end_of___xxtofl 043A                   ___flge 04E9                ??___flmul 003F  
              ??___fltol 0074       __size_of_Select_ch 0095             start_adc@isr 0029  
     __size_of__Umul8_16 0029                   saved_w 007E         __end_of_spiWrite 07FA  
              ??_spiInit 002C         __end_of_start_ch 070D               ___flge@ff1 0029  
             ___flge@ff2 002D             ___xxtofl@arg 0033             ___xxtofl@exp 0032  
           ___xxtofl@val 0029  __end_of__initialization 0019               ___fltol@f1 0070  
         __pcstackCOMMON 0070        __end_of_Select_ch 0622               __pbssBANK0 0051  
      __end_of__Umul8_16 07F4               __pmaintext 043A                  ?___flge 0029  
             __pintentry 0004                ?___xxtofl 0029       __size_of_start_adc 006C  
                _SSPSTAT 0094                ?_spiWrite 0070          __size_of___flge 00A4  
                ___flmul 001D                  ___fltol 0622                ?_start_ch 0070  
              _ANSELbits 0188                  __ptext1 069C                  __ptext2 070D  
                __ptext3 0FE2                  __ptext4 037E                  __ptext5 001D  
                __ptext6 07CB                  __ptext7 04E9                  __ptext8 058D  
                __ptext9 0779         Select_ch@channel 002B             __size_of_isr 0052  
             ??___xxtofl 002D            start_adc@Vref 002A            start_adc@frec 002E  
                _spiInit 0FE2     end_of_initialization 0019               ??_spiWrite 0070  
      __end_of_start_adc 0779               ??_start_ch 0029                _PORTDbits 0008  
          ___xxtofl@sign 0031                _TRISAbits 0085              spiWrite@dat 0070  
            ___flmul@grs 0045           __end_of___flge 058D      start_initialization 0011  
            __end_of_isr 07CB                _Select_ch 058D                 ??___flge 0031  
              __Umul8_16 07CB                ___flmul@a 003B                ___flmul@b 0037  
              ___latbits 0002            __pcstackBANK0 0020        __size_of___xxtofl 00BC  
             ?_Select_ch 0070                 ?___flmul 0037                 ?___fltol 0070  
             ?__Umul8_16 0029        __size_of_spiWrite 0006        __size_of_start_ch 0071  
               ?_spiInit 0029     spiInit@sTransmitEdge 002B        interrupt_function 0004  
               _PIE1bits 008C          start_ch@channel 002B       spiInit@sDataSample 0029  
               _PIR1bits 000C          start_adc@justRL 002B               _ADCON0bits 001F  
             _ADCON1bits 009F                _start_adc 070D              ??_Select_ch 0029  
            ??__Umul8_16 002B         __size_of___flmul 0361         __size_of___fltol 007A  
             ?_start_adc 0029               _ANSELHbits 0189                 ___xxtofl 037E  
               __ptext10 07F4                 __ptext11 0622         __size_of_spiInit 001E  
          __size_of_main 00AF                 _spiWrite 07F4             spiInit@sType 002C  
               _start_ch 069C        spiInit@sClockIdle 002A               _INTCONbits 000B  
               intlevel1 0000              ??_start_adc 002C   __Umul8_16@multiplicand 0029  
            _temperature 0051     __Umul8_16@multiplier 0031        __Umul8_16@product 002D  
